
a:/Documents/Programming/GitHub/CoolSafe/Microcontroller/cool_safe_code-1st_PCB/target/1.5.4-rc.1/argon/cool_safe_code-1st_PCB.elf:     file format elf32-littlearm

Sections:
Idx Name          Size      VMA       LMA       File off  Algn
  0 .module_info  00000018  000d4000  000d4000  00004000  2**2
                  CONTENTS, ALLOC, LOAD, READONLY, DATA
  1 .dynalib      00000004  000d4018  000d4018  00004018  2**2
                  CONTENTS, ALLOC, LOAD, READONLY, DATA
  2 .text         00004974  000d401c  000d401c  0000401c  2**2
                  CONTENTS, ALLOC, LOAD, READONLY, CODE
  3 .backup       00000004  2003f400  000d8990  0000f400  2**2
                  CONTENTS, ALLOC, LOAD, DATA
  4 .data         000000d0  2003e29c  000d8994  0001e29c  2**2
                  CONTENTS, ALLOC, LOAD, DATA
  5 .bss          00000484  2003e36c  2003e36c  0002e36c  2**2
                  ALLOC
  6 .module_info_suffix 00000028  000d8a64  000d8a64  00028a64  2**0
                  CONTENTS, ALLOC, LOAD, READONLY, DATA
  7 .module_info_crc 00000004  000d8a8c  000d8a8c  00028a8c  2**0
                  CONTENTS, ALLOC, LOAD, READONLY, DATA
  8 .debug_info   000e618c  00000000  00000000  00028a90  2**0
                  CONTENTS, READONLY, DEBUGGING
  9 .debug_abbrev 0001202b  00000000  00000000  0010ec1c  2**0
                  CONTENTS, READONLY, DEBUGGING
 10 .debug_loc    0001f9e4  00000000  00000000  00120c47  2**0
                  CONTENTS, READONLY, DEBUGGING
 11 .debug_aranges 00002a28  00000000  00000000  0014062b  2**0
                  CONTENTS, READONLY, DEBUGGING
 12 .debug_ranges 00004b98  00000000  00000000  00143053  2**0
                  CONTENTS, READONLY, DEBUGGING
 13 .debug_macro  00038627  00000000  00000000  00147beb  2**0
                  CONTENTS, READONLY, DEBUGGING
 14 .debug_line   0002c5e1  00000000  00000000  00180212  2**0
                  CONTENTS, READONLY, DEBUGGING
 15 .debug_str    00105f84  00000000  00000000  001ac7f3  2**0
                  CONTENTS, READONLY, DEBUGGING
 16 .debug_frame  0000d958  00000000  00000000  002b2778  2**2
                  CONTENTS, READONLY, DEBUGGING

Disassembly of section .text:

000d401c <module_user_pre_init>:
/**
 * Initializes this user module. Returns the start of the heap.
 */
void* module_user_pre_init() {

    if ( (&link_global_data_start!=&link_global_data_initial_values) && (link_global_data_size != 0))
   d401c:	4809      	ldr	r0, [pc, #36]	; (d4044 <link_dynalib_end+0x28>)
   d401e:	490a      	ldr	r1, [pc, #40]	; (d4048 <link_dynalib_end+0x2c>)
   d4020:	4288      	cmp	r0, r1
extern constructor_ptr_t link_constructors_end;

/**
 * Initializes this user module. Returns the start of the heap.
 */
void* module_user_pre_init() {
   d4022:	b508      	push	{r3, lr}

    if ( (&link_global_data_start!=&link_global_data_initial_values) && (link_global_data_size != 0))
   d4024:	d005      	beq.n	d4032 <module_user_pre_init+0x16>
   d4026:	4a09      	ldr	r2, [pc, #36]	; (d404c <link_dynalib_end+0x30>)
   d4028:	4282      	cmp	r2, r0
   d402a:	d002      	beq.n	d4032 <module_user_pre_init+0x16>
    {
        memcpy(&link_global_data_start, &link_global_data_initial_values, link_global_data_size);
   d402c:	1a12      	subs	r2, r2, r0
   d402e:	f003 fec8 	bl	d7dc2 <memcpy>
    }

    memset(&link_bss_location, 0, link_bss_size );
   d4032:	4807      	ldr	r0, [pc, #28]	; (d4050 <link_dynalib_end+0x34>)
   d4034:	4a07      	ldr	r2, [pc, #28]	; (d4054 <link_dynalib_end+0x38>)
   d4036:	2100      	movs	r1, #0
   d4038:	1a12      	subs	r2, r2, r0
   d403a:	f003 fee8 	bl	d7e0e <memset>
    return &link_global_data_start;
}
   d403e:	4801      	ldr	r0, [pc, #4]	; (d4044 <link_dynalib_end+0x28>)
   d4040:	bd08      	pop	{r3, pc}
   d4042:	bf00      	nop
   d4044:	2003e29c 	.word	0x2003e29c
   d4048:	000d8994 	.word	0x000d8994
   d404c:	2003e36c 	.word	0x2003e36c
   d4050:	2003e36c 	.word	0x2003e36c
   d4054:	2003e7f0 	.word	0x2003e7f0

000d4058 <module_user_init>:
extern constructor_ptr_t link_constructors_location[];
extern constructor_ptr_t link_constructors_end;
#define link_constructors_size   ((unsigned long)&link_constructors_end  -  (unsigned long)&link_constructors_location )

void module_user_init()
{
   d4058:	b570      	push	{r4, r5, r6, lr}
    module_user_init_hook();
   d405a:	f003 f8a9 	bl	d71b0 <module_user_init_hook>
   d405e:	4c07      	ldr	r4, [pc, #28]	; (d407c <module_user_init+0x24>)
   d4060:	4b07      	ldr	r3, [pc, #28]	; (d4080 <module_user_init+0x28>)
   d4062:	1ae4      	subs	r4, r4, r3
   d4064:	08a4      	lsrs	r4, r4, #2

    // invoke constructors
    int ctor_num;
    for (ctor_num=0; ctor_num < link_constructors_size/sizeof(constructor_ptr_t); ctor_num++ )
   d4066:	2500      	movs	r5, #0
   d4068:	461e      	mov	r6, r3
   d406a:	42a5      	cmp	r5, r4
   d406c:	d004      	beq.n	d4078 <module_user_init+0x20>
    {
        link_constructors_location[ctor_num]();
   d406e:	f856 3025 	ldr.w	r3, [r6, r5, lsl #2]
   d4072:	4798      	blx	r3
{
    module_user_init_hook();

    // invoke constructors
    int ctor_num;
    for (ctor_num=0; ctor_num < link_constructors_size/sizeof(constructor_ptr_t); ctor_num++ )
   d4074:	3501      	adds	r5, #1
   d4076:	e7f8      	b.n	d406a <module_user_init+0x12>
    {
        link_constructors_location[ctor_num]();
    }
}
   d4078:	bd70      	pop	{r4, r5, r6, pc}
   d407a:	bf00      	nop
   d407c:	000d8990 	.word	0x000d8990
   d4080:	000d8950 	.word	0x000d8950

000d4084 <module_user_setup>:

/**
 * Export these functions with a fuller name so they don't clash with the setup/loop wrappers in the system module.
 */
void module_user_setup() {
    setup();
   d4084:	f000 ba24 	b.w	d44d0 <setup>

000d4088 <module_user_loop>:
}

void module_user_loop() {
   d4088:	b508      	push	{r3, lr}
    loop();
   d408a:	f000 fceb 	bl	d4a64 <loop>
    _post_loop();
}
   d408e:	e8bd 4008 	ldmia.w	sp!, {r3, lr}
    setup();
}

void module_user_loop() {
    loop();
    _post_loop();
   d4092:	f003 b84f 	b.w	d7134 <_post_loop>

000d4096 <_Znwj>:
   d4096:	f001 bd57 	b.w	d5b48 <malloc>

000d409a <_Znaj>:
	return malloc(size);
}

void *operator new[](size_t size)
{
	return malloc(size);
   d409a:	f001 bd55 	b.w	d5b48 <malloc>

000d409e <_ZdlPv>:
   d409e:	f001 bd5b 	b.w	d5b58 <free>

000d40a2 <_ZdaPv>:
	free(p);
}

void operator delete[](void *p)
{
	free(p);
   d40a2:	f001 bd59 	b.w	d5b58 <free>

000d40a6 <__cxa_guard_acquire>:

/* Provide default implemenation for __cxa_guard_acquire() and
 * __cxa_guard_release(). Note: these must be revisited if a multitasking
 * OS is ported to this platform. */
__extension__ typedef int __guard __attribute__((mode (__DI__)));
int __cxa_guard_acquire(__guard *g) {return !*(char *)(g);};
   d40a6:	7800      	ldrb	r0, [r0, #0]
   d40a8:	fab0 f080 	clz	r0, r0
   d40ac:	0940      	lsrs	r0, r0, #5
   d40ae:	4770      	bx	lr

000d40b0 <__cxa_guard_release>:
void __cxa_guard_release (__guard *g) {*(char *)g = 1;};
   d40b0:	2301      	movs	r3, #1
   d40b2:	7003      	strb	r3, [r0, #0]
   d40b4:	4770      	bx	lr
	...

000d40b8 <_Z4playiiPiS_>:
// Notes defined in microseconds (Period/2) 
// from note C to B, Octaves 3 through 7

#include "playTones.h"

void play(int speakerPin, int numNotes, int* noteFrequencies, int* noteDurations) {
   d40b8:	e92d 4ff8 	stmdb	sp!, {r3, r4, r5, r6, r7, r8, r9, sl, fp, lr}

    // to calculate the note duration, take one second
    // divided by the note type.
    // e.g. quarter note = 1000 / 4, eighth note = 1000/8, etc.
    int noteDuration = 60*1000/BPM/noteDurations[thisNote];
    tone(speakerPin, (noteFrequencies[thisNote]!=0)?(500000/noteFrequencies[thisNote]):0,noteDuration-RELEASE);
   d40bc:	f8df b048 	ldr.w	fp, [pc, #72]	; d4108 <_Z4playiiPiS_+0x50>
// Notes defined in microseconds (Period/2) 
// from note C to B, Octaves 3 through 7

#include "playTones.h"

void play(int speakerPin, int numNotes, int* noteFrequencies, int* noteDurations) {
   d40c0:	460f      	mov	r7, r1
   d40c2:	4690      	mov	r8, r2
   d40c4:	4699      	mov	r9, r3
  // iterate over the notes of the melody:
  for (int thisNote = 0; thisNote < numNotes; thisNote++) {
   d40c6:	2400      	movs	r4, #0
   d40c8:	b2c6      	uxtb	r6, r0

    // to calculate the note duration, take one second
    // divided by the note type.
    // e.g. quarter note = 1000 / 4, eighth note = 1000/8, etc.
    int noteDuration = 60*1000/BPM/noteDurations[thisNote];
   d40ca:	f44f 7a16 	mov.w	sl, #600	; 0x258

#include "playTones.h"

void play(int speakerPin, int numNotes, int* noteFrequencies, int* noteDurations) {
  // iterate over the notes of the melody:
  for (int thisNote = 0; thisNote < numNotes; thisNote++) {
   d40ce:	42bc      	cmp	r4, r7
   d40d0:	da15      	bge.n	d40fe <_Z4playiiPiS_+0x46>

    // to calculate the note duration, take one second
    // divided by the note type.
    // e.g. quarter note = 1000 / 4, eighth note = 1000/8, etc.
    int noteDuration = 60*1000/BPM/noteDurations[thisNote];
    tone(speakerPin, (noteFrequencies[thisNote]!=0)?(500000/noteFrequencies[thisNote]):0,noteDuration-RELEASE);
   d40d2:	f858 1024 	ldr.w	r1, [r8, r4, lsl #2]
  for (int thisNote = 0; thisNote < numNotes; thisNote++) {

    // to calculate the note duration, take one second
    // divided by the note type.
    // e.g. quarter note = 1000 / 4, eighth note = 1000/8, etc.
    int noteDuration = 60*1000/BPM/noteDurations[thisNote];
   d40d6:	f859 5024 	ldr.w	r5, [r9, r4, lsl #2]
   d40da:	fb9a f5f5 	sdiv	r5, sl, r5
    tone(speakerPin, (noteFrequencies[thisNote]!=0)?(500000/noteFrequencies[thisNote]):0,noteDuration-RELEASE);
   d40de:	b109      	cbz	r1, d40e4 <_Z4playiiPiS_+0x2c>
   d40e0:	fb9b f1f1 	sdiv	r1, fp, r1
   d40e4:	f1a5 0214 	sub.w	r2, r5, #20
   d40e8:	4630      	mov	r0, r6
   d40ea:	f003 f983 	bl	d73f4 <tone>

    // blocking delay needed because tone() does not block
    delay(noteDuration);
   d40ee:	4628      	mov	r0, r5
   d40f0:	f002 ffb0 	bl	d7054 <delay>

    noTone(speakerPin);
   d40f4:	4630      	mov	r0, r6
   d40f6:	f003 f994 	bl	d7422 <noTone>

#include "playTones.h"

void play(int speakerPin, int numNotes, int* noteFrequencies, int* noteDurations) {
  // iterate over the notes of the melody:
  for (int thisNote = 0; thisNote < numNotes; thisNote++) {
   d40fa:	3401      	adds	r4, #1
   d40fc:	e7e7      	b.n	d40ce <_Z4playiiPiS_+0x16>
    delay(noteDuration);

    noTone(speakerPin);
  }

  noTone(speakerPin);
   d40fe:	4630      	mov	r0, r6
   d4100:	e8bd 4ff8 	ldmia.w	sp!, {r3, r4, r5, r6, r7, r8, r9, sl, fp, lr}
    delay(noteDuration);

    noTone(speakerPin);
  }

  noTone(speakerPin);
   d4104:	f003 b98d 	b.w	d7422 <noTone>
   d4108:	0007a120 	.word	0x0007a120

000d410c <_GLOBAL__sub_I__Z4playiiPiS_>:

inline void pinSetFast(pin_t _pin) __attribute__((always_inline));
inline void pinResetFast(pin_t _pin) __attribute__((always_inline));
inline int32_t pinReadFast(pin_t _pin) __attribute__((always_inline));

static Hal_Pin_Info* PIN_MAP = HAL_Pin_Map();
   d410c:	f001 ba5e 	b.w	d55cc <HAL_Pin_Map>

000d4110 <_Z14onDataReceivedPKhjRKN8particle13BlePeerDeviceEPv>:
   d4110:	b537      	push	{r0, r1, r2, r4, r5, lr}
   d4112:	4604      	mov	r4, r0
   d4114:	f003 f948 	bl	d73a8 <_Z16_fetch_usbserialv>
    }

    template <typename... Args>
    inline size_t printlnf(const char* format, Args... args)
    {
        return this->printf_impl(true, format, args...);
   d4118:	4623      	mov	r3, r4
   d411a:	4a28      	ldr	r2, [pc, #160]	; (d41bc <_Z14onDataReceivedPKhjRKN8particle13BlePeerDeviceEPv+0xac>)
   d411c:	9400      	str	r4, [sp, #0]
   d411e:	2101      	movs	r1, #1
   d4120:	f002 ff4b 	bl	d6fba <_ZN5Print11printf_implEbPKcz>
   d4124:	7823      	ldrb	r3, [r4, #0]
   d4126:	4a26      	ldr	r2, [pc, #152]	; (d41c0 <_Z14onDataReceivedPKhjRKN8particle13BlePeerDeviceEPv+0xb0>)
   d4128:	7861      	ldrb	r1, [r4, #1]
   d412a:	7011      	strb	r1, [r2, #0]
   d412c:	3b41      	subs	r3, #65	; 0x41
   d412e:	2b04      	cmp	r3, #4
   d4130:	d835      	bhi.n	d419e <_Z14onDataReceivedPKhjRKN8particle13BlePeerDeviceEPv+0x8e>
   d4132:	e8df f003 	tbb	[pc, r3]
   d4136:	0a03      	.short	0x0a03
   d4138:	1a13      	.short	0x1a13
   d413a:	21          	.byte	0x21
   d413b:	00          	.byte	0x00
   d413c:	2200      	movs	r2, #0
   d413e:	4610      	mov	r0, r2
   d4140:	2164      	movs	r1, #100	; 0x64
   d4142:	f002 ffa9 	bl	d7098 <_ZN8RGBClass5colorEiii>
   d4146:	2241      	movs	r2, #65	; 0x41
   d4148:	e005      	b.n	d4156 <_Z14onDataReceivedPKhjRKN8particle13BlePeerDeviceEPv+0x46>
   d414a:	2200      	movs	r2, #0
   d414c:	4611      	mov	r1, r2
   d414e:	2064      	movs	r0, #100	; 0x64
   d4150:	f002 ffa2 	bl	d7098 <_ZN8RGBClass5colorEiii>
   d4154:	2242      	movs	r2, #66	; 0x42
   d4156:	4b1b      	ldr	r3, [pc, #108]	; (d41c4 <_Z14onDataReceivedPKhjRKN8particle13BlePeerDeviceEPv+0xb4>)
   d4158:	701a      	strb	r2, [r3, #0]
   d415a:	e025      	b.n	d41a8 <_Z14onDataReceivedPKhjRKN8particle13BlePeerDeviceEPv+0x98>
   d415c:	2264      	movs	r2, #100	; 0x64
   d415e:	4610      	mov	r0, r2
   d4160:	2100      	movs	r1, #0
   d4162:	f002 ff99 	bl	d7098 <_ZN8RGBClass5colorEiii>
   d4166:	2243      	movs	r2, #67	; 0x43
   d4168:	e7f5      	b.n	d4156 <_Z14onDataReceivedPKhjRKN8particle13BlePeerDeviceEPv+0x46>
   d416a:	2264      	movs	r2, #100	; 0x64
   d416c:	4611      	mov	r1, r2
   d416e:	2000      	movs	r0, #0
   d4170:	f002 ff92 	bl	d7098 <_ZN8RGBClass5colorEiii>
   d4174:	2244      	movs	r2, #68	; 0x44
   d4176:	e7ee      	b.n	d4156 <_Z14onDataReceivedPKhjRKN8particle13BlePeerDeviceEPv+0x46>
   d4178:	2264      	movs	r2, #100	; 0x64
   d417a:	4d13      	ldr	r5, [pc, #76]	; (d41c8 <_Z14onDataReceivedPKhjRKN8particle13BlePeerDeviceEPv+0xb8>)
   d417c:	4611      	mov	r1, r2
   d417e:	4610      	mov	r0, r2
   d4180:	f002 ff8a 	bl	d7098 <_ZN8RGBClass5colorEiii>
   d4184:	4621      	mov	r1, r4
   d4186:	6828      	ldr	r0, [r5, #0]
   d4188:	f003 fe72 	bl	d7e70 <strcpy>
   d418c:	f003 f90c 	bl	d73a8 <_Z16_fetch_usbserialv>
   d4190:	4a0e      	ldr	r2, [pc, #56]	; (d41cc <_Z14onDataReceivedPKhjRKN8particle13BlePeerDeviceEPv+0xbc>)
   d4192:	682b      	ldr	r3, [r5, #0]
   d4194:	2101      	movs	r1, #1
   d4196:	f002 ff10 	bl	d6fba <_ZN5Print11printf_implEbPKcz>
   d419a:	2245      	movs	r2, #69	; 0x45
   d419c:	e7db      	b.n	d4156 <_Z14onDataReceivedPKhjRKN8particle13BlePeerDeviceEPv+0x46>
   d419e:	2200      	movs	r2, #0
   d41a0:	4611      	mov	r1, r2
   d41a2:	4610      	mov	r0, r2
   d41a4:	f002 ff78 	bl	d7098 <_ZN8RGBClass5colorEiii>
   d41a8:	f003 f8fe 	bl	d73a8 <_Z16_fetch_usbserialv>
   d41ac:	4a08      	ldr	r2, [pc, #32]	; (d41d0 <_Z14onDataReceivedPKhjRKN8particle13BlePeerDeviceEPv+0xc0>)
   d41ae:	2300      	movs	r3, #0
   d41b0:	2101      	movs	r1, #1
   d41b2:	b003      	add	sp, #12
   d41b4:	e8bd 4030 	ldmia.w	sp!, {r4, r5, lr}
   d41b8:	f002 beff 	b.w	d6fba <_ZN5Print11printf_implEbPKcz>
   d41bc:	000d7ecc 	.word	0x000d7ecc
   d41c0:	2003e371 	.word	0x2003e371
   d41c4:	2003e384 	.word	0x2003e384
   d41c8:	2003e39c 	.word	0x2003e39c
   d41cc:	000d7ee5 	.word	0x000d7ee5
   d41d0:	000d7ef6 	.word	0x000d7ef6

000d41d4 <_ZN11SystemClassD1Ev>:
    system_error_t error_;
    SleepResult compatResult_;
};


class SystemClass {
   d41d4:	b510      	push	{r4, lr}
   d41d6:	4604      	mov	r4, r0
        return toSleepResult();
    }

private:
    void freeWakeupSourceMemory() {
        if (wakeupSource_) {
   d41d8:	6800      	ldr	r0, [r0, #0]
   d41da:	b108      	cbz	r0, d41e0 <_ZN11SystemClassD1Ev+0xc>
            free(wakeupSource_);
   d41dc:	f001 fcbc 	bl	d5b58 <free>
    system_error_t error_;
    SleepResult compatResult_;
};


class SystemClass {
   d41e0:	4620      	mov	r0, r4
   d41e2:	bd10      	pop	{r4, pc}

000d41e4 <_Z12goodFeedbackv>:
   d41e4:	b508      	push	{r3, lr}
   d41e6:	2101      	movs	r1, #1
   d41e8:	2006      	movs	r0, #6
   d41ea:	f003 fbe2 	bl	d79b2 <digitalWrite>
   d41ee:	2200      	movs	r2, #0
   d41f0:	4610      	mov	r0, r2
   d41f2:	21ff      	movs	r1, #255	; 0xff
   d41f4:	f002 ff50 	bl	d7098 <_ZN8RGBClass5colorEiii>
   d41f8:	4b08      	ldr	r3, [pc, #32]	; (d421c <_Z12goodFeedbackv+0x38>)
   d41fa:	4a09      	ldr	r2, [pc, #36]	; (d4220 <_Z12goodFeedbackv+0x3c>)
   d41fc:	2103      	movs	r1, #3
   d41fe:	2013      	movs	r0, #19
   d4200:	f7ff ff5a 	bl	d40b8 <_Z4playiiPiS_>
   d4204:	2100      	movs	r1, #0
   d4206:	2006      	movs	r0, #6
   d4208:	f003 fbd3 	bl	d79b2 <digitalWrite>
   d420c:	2200      	movs	r2, #0
   d420e:	4611      	mov	r1, r2
   d4210:	4610      	mov	r0, r2
   d4212:	e8bd 4008 	ldmia.w	sp!, {r3, lr}
   d4216:	f002 bf3f 	b.w	d7098 <_ZN8RGBClass5colorEiii>
   d421a:	bf00      	nop
   d421c:	2003e2f4 	.word	0x2003e2f4
   d4220:	2003e2e8 	.word	0x2003e2e8

000d4224 <_Z7openBinv>:
   d4224:	b508      	push	{r3, lr}
   d4226:	2101      	movs	r1, #1
   d4228:	200f      	movs	r0, #15
   d422a:	f003 fbc2 	bl	d79b2 <digitalWrite>
   d422e:	f7ff ffd9 	bl	d41e4 <_Z12goodFeedbackv>
   d4232:	f44f 707a 	mov.w	r0, #1000	; 0x3e8
   d4236:	f002 ff0d 	bl	d7054 <delay>
   d423a:	2100      	movs	r1, #0
   d423c:	200f      	movs	r0, #15
   d423e:	e8bd 4008 	ldmia.w	sp!, {r3, lr}
   d4242:	f003 bbb6 	b.w	d79b2 <digitalWrite>
	...

000d4248 <_Z11badFeedbackv>:
   d4248:	b508      	push	{r3, lr}
   d424a:	2101      	movs	r1, #1
   d424c:	2008      	movs	r0, #8
   d424e:	f003 fbb0 	bl	d79b2 <digitalWrite>
   d4252:	2200      	movs	r2, #0
   d4254:	4611      	mov	r1, r2
   d4256:	20ff      	movs	r0, #255	; 0xff
   d4258:	f002 ff1e 	bl	d7098 <_ZN8RGBClass5colorEiii>
   d425c:	4b08      	ldr	r3, [pc, #32]	; (d4280 <_Z11badFeedbackv+0x38>)
   d425e:	4a09      	ldr	r2, [pc, #36]	; (d4284 <_Z11badFeedbackv+0x3c>)
   d4260:	2103      	movs	r1, #3
   d4262:	2013      	movs	r0, #19
   d4264:	f7ff ff28 	bl	d40b8 <_Z4playiiPiS_>
   d4268:	2100      	movs	r1, #0
   d426a:	2008      	movs	r0, #8
   d426c:	f003 fba1 	bl	d79b2 <digitalWrite>
   d4270:	2200      	movs	r2, #0
   d4272:	4611      	mov	r1, r2
   d4274:	4610      	mov	r0, r2
   d4276:	e8bd 4008 	ldmia.w	sp!, {r3, lr}
   d427a:	f002 bf0d 	b.w	d7098 <_ZN8RGBClass5colorEiii>
   d427e:	bf00      	nop
   d4280:	2003e2dc 	.word	0x2003e2dc
   d4284:	2003e2d0 	.word	0x2003e2d0

000d4288 <_Z11idAvailablei>:
   d4288:	b510      	push	{r4, lr}
   d428a:	4604      	mov	r4, r0
   d428c:	f003 fbbe 	bl	d7a0c <_Z21__fetch_global_EEPROMv>

    EERef( const int index )
        : index( index )                 {}

    //Access/read members.
    uint8_t operator*() const            { return HAL_EEPROM_Read(index); }
   d4290:	2008      	movs	r0, #8
   d4292:	fb94 f0f0 	sdiv	r0, r4, r0
   d4296:	f001 f9f9 	bl	d568c <HAL_EEPROM_Read>
   d429a:	4b07      	ldr	r3, [pc, #28]	; (d42b8 <_Z11idAvailablei+0x30>)
   d429c:	4023      	ands	r3, r4
   d429e:	2b00      	cmp	r3, #0
   d42a0:	bfbe      	ittt	lt
   d42a2:	f103 33ff 	addlt.w	r3, r3, #4294967295
   d42a6:	f063 0307 	ornlt	r3, r3, #7
   d42aa:	3301      	addlt	r3, #1
   d42ac:	b240      	sxtb	r0, r0
   d42ae:	4118      	asrs	r0, r3
   d42b0:	f000 0001 	and.w	r0, r0, #1
   d42b4:	bd10      	pop	{r4, pc}
   d42b6:	bf00      	nop
   d42b8:	80000007 	.word	0x80000007

000d42bc <_Z9authWriteii>:
   d42bc:	e92d 43f7 	stmdb	sp!, {r0, r1, r2, r4, r5, r6, r7, r8, r9, lr}
   d42c0:	2508      	movs	r5, #8
   d42c2:	fb90 f5f5 	sdiv	r5, r0, r5
   d42c6:	3519      	adds	r5, #25
   d42c8:	4607      	mov	r7, r0
   d42ca:	460e      	mov	r6, r1
   d42cc:	f003 fb9e 	bl	d7a0c <_Z21__fetch_global_EEPROMv>
   d42d0:	4628      	mov	r0, r5
   d42d2:	f001 f9db 	bl	d568c <HAL_EEPROM_Read>
   d42d6:	4b21      	ldr	r3, [pc, #132]	; (d435c <_Z9authWriteii+0xa0>)
   d42d8:	403b      	ands	r3, r7
   d42da:	2b00      	cmp	r3, #0
   d42dc:	bfbe      	ittt	lt
   d42de:	f103 33ff 	addlt.w	r3, r3, #4294967295
   d42e2:	f063 0307 	ornlt	r3, r3, #7
   d42e6:	3301      	addlt	r3, #1
   d42e8:	f04f 0901 	mov.w	r9, #1
   d42ec:	4680      	mov	r8, r0
   d42ee:	fa09 f403 	lsl.w	r4, r9, r3
   d42f2:	b996      	cbnz	r6, d431a <_Z9authWriteii+0x5e>
   d42f4:	f003 f858 	bl	d73a8 <_Z16_fetch_usbserialv>
   d42f8:	b2e3      	uxtb	r3, r4
   d42fa:	ea28 0303 	bic.w	r3, r8, r3
   d42fe:	4649      	mov	r1, r9
   d4300:	9301      	str	r3, [sp, #4]
   d4302:	4a17      	ldr	r2, [pc, #92]	; (d4360 <_Z9authWriteii+0xa4>)
   d4304:	f8cd 8000 	str.w	r8, [sp]
   d4308:	462b      	mov	r3, r5
   d430a:	f002 fe56 	bl	d6fba <_ZN5Print11printf_implEbPKcz>
   d430e:	f003 fb7d 	bl	d7a0c <_Z21__fetch_global_EEPROMv>
    operator const uint8_t() const       { return **this; }

    //Assignment/write members.
    EERef &operator=( const EERef &ref ) { return *this = *ref; }
    EERef &operator=( uint8_t in )       { return HAL_EEPROM_Write(index, in), *this;  }
   d4312:	ea28 0104 	bic.w	r1, r8, r4
   d4316:	b2c9      	uxtb	r1, r1
   d4318:	e011      	b.n	d433e <_Z9authWriteii+0x82>
   d431a:	2e01      	cmp	r6, #1
   d431c:	d112      	bne.n	d4344 <_Z9authWriteii+0x88>
   d431e:	ea48 0404 	orr.w	r4, r8, r4
   d4322:	b2e4      	uxtb	r4, r4
   d4324:	f003 f840 	bl	d73a8 <_Z16_fetch_usbserialv>
   d4328:	4631      	mov	r1, r6
   d432a:	462b      	mov	r3, r5
   d432c:	4a0d      	ldr	r2, [pc, #52]	; (d4364 <_Z9authWriteii+0xa8>)
   d432e:	9401      	str	r4, [sp, #4]
   d4330:	f8cd 8000 	str.w	r8, [sp]
   d4334:	f002 fe41 	bl	d6fba <_ZN5Print11printf_implEbPKcz>
   d4338:	f003 fb68 	bl	d7a0c <_Z21__fetch_global_EEPROMv>
   d433c:	4621      	mov	r1, r4
   d433e:	4628      	mov	r0, r5
   d4340:	f001 f9ac 	bl	d569c <HAL_EEPROM_Write>
   d4344:	f003 f830 	bl	d73a8 <_Z16_fetch_usbserialv>
   d4348:	9600      	str	r6, [sp, #0]
   d434a:	463b      	mov	r3, r7
   d434c:	4a06      	ldr	r2, [pc, #24]	; (d4368 <_Z9authWriteii+0xac>)
   d434e:	2101      	movs	r1, #1
   d4350:	f002 fe33 	bl	d6fba <_ZN5Print11printf_implEbPKcz>
   d4354:	b003      	add	sp, #12
   d4356:	e8bd 83f0 	ldmia.w	sp!, {r4, r5, r6, r7, r8, r9, pc}
   d435a:	bf00      	nop
   d435c:	80000007 	.word	0x80000007
   d4360:	000d7f10 	.word	0x000d7f10
   d4364:	000d7f42 	.word	0x000d7f42
   d4368:	000d7f76 	.word	0x000d7f76

000d436c <_Z9nameWritei6String>:
   d436c:	e92d 41f0 	stmdb	sp!, {r4, r5, r6, r7, r8, lr}
   d4370:	b086      	sub	sp, #24
   d4372:	688e      	ldr	r6, [r1, #8]
   d4374:	4607      	mov	r7, r0
   d4376:	460c      	mov	r4, r1
   d4378:	f003 f816 	bl	d73a8 <_Z16_fetch_usbserialv>
   d437c:	ad02      	add	r5, sp, #8
   d437e:	4680      	mov	r8, r0
   d4380:	4621      	mov	r1, r4
   d4382:	4628      	mov	r0, r5
   d4384:	f001 fcd7 	bl	d5d36 <_ZN6StringC1ERKS_>
   d4388:	463b      	mov	r3, r7
   d438a:	4a1d      	ldr	r2, [pc, #116]	; (d4400 <_Z9nameWritei6String+0x94>)
   d438c:	9500      	str	r5, [sp, #0]
   d438e:	2101      	movs	r1, #1
   d4390:	4640      	mov	r0, r8
   d4392:	f002 fe12 	bl	d6fba <_ZN5Print11printf_implEbPKcz>
   d4396:	4628      	mov	r0, r5
   d4398:	f001 fc64 	bl	d5c64 <_ZN6StringD1Ev>
   d439c:	2e12      	cmp	r6, #18
   d439e:	dc0c      	bgt.n	d43ba <_Z9nameWritei6String+0x4e>
   d43a0:	f04f 0800 	mov.w	r8, #0
   d43a4:	f1c6 0613 	rsb	r6, r6, #19
   d43a8:	45b0      	cmp	r8, r6
   d43aa:	da0c      	bge.n	d43c6 <_Z9nameWritei6String+0x5a>
   d43ac:	4915      	ldr	r1, [pc, #84]	; (d4404 <_Z9nameWritei6String+0x98>)
   d43ae:	4620      	mov	r0, r4
   d43b0:	f001 fcf4 	bl	d5d9c <_ZN6String6concatEPKc>
   d43b4:	f108 0801 	add.w	r8, r8, #1
   d43b8:	e7f6      	b.n	d43a8 <_Z9nameWritei6String+0x3c>
   d43ba:	2e13      	cmp	r6, #19
   d43bc:	d003      	beq.n	d43c6 <_Z9nameWritei6String+0x5a>
   d43be:	2113      	movs	r1, #19
   d43c0:	4620      	mov	r0, r4
   d43c2:	f001 fd14 	bl	d5dee <_ZN6String6removeEj>
   d43c6:	f002 ffef 	bl	d73a8 <_Z16_fetch_usbserialv>
   d43ca:	4621      	mov	r1, r4
   d43cc:	4606      	mov	r6, r0
   d43ce:	4628      	mov	r0, r5
   d43d0:	f001 fcb1 	bl	d5d36 <_ZN6StringC1ERKS_>
   d43d4:	463b      	mov	r3, r7
   d43d6:	4a0a      	ldr	r2, [pc, #40]	; (d4400 <_Z9nameWritei6String+0x94>)
   d43d8:	9500      	str	r5, [sp, #0]
   d43da:	2101      	movs	r1, #1
   d43dc:	4630      	mov	r0, r6
   d43de:	f002 fdec 	bl	d6fba <_ZN5Print11printf_implEbPKcz>
   d43e2:	4628      	mov	r0, r5
   d43e4:	f001 fc3e 	bl	d5c64 <_ZN6StringD1Ev>
   d43e8:	f003 fb10 	bl	d7a0c <_Z21__fetch_global_EEPROMv>
        return t;
    }

    template <typename T> const T &put( int idx, const T &t )
    {
        HAL_EEPROM_Put(idx, &t, sizeof(T));
   d43ec:	2013      	movs	r0, #19
   d43ee:	4378      	muls	r0, r7
   d43f0:	2210      	movs	r2, #16
   d43f2:	4621      	mov	r1, r4
   d43f4:	3032      	adds	r0, #50	; 0x32
   d43f6:	f001 f961 	bl	d56bc <HAL_EEPROM_Put>
   d43fa:	b006      	add	sp, #24
   d43fc:	e8bd 81f0 	ldmia.w	sp!, {r4, r5, r6, r7, r8, pc}
   d4400:	000d7f9b 	.word	0x000d7f9b
   d4404:	000d872a 	.word	0x000d872a

000d4408 <_Z18enrollScanFeedbackv>:
   d4408:	b51f      	push	{r0, r1, r2, r3, r4, lr}
   d440a:	4c13      	ldr	r4, [pc, #76]	; (d4458 <_Z18enrollScanFeedbackv+0x50>)
   d440c:	e894 0003 	ldmia.w	r4, {r0, r1}
   d4410:	3408      	adds	r4, #8
   d4412:	e88d 0003 	stmia.w	sp, {r0, r1}
   d4416:	e894 0003 	ldmia.w	r4, {r0, r1}
   d441a:	ab02      	add	r3, sp, #8
   d441c:	e883 0003 	stmia.w	r3, {r0, r1}
   d4420:	466a      	mov	r2, sp
   d4422:	2102      	movs	r1, #2
   d4424:	2013      	movs	r0, #19
   d4426:	f7ff fe47 	bl	d40b8 <_Z4playiiPiS_>
   d442a:	2100      	movs	r1, #0
   d442c:	2007      	movs	r0, #7
   d442e:	f003 fac0 	bl	d79b2 <digitalWrite>
   d4432:	2200      	movs	r2, #0
   d4434:	4611      	mov	r1, r2
   d4436:	4610      	mov	r0, r2
   d4438:	f002 fe2e 	bl	d7098 <_ZN8RGBClass5colorEiii>
   d443c:	2064      	movs	r0, #100	; 0x64
   d443e:	f002 fe09 	bl	d7054 <delay>
   d4442:	2101      	movs	r1, #1
   d4444:	2007      	movs	r0, #7
   d4446:	f003 fab4 	bl	d79b2 <digitalWrite>
   d444a:	2164      	movs	r1, #100	; 0x64
   d444c:	2200      	movs	r2, #0
   d444e:	4608      	mov	r0, r1
   d4450:	f002 fe22 	bl	d7098 <_ZN8RGBClass5colorEiii>
   d4454:	b004      	add	sp, #16
   d4456:	bd10      	pop	{r4, pc}
   d4458:	000d7ebc 	.word	0x000d7ebc

000d445c <_Z14changeUserNameh6String>:
   d445c:	b51f      	push	{r0, r1, r2, r3, r4, lr}
   d445e:	4604      	mov	r4, r0
   d4460:	4668      	mov	r0, sp
   d4462:	f001 fc68 	bl	d5d36 <_ZN6StringC1ERKS_>
   d4466:	4669      	mov	r1, sp
   d4468:	4620      	mov	r0, r4
   d446a:	f7ff ff7f 	bl	d436c <_Z9nameWritei6String>
   d446e:	4668      	mov	r0, sp
   d4470:	f001 fbf8 	bl	d5c64 <_ZN6StringD1Ev>
   d4474:	2001      	movs	r0, #1
   d4476:	b004      	add	sp, #16
   d4478:	bd10      	pop	{r4, pc}

000d447a <_Z11LEDsequencev>:
   d447a:	b508      	push	{r3, lr}
   d447c:	2101      	movs	r1, #1
   d447e:	2006      	movs	r0, #6
   d4480:	f003 fa97 	bl	d79b2 <digitalWrite>
   d4484:	2064      	movs	r0, #100	; 0x64
   d4486:	f002 fde5 	bl	d7054 <delay>
   d448a:	2101      	movs	r1, #1
   d448c:	2007      	movs	r0, #7
   d448e:	f003 fa90 	bl	d79b2 <digitalWrite>
   d4492:	2064      	movs	r0, #100	; 0x64
   d4494:	f002 fdde 	bl	d7054 <delay>
   d4498:	2101      	movs	r1, #1
   d449a:	2008      	movs	r0, #8
   d449c:	f003 fa89 	bl	d79b2 <digitalWrite>
   d44a0:	f44f 70fa 	mov.w	r0, #500	; 0x1f4
   d44a4:	f002 fdd6 	bl	d7054 <delay>
   d44a8:	2100      	movs	r1, #0
   d44aa:	2006      	movs	r0, #6
   d44ac:	f003 fa81 	bl	d79b2 <digitalWrite>
   d44b0:	2064      	movs	r0, #100	; 0x64
   d44b2:	f002 fdcf 	bl	d7054 <delay>
   d44b6:	2100      	movs	r1, #0
   d44b8:	2007      	movs	r0, #7
   d44ba:	f003 fa7a 	bl	d79b2 <digitalWrite>
   d44be:	2064      	movs	r0, #100	; 0x64
   d44c0:	f002 fdc8 	bl	d7054 <delay>
   d44c4:	2100      	movs	r1, #0
   d44c6:	2008      	movs	r0, #8
   d44c8:	e8bd 4008 	ldmia.w	sp!, {r3, lr}
   d44cc:	f003 ba71 	b.w	d79b2 <digitalWrite>

000d44d0 <setup>:
   d44d0:	b510      	push	{r4, lr}
   d44d2:	2001      	movs	r0, #1
   d44d4:	b096      	sub	sp, #88	; 0x58
   d44d6:	f002 fdcf 	bl	d7078 <_ZN8RGBClass7controlEb>
   d44da:	22ff      	movs	r2, #255	; 0xff
   d44dc:	4611      	mov	r1, r2
   d44de:	4610      	mov	r0, r2
   d44e0:	f002 fdda 	bl	d7098 <_ZN8RGBClass5colorEiii>
   d44e4:	2101      	movs	r1, #1
   d44e6:	2040      	movs	r0, #64	; 0x40
   d44e8:	f002 fde9 	bl	d70be <_ZN8RGBClass10brightnessEhb>
   d44ec:	f002 ff5c 	bl	d73a8 <_Z16_fetch_usbserialv>
   d44f0:	4940      	ldr	r1, [pc, #256]	; (d45f4 <setup+0x124>)
   d44f2:	f002 fd25 	bl	d6f40 <_ZN5Print5printEPKc>
   d44f6:	f002 ff57 	bl	d73a8 <_Z16_fetch_usbserialv>
   d44fa:	4604      	mov	r4, r0
   d44fc:	f003 fa86 	bl	d7a0c <_Z21__fetch_global_EEPROMv>
    void update( int idx, uint8_t val )  { EERef( idx ).update( val ); }

    //STL and C++11 iteration capability.
    EEPtr begin()                        { return 0x00; }
    EEPtr end()                          { return length(); } //Standards requires this to be the item after the last valid entry. The returned pointer is invalid.
    uint16_t length()                    { return HAL_EEPROM_Length(); }
   d4500:	f001 f8d4 	bl	d56ac <HAL_EEPROM_Length>
            t = print('-');
            val = -n;
        } else {
            val = n;
        }
        return printNumber(val, base) + t;
   d4504:	220a      	movs	r2, #10
   d4506:	b281      	uxth	r1, r0
   d4508:	4620      	mov	r0, r4
   d450a:	f002 fd36 	bl	d6f7a <_ZN5Print11printNumberEmh>
    size_t println(char);
    template <typename T, std::enable_if_t<std::is_integral<T>::value || std::is_convertible<T, unsigned long long>::value ||
        std::is_convertible<T, long long>::value, int> = 0>
    size_t println(T b, int base = DEC) {
        size_t n = print(b, base);
        n += println();
   d450e:	4620      	mov	r0, r4
   d4510:	f002 fd1d 	bl	d6f4e <_ZN5Print7printlnEv>
   d4514:	f001 ff8a 	bl	d642c <_ZN8particle14BleLocalDevice11getInstanceEv>
   d4518:	4a37      	ldr	r2, [pc, #220]	; (d45f8 <setup+0x128>)
   d451a:	4601      	mov	r1, r0
   d451c:	a80d      	add	r0, sp, #52	; 0x34
   d451e:	f002 fbcf 	bl	d6cc0 <_ZN8particle14BleLocalDevice17addCharacteristicERKNS_17BleCharacteristicE>
   d4522:	a80d      	add	r0, sp, #52	; 0x34
   d4524:	f002 f83e 	bl	d65a4 <_ZN8particle17BleCharacteristicD1Ev>
   d4528:	f001 ff80 	bl	d642c <_ZN8particle14BleLocalDevice11getInstanceEv>
   d452c:	4a33      	ldr	r2, [pc, #204]	; (d45fc <setup+0x12c>)
   d452e:	4601      	mov	r1, r0
   d4530:	a80d      	add	r0, sp, #52	; 0x34
   d4532:	f002 fbc5 	bl	d6cc0 <_ZN8particle14BleLocalDevice17addCharacteristicERKNS_17BleCharacteristicE>
   d4536:	a80d      	add	r0, sp, #52	; 0x34
   d4538:	f002 f834 	bl	d65a4 <_ZN8particle17BleCharacteristicD1Ev>
   d453c:	2200      	movs	r2, #0
   d453e:	4930      	ldr	r1, [pc, #192]	; (d4600 <setup+0x130>)
   d4540:	482e      	ldr	r0, [pc, #184]	; (d45fc <setup+0x12c>)
   d4542:	f001 ff1f 	bl	d6384 <_ZN8particle17BleCharacteristic14onDataReceivedEPFvPKhjRKNS_13BlePeerDeviceEPvES6_>
   d4546:	a80d      	add	r0, sp, #52	; 0x34
   d4548:	f001 fe52 	bl	d61f0 <_ZN8particle18BleAdvertisingDataC1Ev>
   d454c:	492d      	ldr	r1, [pc, #180]	; (d4604 <setup+0x134>)
   d454e:	a803      	add	r0, sp, #12
   d4550:	f001 fce6 	bl	d5f20 <_ZN8particle7BleUuidC1ERKS0_>
    size_t appendLocalName(const char* name);
    size_t appendLocalName(const String& name);

    template<typename T>
    size_t appendServiceUUID(T uuid, bool force = false) {
        BleUuid tempUUID(uuid);
   d4554:	a903      	add	r1, sp, #12
   d4556:	a808      	add	r0, sp, #32
   d4558:	f001 fce2 	bl	d5f20 <_ZN8particle7BleUuidC1ERKS0_>
        if (tempUUID.type() == BleUuidType::SHORT) {
   d455c:	a808      	add	r0, sp, #32
   d455e:	f001 fd29 	bl	d5fb4 <_ZNK8particle7BleUuid4typeEv>
   d4562:	4604      	mov	r4, r0
            uint16_t uuid16 = tempUUID.shorted();
   d4564:	a808      	add	r0, sp, #32
    size_t appendLocalName(const String& name);

    template<typename T>
    size_t appendServiceUUID(T uuid, bool force = false) {
        BleUuid tempUUID(uuid);
        if (tempUUID.type() == BleUuidType::SHORT) {
   d4566:	b944      	cbnz	r4, d457a <setup+0xaa>
            uint16_t uuid16 = tempUUID.shorted();
   d4568:	f001 fd42 	bl	d5ff0 <_ZNK8particle7BleUuid7shortedEv>
   d456c:	aa16      	add	r2, sp, #88	; 0x58
            return append(BleAdvertisingDataType::SERVICE_UUID_16BIT_COMPLETE, reinterpret_cast<const uint8_t*>(&uuid16), sizeof(uint16_t), force);
   d456e:	2302      	movs	r3, #2

    template<typename T>
    size_t appendServiceUUID(T uuid, bool force = false) {
        BleUuid tempUUID(uuid);
        if (tempUUID.type() == BleUuidType::SHORT) {
            uint16_t uuid16 = tempUUID.shorted();
   d4570:	f822 0d4e 	strh.w	r0, [r2, #-78]!
            return append(BleAdvertisingDataType::SERVICE_UUID_16BIT_COMPLETE, reinterpret_cast<const uint8_t*>(&uuid16), sizeof(uint16_t), force);
   d4574:	2103      	movs	r1, #3
   d4576:	9400      	str	r4, [sp, #0]
   d4578:	e006      	b.n	d4588 <setup+0xb8>
        }
        else {
            return append(BleAdvertisingDataType::SERVICE_UUID_128BIT_COMPLETE, tempUUID.rawBytes(), BLE_SIG_UUID_128BIT_LEN, force);
   d457a:	f001 fd3e 	bl	d5ffa <_ZNK8particle7BleUuid8rawBytesEv>
   d457e:	2300      	movs	r3, #0
   d4580:	9300      	str	r3, [sp, #0]
   d4582:	4602      	mov	r2, r0
   d4584:	2310      	movs	r3, #16
   d4586:	2107      	movs	r1, #7
   d4588:	a80d      	add	r0, sp, #52	; 0x34
   d458a:	f001 fdea 	bl	d6162 <_ZN8particle18BleAdvertisingData6appendENS_22BleAdvertisingDataTypeEPKhjb>
   d458e:	f001 ff4d 	bl	d642c <_ZN8particle14BleLocalDevice11getInstanceEv>
   d4592:	2200      	movs	r2, #0
   d4594:	a90d      	add	r1, sp, #52	; 0x34
   d4596:	f001 ffb6 	bl	d6506 <_ZNK8particle14BleLocalDevice9advertiseEPNS_18BleAdvertisingDataES2_>
   d459a:	481b      	ldr	r0, [pc, #108]	; (d4608 <setup+0x138>)
   d459c:	f000 fd96 	bl	d50cc <_ZN12FPS_GT521F324OpenEv>
   d45a0:	2101      	movs	r1, #1
   d45a2:	4819      	ldr	r0, [pc, #100]	; (d4608 <setup+0x138>)
   d45a4:	f000 fdc0 	bl	d5128 <_ZN12FPS_GT521F326SetLEDEb>
   d45a8:	2101      	movs	r1, #1
   d45aa:	2013      	movs	r0, #19
   d45ac:	f003 f9f0 	bl	d7990 <pinMode>
   d45b0:	2101      	movs	r1, #1
   d45b2:	200f      	movs	r0, #15
   d45b4:	f003 f9ec 	bl	d7990 <pinMode>
   d45b8:	2100      	movs	r1, #0
   d45ba:	2005      	movs	r0, #5
   d45bc:	f003 f9e8 	bl	d7990 <pinMode>
   d45c0:	2101      	movs	r1, #1
   d45c2:	2006      	movs	r0, #6
   d45c4:	f003 f9e4 	bl	d7990 <pinMode>
   d45c8:	2101      	movs	r1, #1
   d45ca:	2007      	movs	r0, #7
   d45cc:	f003 f9e0 	bl	d7990 <pinMode>
   d45d0:	2101      	movs	r1, #1
   d45d2:	2008      	movs	r0, #8
   d45d4:	f003 f9dc 	bl	d7990 <pinMode>
   d45d8:	f7ff ff4f 	bl	d447a <_Z11LEDsequencev>
   d45dc:	4b0b      	ldr	r3, [pc, #44]	; (d460c <setup+0x13c>)
   d45de:	4a0c      	ldr	r2, [pc, #48]	; (d4610 <setup+0x140>)
   d45e0:	2106      	movs	r1, #6
   d45e2:	2013      	movs	r0, #19
   d45e4:	f7ff fd68 	bl	d40b8 <_Z4playiiPiS_>
   d45e8:	4b0a      	ldr	r3, [pc, #40]	; (d4614 <setup+0x144>)
   d45ea:	2200      	movs	r2, #0
   d45ec:	701a      	strb	r2, [r3, #0]
   d45ee:	b016      	add	sp, #88	; 0x58
   d45f0:	bd10      	pop	{r4, pc}
   d45f2:	bf00      	nop
   d45f4:	000d7fb2 	.word	0x000d7fb2
   d45f8:	2003e3b0 	.word	0x2003e3b0
   d45fc:	2003e3a0 	.word	0x2003e3a0
   d4600:	000d4111 	.word	0x000d4111
   d4604:	2003e388 	.word	0x2003e388
   d4608:	2003e3ac 	.word	0x2003e3ac
   d460c:	2003e29c 	.word	0x2003e29c
   d4610:	2003e2b4 	.word	0x2003e2b4
   d4614:	2003e384 	.word	0x2003e384

000d4618 <_ZN5Print7printlnIiLi0EEEjT_i>:

    size_t println(const char[]);
    size_t println(char);
    template <typename T, std::enable_if_t<std::is_integral<T>::value || std::is_convertible<T, unsigned long long>::value ||
        std::is_convertible<T, long long>::value, int> = 0>
    size_t println(T b, int base = DEC) {
   d4618:	b5f8      	push	{r3, r4, r5, r6, r7, lr}
   d461a:	4606      	mov	r6, r0
   d461c:	460c      	mov	r4, r1

template <typename T, std::enable_if_t<std::is_integral<T>::value || std::is_convertible<T, unsigned long long>::value ||
    std::is_convertible<T, long long>::value, int>>
size_t Print::print(T n, int base)
{
    if (base == 0) {
   d461e:	4617      	mov	r7, r2
   d4620:	b92a      	cbnz	r2, d462e <_ZN5Print7printlnIiLi0EEEjT_i+0x16>
        return write(n);
   d4622:	6803      	ldr	r3, [r0, #0]
   d4624:	b2c9      	uxtb	r1, r1
   d4626:	689b      	ldr	r3, [r3, #8]
   d4628:	4798      	blx	r3
   d462a:	4605      	mov	r5, r0
   d462c:	e010      	b.n	d4650 <_ZN5Print7printlnIiLi0EEEjT_i+0x38>
    } else {
        size_t t = 0;
        using PrintNumberType = typename PrintNumberTypeSelector<T>::type;
        PrintNumberType val;
        if (n < 0 && base == 10) {
   d462e:	2900      	cmp	r1, #0
   d4630:	da07      	bge.n	d4642 <_ZN5Print7printlnIiLi0EEEjT_i+0x2a>
   d4632:	2a0a      	cmp	r2, #10
   d4634:	d105      	bne.n	d4642 <_ZN5Print7printlnIiLi0EEEjT_i+0x2a>
            t = print('-');
   d4636:	212d      	movs	r1, #45	; 0x2d
   d4638:	f002 fc86 	bl	d6f48 <_ZN5Print5printEc>
            val = -n;
   d463c:	4261      	negs	r1, r4
    } else {
        size_t t = 0;
        using PrintNumberType = typename PrintNumberTypeSelector<T>::type;
        PrintNumberType val;
        if (n < 0 && base == 10) {
            t = print('-');
   d463e:	4605      	mov	r5, r0
   d4640:	e001      	b.n	d4646 <_ZN5Print7printlnIiLi0EEEjT_i+0x2e>
            val = -n;
        } else {
            val = n;
   d4642:	4621      	mov	r1, r4
size_t Print::print(T n, int base)
{
    if (base == 0) {
        return write(n);
    } else {
        size_t t = 0;
   d4644:	2500      	movs	r5, #0
            t = print('-');
            val = -n;
        } else {
            val = n;
        }
        return printNumber(val, base) + t;
   d4646:	b2fa      	uxtb	r2, r7
   d4648:	4630      	mov	r0, r6
   d464a:	f002 fc96 	bl	d6f7a <_ZN5Print11printNumberEmh>
   d464e:	4405      	add	r5, r0
    size_t println(char);
    template <typename T, std::enable_if_t<std::is_integral<T>::value || std::is_convertible<T, unsigned long long>::value ||
        std::is_convertible<T, long long>::value, int> = 0>
    size_t println(T b, int base = DEC) {
        size_t n = print(b, base);
        n += println();
   d4650:	4630      	mov	r0, r6
   d4652:	f002 fc7c 	bl	d6f4e <_ZN5Print7printlnEv>
        return n;
    }
   d4656:	4428      	add	r0, r5
   d4658:	bdf8      	pop	{r3, r4, r5, r6, r7, pc}
	...

000d465c <_Z12identifyUserv>:
   d465c:	b510      	push	{r4, lr}
   d465e:	2100      	movs	r1, #0
   d4660:	480f      	ldr	r0, [pc, #60]	; (d46a0 <_Z12identifyUserv+0x44>)
   d4662:	f000 ff69 	bl	d5538 <_ZN12FPS_GT521F3213CaptureFingerEb>
   d4666:	480e      	ldr	r0, [pc, #56]	; (d46a0 <_Z12identifyUserv+0x44>)
   d4668:	f000 ff34 	bl	d54d4 <_ZN12FPS_GT521F3211Identify1_NEv>
   d466c:	28c7      	cmp	r0, #199	; 0xc7
   d466e:	4604      	mov	r4, r0
   d4670:	d80d      	bhi.n	d468e <_Z12identifyUserv+0x32>
   d4672:	f002 fe99 	bl	d73a8 <_Z16_fetch_usbserialv>
   d4676:	490b      	ldr	r1, [pc, #44]	; (d46a4 <_Z12identifyUserv+0x48>)
   d4678:	f002 fc62 	bl	d6f40 <_ZN5Print5printEPKc>
   d467c:	f002 fe94 	bl	d73a8 <_Z16_fetch_usbserialv>
   d4680:	220a      	movs	r2, #10
   d4682:	4621      	mov	r1, r4
   d4684:	f7ff ffc8 	bl	d4618 <_ZN5Print7printlnIiLi0EEEjT_i>
   d4688:	f7ff fdcc 	bl	d4224 <_Z7openBinv>
   d468c:	e006      	b.n	d469c <_Z12identifyUserv+0x40>
   d468e:	f002 fe8b 	bl	d73a8 <_Z16_fetch_usbserialv>
   d4692:	4905      	ldr	r1, [pc, #20]	; (d46a8 <_Z12identifyUserv+0x4c>)
   d4694:	f002 fc67 	bl	d6f66 <_ZN5Print7printlnEPKc>
   d4698:	f7ff fdd6 	bl	d4248 <_Z11badFeedbackv>
   d469c:	4620      	mov	r0, r4
   d469e:	bd10      	pop	{r4, pc}
   d46a0:	2003e3ac 	.word	0x2003e3ac
   d46a4:	000d7fc5 	.word	0x000d7fc5
   d46a8:	000d7fd2 	.word	0x000d7fd2

000d46ac <_ZN5Print8printlnfIIiEEEjPKcDpT_>:
    }

    template <typename... Args>
    inline size_t printlnf(const char* format, Args... args)
    {
        return this->printf_impl(true, format, args...);
   d46ac:	4613      	mov	r3, r2
   d46ae:	460a      	mov	r2, r1
   d46b0:	2101      	movs	r1, #1
   d46b2:	f002 bc82 	b.w	d6fba <_ZN5Print11printf_implEbPKcz>
	...

000d46b8 <_Z9userWriteii>:
   d46b8:	e92d 43f7 	stmdb	sp!, {r0, r1, r2, r4, r5, r6, r7, r8, r9, lr}
   d46bc:	4607      	mov	r7, r0
   d46be:	4688      	mov	r8, r1
   d46c0:	2508      	movs	r5, #8
   d46c2:	fb90 f5f5 	sdiv	r5, r0, r5
   d46c6:	f003 f9a1 	bl	d7a0c <_Z21__fetch_global_EEPROMv>

    EERef( const int index )
        : index( index )                 {}

    //Access/read members.
    uint8_t operator*() const            { return HAL_EEPROM_Read(index); }
   d46ca:	4628      	mov	r0, r5
   d46cc:	f000 ffde 	bl	d568c <HAL_EEPROM_Read>
   d46d0:	4b23      	ldr	r3, [pc, #140]	; (d4760 <_Z9userWriteii+0xa8>)
   d46d2:	403b      	ands	r3, r7
   d46d4:	2b00      	cmp	r3, #0
   d46d6:	bfbe      	ittt	lt
   d46d8:	f103 33ff 	addlt.w	r3, r3, #4294967295
   d46dc:	f063 0307 	ornlt	r3, r3, #7
   d46e0:	3301      	addlt	r3, #1
   d46e2:	f04f 0901 	mov.w	r9, #1
   d46e6:	4606      	mov	r6, r0
   d46e8:	fa09 f403 	lsl.w	r4, r9, r3
   d46ec:	f1b8 0f00 	cmp.w	r8, #0
   d46f0:	d118      	bne.n	d4724 <_Z9userWriteii+0x6c>
   d46f2:	f002 fe59 	bl	d73a8 <_Z16_fetch_usbserialv>
   d46f6:	b2e3      	uxtb	r3, r4
   d46f8:	ea26 0303 	bic.w	r3, r6, r3
   d46fc:	4a19      	ldr	r2, [pc, #100]	; (d4764 <_Z9userWriteii+0xac>)
   d46fe:	9301      	str	r3, [sp, #4]
   d4700:	4649      	mov	r1, r9
   d4702:	462b      	mov	r3, r5
   d4704:	9600      	str	r6, [sp, #0]
   d4706:	f002 fc58 	bl	d6fba <_ZN5Print11printf_implEbPKcz>
   d470a:	f003 f97f 	bl	d7a0c <_Z21__fetch_global_EEPROMv>
    operator const uint8_t() const       { return **this; }

    //Assignment/write members.
    EERef &operator=( const EERef &ref ) { return *this = *ref; }
    EERef &operator=( uint8_t in )       { return HAL_EEPROM_Write(index, in), *this;  }
   d470e:	ea26 0104 	bic.w	r1, r6, r4
   d4712:	b2c9      	uxtb	r1, r1
   d4714:	4628      	mov	r0, r5
   d4716:	f000 ffc1 	bl	d569c <HAL_EEPROM_Write>
   d471a:	f002 fe45 	bl	d73a8 <_Z16_fetch_usbserialv>
   d471e:	463a      	mov	r2, r7
   d4720:	4911      	ldr	r1, [pc, #68]	; (d4768 <_Z9userWriteii+0xb0>)
   d4722:	e017      	b.n	d4754 <_Z9userWriteii+0x9c>
   d4724:	f1b8 0f01 	cmp.w	r8, #1
   d4728:	d116      	bne.n	d4758 <_Z9userWriteii+0xa0>
   d472a:	4334      	orrs	r4, r6
   d472c:	b2e4      	uxtb	r4, r4
   d472e:	f002 fe3b 	bl	d73a8 <_Z16_fetch_usbserialv>
   d4732:	4a0c      	ldr	r2, [pc, #48]	; (d4764 <_Z9userWriteii+0xac>)
   d4734:	9401      	str	r4, [sp, #4]
   d4736:	462b      	mov	r3, r5
   d4738:	4641      	mov	r1, r8
   d473a:	9600      	str	r6, [sp, #0]
   d473c:	f002 fc3d 	bl	d6fba <_ZN5Print11printf_implEbPKcz>
   d4740:	f003 f964 	bl	d7a0c <_Z21__fetch_global_EEPROMv>
   d4744:	4621      	mov	r1, r4
   d4746:	4628      	mov	r0, r5
   d4748:	f000 ffa8 	bl	d569c <HAL_EEPROM_Write>
   d474c:	f002 fe2c 	bl	d73a8 <_Z16_fetch_usbserialv>
   d4750:	4906      	ldr	r1, [pc, #24]	; (d476c <_Z9userWriteii+0xb4>)
   d4752:	463a      	mov	r2, r7
   d4754:	f7ff ffaa 	bl	d46ac <_ZN5Print8printlnfIIiEEEjPKcDpT_>
   d4758:	b003      	add	sp, #12
   d475a:	e8bd 83f0 	ldmia.w	sp!, {r4, r5, r6, r7, r8, r9, pc}
   d475e:	bf00      	nop
   d4760:	80000007 	.word	0x80000007
   d4764:	000d7fe3 	.word	0x000d7fe3
   d4768:	000d8015 	.word	0x000d8015
   d476c:	000d802a 	.word	0x000d802a

000d4770 <_Z10removeUserh>:
   d4770:	b538      	push	{r3, r4, r5, lr}
   d4772:	4601      	mov	r1, r0
   d4774:	4604      	mov	r4, r0
   d4776:	4807      	ldr	r0, [pc, #28]	; (d4794 <_Z10removeUserh+0x24>)
   d4778:	f000 fe7e 	bl	d5478 <_ZN12FPS_GT521F328DeleteIDEi>
   d477c:	2101      	movs	r1, #1
   d477e:	4605      	mov	r5, r0
   d4780:	4620      	mov	r0, r4
   d4782:	f7ff ff99 	bl	d46b8 <_Z9userWriteii>
   d4786:	4620      	mov	r0, r4
   d4788:	2101      	movs	r1, #1
   d478a:	f7ff fd97 	bl	d42bc <_Z9authWriteii>
   d478e:	4628      	mov	r0, r5
   d4790:	bd38      	pop	{r3, r4, r5, pc}
   d4792:	bf00      	nop
   d4794:	2003e3ac 	.word	0x2003e3ac

000d4798 <_Z10enrollUserv>:
   d4798:	e92d 41ff 	stmdb	sp!, {r0, r1, r2, r3, r4, r5, r6, r7, r8, lr}
   d479c:	2101      	movs	r1, #1
   d479e:	2007      	movs	r0, #7
   d47a0:	f003 f907 	bl	d79b2 <digitalWrite>
   d47a4:	2164      	movs	r1, #100	; 0x64
   d47a6:	2200      	movs	r2, #0
   d47a8:	4608      	mov	r0, r1
   d47aa:	f002 fc75 	bl	d7098 <_ZN8RGBClass5colorEiii>

#ifdef __cplusplus
extern "C" {
#endif

inline system_tick_t millis(void) { return HAL_Timer_Get_Milli_Seconds(); }
   d47ae:	f000 ff5d 	bl	d566c <HAL_Timer_Get_Milli_Seconds>
   d47b2:	4d9a      	ldr	r5, [pc, #616]	; (d4a1c <_Z10enrollUserv+0x284>)
   d47b4:	2620      	movs	r6, #32
   d47b6:	6028      	str	r0, [r5, #0]
   d47b8:	4631      	mov	r1, r6
   d47ba:	4899      	ldr	r0, [pc, #612]	; (d4a20 <_Z10enrollUserv+0x288>)
   d47bc:	f000 fcf2 	bl	d51a4 <_ZN12FPS_GT521F3213CheckEnrolledEi>
   d47c0:	b108      	cbz	r0, d47c6 <_Z10enrollUserv+0x2e>
   d47c2:	3601      	adds	r6, #1
   d47c4:	e7f8      	b.n	d47b8 <_Z10enrollUserv+0x20>
   d47c6:	f002 fdef 	bl	d73a8 <_Z16_fetch_usbserialv>
   d47ca:	4632      	mov	r2, r6
   d47cc:	4995      	ldr	r1, [pc, #596]	; (d4a24 <_Z10enrollUserv+0x28c>)
   d47ce:	f7ff ff6d 	bl	d46ac <_ZN5Print8printlnfIIiEEEjPKcDpT_>
   d47d2:	4630      	mov	r0, r6
   d47d4:	f7ff fd58 	bl	d4288 <_Z11idAvailablei>
   d47d8:	4604      	mov	r4, r0
   d47da:	b308      	cbz	r0, d4820 <_Z10enrollUserv+0x88>
   d47dc:	f002 fde4 	bl	d73a8 <_Z16_fetch_usbserialv>
   d47e0:	4632      	mov	r2, r6
   d47e2:	4991      	ldr	r1, [pc, #580]	; (d4a28 <_Z10enrollUserv+0x290>)
   d47e4:	f7ff ff62 	bl	d46ac <_ZN5Print8printlnfIIiEEEjPKcDpT_>
   d47e8:	f002 fdde 	bl	d73a8 <_Z16_fetch_usbserialv>
   d47ec:	498f      	ldr	r1, [pc, #572]	; (d4a2c <_Z10enrollUserv+0x294>)
   d47ee:	f002 fbba 	bl	d6f66 <_ZN5Print7printlnEPKc>
   d47f2:	4631      	mov	r1, r6
   d47f4:	488a      	ldr	r0, [pc, #552]	; (d4a20 <_Z10enrollUserv+0x288>)
   d47f6:	f000 fd03 	bl	d5200 <_ZN12FPS_GT521F3211EnrollStartEi>
   d47fa:	f002 fdd5 	bl	d73a8 <_Z16_fetch_usbserialv>
   d47fe:	498c      	ldr	r1, [pc, #560]	; (d4a30 <_Z10enrollUserv+0x298>)
   d4800:	f002 fbb1 	bl	d6f66 <_ZN5Print7printlnEPKc>
   d4804:	f002 fdd0 	bl	d73a8 <_Z16_fetch_usbserialv>
   d4808:	498a      	ldr	r1, [pc, #552]	; (d4a34 <_Z10enrollUserv+0x29c>)
   d480a:	f002 fb99 	bl	d6f40 <_ZN5Print5printEPKc>
   d480e:	f002 fdcb 	bl	d73a8 <_Z16_fetch_usbserialv>
   d4812:	220a      	movs	r2, #10
   d4814:	4631      	mov	r1, r6
   d4816:	f7ff feff 	bl	d4618 <_ZN5Print7printlnIiLi0EEEjT_i>
   d481a:	f64e 245f 	movw	r4, #59999	; 0xea5f
   d481e:	e00f      	b.n	d4840 <_Z10enrollUserv+0xa8>
   d4820:	f002 fdc2 	bl	d73a8 <_Z16_fetch_usbserialv>
   d4824:	4632      	mov	r2, r6
   d4826:	4984      	ldr	r1, [pc, #528]	; (d4a38 <_Z10enrollUserv+0x2a0>)
   d4828:	f7ff ff40 	bl	d46ac <_ZN5Print8printlnfIIiEEEjPKcDpT_>
   d482c:	e0e8      	b.n	d4a00 <_Z10enrollUserv+0x268>
   d482e:	f000 ff1d 	bl	d566c <HAL_Timer_Get_Milli_Seconds>
   d4832:	682b      	ldr	r3, [r5, #0]
   d4834:	1ac0      	subs	r0, r0, r3
   d4836:	42a0      	cmp	r0, r4
   d4838:	d808      	bhi.n	d484c <_Z10enrollUserv+0xb4>
   d483a:	2064      	movs	r0, #100	; 0x64
   d483c:	f002 fc0a 	bl	d7054 <delay>
   d4840:	4877      	ldr	r0, [pc, #476]	; (d4a20 <_Z10enrollUserv+0x288>)
   d4842:	f000 fded 	bl	d5420 <_ZN12FPS_GT521F3213IsPressFingerEv>
   d4846:	2800      	cmp	r0, #0
   d4848:	d0f1      	beq.n	d482e <_Z10enrollUserv+0x96>
   d484a:	e00a      	b.n	d4862 <_Z10enrollUserv+0xca>
   d484c:	2100      	movs	r1, #0
   d484e:	2007      	movs	r0, #7
   d4850:	f003 f8af 	bl	d79b2 <digitalWrite>
   d4854:	2200      	movs	r2, #0
   d4856:	4611      	mov	r1, r2
   d4858:	4610      	mov	r0, r2
   d485a:	f002 fc1d 	bl	d7098 <_ZN8RGBClass5colorEiii>
   d485e:	2400      	movs	r4, #0
   d4860:	e0d7      	b.n	d4a12 <_Z10enrollUserv+0x27a>
   d4862:	2101      	movs	r1, #1
   d4864:	486e      	ldr	r0, [pc, #440]	; (d4a20 <_Z10enrollUserv+0x288>)
   d4866:	f000 fe67 	bl	d5538 <_ZN12FPS_GT521F3213CaptureFingerEb>
   d486a:	4604      	mov	r4, r0
   d486c:	2800      	cmp	r0, #0
   d486e:	f000 80c0 	beq.w	d49f2 <_Z10enrollUserv+0x25a>
   d4872:	f7ff fdc9 	bl	d4408 <_Z18enrollScanFeedbackv>
   d4876:	f002 fd97 	bl	d73a8 <_Z16_fetch_usbserialv>
   d487a:	4970      	ldr	r1, [pc, #448]	; (d4a3c <_Z10enrollUserv+0x2a4>)
   d487c:	f002 fb73 	bl	d6f66 <_ZN5Print7printlnEPKc>
   d4880:	4867      	ldr	r0, [pc, #412]	; (d4a20 <_Z10enrollUserv+0x288>)
   d4882:	f000 fd01 	bl	d5288 <_ZN12FPS_GT521F327Enroll1Ev>
   d4886:	4866      	ldr	r0, [pc, #408]	; (d4a20 <_Z10enrollUserv+0x288>)
   d4888:	f000 fdca 	bl	d5420 <_ZN12FPS_GT521F3213IsPressFingerEv>
   d488c:	4604      	mov	r4, r0
   d488e:	b118      	cbz	r0, d4898 <_Z10enrollUserv+0x100>
   d4890:	2064      	movs	r0, #100	; 0x64
   d4892:	f002 fbdf 	bl	d7054 <delay>
   d4896:	e7f6      	b.n	d4886 <_Z10enrollUserv+0xee>
   d4898:	f002 fd86 	bl	d73a8 <_Z16_fetch_usbserialv>
   d489c:	4968      	ldr	r1, [pc, #416]	; (d4a40 <_Z10enrollUserv+0x2a8>)
   d489e:	f002 fb62 	bl	d6f66 <_ZN5Print7printlnEPKc>
   d48a2:	f64e 275f 	movw	r7, #59999	; 0xea5f
   d48a6:	485e      	ldr	r0, [pc, #376]	; (d4a20 <_Z10enrollUserv+0x288>)
   d48a8:	f000 fdba 	bl	d5420 <_ZN12FPS_GT521F3213IsPressFingerEv>
   d48ac:	b948      	cbnz	r0, d48c2 <_Z10enrollUserv+0x12a>
   d48ae:	f000 fedd 	bl	d566c <HAL_Timer_Get_Milli_Seconds>
   d48b2:	682b      	ldr	r3, [r5, #0]
   d48b4:	1ac0      	subs	r0, r0, r3
   d48b6:	42b8      	cmp	r0, r7
   d48b8:	d8c8      	bhi.n	d484c <_Z10enrollUserv+0xb4>
   d48ba:	2064      	movs	r0, #100	; 0x64
   d48bc:	f002 fbca 	bl	d7054 <delay>
   d48c0:	e7f1      	b.n	d48a6 <_Z10enrollUserv+0x10e>
   d48c2:	2101      	movs	r1, #1
   d48c4:	4856      	ldr	r0, [pc, #344]	; (d4a20 <_Z10enrollUserv+0x288>)
   d48c6:	f000 fe37 	bl	d5538 <_ZN12FPS_GT521F3213CaptureFingerEb>
   d48ca:	4607      	mov	r7, r0
   d48cc:	2800      	cmp	r0, #0
   d48ce:	f000 8081 	beq.w	d49d4 <_Z10enrollUserv+0x23c>
   d48d2:	f7ff fd99 	bl	d4408 <_Z18enrollScanFeedbackv>
   d48d6:	f002 fd67 	bl	d73a8 <_Z16_fetch_usbserialv>
   d48da:	4958      	ldr	r1, [pc, #352]	; (d4a3c <_Z10enrollUserv+0x2a4>)
   d48dc:	f002 fb43 	bl	d6f66 <_ZN5Print7printlnEPKc>
   d48e0:	484f      	ldr	r0, [pc, #316]	; (d4a20 <_Z10enrollUserv+0x288>)
   d48e2:	f000 fd15 	bl	d5310 <_ZN12FPS_GT521F327Enroll2Ev>
   d48e6:	484e      	ldr	r0, [pc, #312]	; (d4a20 <_Z10enrollUserv+0x288>)
   d48e8:	f000 fd9a 	bl	d5420 <_ZN12FPS_GT521F3213IsPressFingerEv>
   d48ec:	4604      	mov	r4, r0
   d48ee:	b118      	cbz	r0, d48f8 <_Z10enrollUserv+0x160>
   d48f0:	2064      	movs	r0, #100	; 0x64
   d48f2:	f002 fbaf 	bl	d7054 <delay>
   d48f6:	e7f6      	b.n	d48e6 <_Z10enrollUserv+0x14e>
   d48f8:	f002 fd56 	bl	d73a8 <_Z16_fetch_usbserialv>
   d48fc:	4951      	ldr	r1, [pc, #324]	; (d4a44 <_Z10enrollUserv+0x2ac>)
   d48fe:	f002 fb32 	bl	d6f66 <_ZN5Print7printlnEPKc>
   d4902:	f64e 285f 	movw	r8, #59999	; 0xea5f
   d4906:	4846      	ldr	r0, [pc, #280]	; (d4a20 <_Z10enrollUserv+0x288>)
   d4908:	f000 fd8a 	bl	d5420 <_ZN12FPS_GT521F3213IsPressFingerEv>
   d490c:	4607      	mov	r7, r0
   d490e:	b948      	cbnz	r0, d4924 <_Z10enrollUserv+0x18c>
   d4910:	f000 feac 	bl	d566c <HAL_Timer_Get_Milli_Seconds>
   d4914:	682b      	ldr	r3, [r5, #0]
   d4916:	1ac0      	subs	r0, r0, r3
   d4918:	4540      	cmp	r0, r8
   d491a:	d897      	bhi.n	d484c <_Z10enrollUserv+0xb4>
   d491c:	2064      	movs	r0, #100	; 0x64
   d491e:	f002 fb99 	bl	d7054 <delay>
   d4922:	e7f0      	b.n	d4906 <_Z10enrollUserv+0x16e>
   d4924:	2101      	movs	r1, #1
   d4926:	483e      	ldr	r0, [pc, #248]	; (d4a20 <_Z10enrollUserv+0x288>)
   d4928:	f000 fe06 	bl	d5538 <_ZN12FPS_GT521F3213CaptureFingerEb>
   d492c:	4605      	mov	r5, r0
   d492e:	2800      	cmp	r0, #0
   d4930:	d043      	beq.n	d49ba <_Z10enrollUserv+0x222>
   d4932:	f7ff fd69 	bl	d4408 <_Z18enrollScanFeedbackv>
   d4936:	f002 fd37 	bl	d73a8 <_Z16_fetch_usbserialv>
   d493a:	4940      	ldr	r1, [pc, #256]	; (d4a3c <_Z10enrollUserv+0x2a4>)
   d493c:	f002 fb13 	bl	d6f66 <_ZN5Print7printlnEPKc>
   d4940:	4837      	ldr	r0, [pc, #220]	; (d4a20 <_Z10enrollUserv+0x288>)
   d4942:	f000 fd29 	bl	d5398 <_ZN12FPS_GT521F327Enroll3Ev>
   d4946:	4605      	mov	r5, r0
   d4948:	bb20      	cbnz	r0, d4994 <_Z10enrollUserv+0x1fc>
   d494a:	f7ff fc4b 	bl	d41e4 <_Z12goodFeedbackv>
   d494e:	f002 fd2b 	bl	d73a8 <_Z16_fetch_usbserialv>
   d4952:	493d      	ldr	r1, [pc, #244]	; (d4a48 <_Z10enrollUserv+0x2b0>)
   d4954:	f002 fb07 	bl	d6f66 <_ZN5Print7printlnEPKc>
   d4958:	4629      	mov	r1, r5
   d495a:	4630      	mov	r0, r6
   d495c:	f7ff feac 	bl	d46b8 <_Z9userWriteii>
   d4960:	2101      	movs	r1, #1
   d4962:	4630      	mov	r0, r6
   d4964:	f7ff fcaa 	bl	d42bc <_Z9authWriteii>
   d4968:	4938      	ldr	r1, [pc, #224]	; (d4a4c <_Z10enrollUserv+0x2b4>)
   d496a:	4668      	mov	r0, sp
   d496c:	f001 f9c1 	bl	d5cf2 <_ZN6StringC1EPK19__FlashStringHelper>
   d4970:	4669      	mov	r1, sp
   d4972:	4630      	mov	r0, r6
   d4974:	f7ff fcfa 	bl	d436c <_Z9nameWritei6String>
   d4978:	4668      	mov	r0, sp
   d497a:	f001 f973 	bl	d5c64 <_ZN6StringD1Ev>
   d497e:	4629      	mov	r1, r5
   d4980:	2007      	movs	r0, #7
   d4982:	f003 f816 	bl	d79b2 <digitalWrite>
   d4986:	462a      	mov	r2, r5
   d4988:	4629      	mov	r1, r5
   d498a:	4628      	mov	r0, r5
   d498c:	f002 fb84 	bl	d7098 <_ZN8RGBClass5colorEiii>
   d4990:	463c      	mov	r4, r7
   d4992:	e03e      	b.n	d4a12 <_Z10enrollUserv+0x27a>
   d4994:	f7ff fc58 	bl	d4248 <_Z11badFeedbackv>
   d4998:	f002 fd06 	bl	d73a8 <_Z16_fetch_usbserialv>
   d499c:	492c      	ldr	r1, [pc, #176]	; (d4a50 <_Z10enrollUserv+0x2b8>)
   d499e:	f002 facf 	bl	d6f40 <_ZN5Print5printEPKc>
   d49a2:	f002 fd01 	bl	d73a8 <_Z16_fetch_usbserialv>
   d49a6:	220a      	movs	r2, #10
   d49a8:	4629      	mov	r1, r5
   d49aa:	f7ff fe35 	bl	d4618 <_ZN5Print7printlnIiLi0EEEjT_i>
   d49ae:	2100      	movs	r1, #0
   d49b0:	2007      	movs	r0, #7
   d49b2:	f002 fffe 	bl	d79b2 <digitalWrite>
   d49b6:	2200      	movs	r2, #0
   d49b8:	e018      	b.n	d49ec <_Z10enrollUserv+0x254>
   d49ba:	f7ff fc45 	bl	d4248 <_Z11badFeedbackv>
   d49be:	f002 fcf3 	bl	d73a8 <_Z16_fetch_usbserialv>
   d49c2:	4924      	ldr	r1, [pc, #144]	; (d4a54 <_Z10enrollUserv+0x2bc>)
   d49c4:	f002 facf 	bl	d6f66 <_ZN5Print7printlnEPKc>
   d49c8:	4629      	mov	r1, r5
   d49ca:	2007      	movs	r0, #7
   d49cc:	f002 fff1 	bl	d79b2 <digitalWrite>
   d49d0:	462a      	mov	r2, r5
   d49d2:	e00b      	b.n	d49ec <_Z10enrollUserv+0x254>
   d49d4:	f7ff fc38 	bl	d4248 <_Z11badFeedbackv>
   d49d8:	f002 fce6 	bl	d73a8 <_Z16_fetch_usbserialv>
   d49dc:	491e      	ldr	r1, [pc, #120]	; (d4a58 <_Z10enrollUserv+0x2c0>)
   d49de:	f002 fac2 	bl	d6f66 <_ZN5Print7printlnEPKc>
   d49e2:	4639      	mov	r1, r7
   d49e4:	2007      	movs	r0, #7
   d49e6:	f002 ffe4 	bl	d79b2 <digitalWrite>
   d49ea:	463a      	mov	r2, r7
   d49ec:	4611      	mov	r1, r2
   d49ee:	4610      	mov	r0, r2
   d49f0:	e00d      	b.n	d4a0e <_Z10enrollUserv+0x276>
   d49f2:	f7ff fc29 	bl	d4248 <_Z11badFeedbackv>
   d49f6:	f002 fcd7 	bl	d73a8 <_Z16_fetch_usbserialv>
   d49fa:	4918      	ldr	r1, [pc, #96]	; (d4a5c <_Z10enrollUserv+0x2c4>)
   d49fc:	f002 fab3 	bl	d6f66 <_ZN5Print7printlnEPKc>
   d4a00:	4621      	mov	r1, r4
   d4a02:	2007      	movs	r0, #7
   d4a04:	f002 ffd5 	bl	d79b2 <digitalWrite>
   d4a08:	4622      	mov	r2, r4
   d4a0a:	4621      	mov	r1, r4
   d4a0c:	4620      	mov	r0, r4
   d4a0e:	f002 fb43 	bl	d7098 <_ZN8RGBClass5colorEiii>
   d4a12:	4620      	mov	r0, r4
   d4a14:	b004      	add	sp, #16
   d4a16:	e8bd 81f0 	ldmia.w	sp!, {r4, r5, r6, r7, r8, pc}
   d4a1a:	bf00      	nop
   d4a1c:	2003e3a8 	.word	0x2003e3a8
   d4a20:	2003e3ac 	.word	0x2003e3ac
   d4a24:	000d8181 	.word	0x000d8181
   d4a28:	000d8044 	.word	0x000d8044
   d4a2c:	000d8056 	.word	0x000d8056
   d4a30:	000d8063 	.word	0x000d8063
   d4a34:	000d8072 	.word	0x000d8072
   d4a38:	000d808b 	.word	0x000d808b
   d4a3c:	000d80a1 	.word	0x000d80a1
   d4a40:	000d80af 	.word	0x000d80af
   d4a44:	000d80c7 	.word	0x000d80c7
   d4a48:	000d80e3 	.word	0x000d80e3
   d4a4c:	000d80f8 	.word	0x000d80f8
   d4a50:	000d8101 	.word	0x000d8101
   d4a54:	000d8123 	.word	0x000d8123
   d4a58:	000d8142 	.word	0x000d8142
   d4a5c:	000d8162 	.word	0x000d8162

000d4a60 <_Z7addUserv>:
   d4a60:	f7ff be9a 	b.w	d4798 <_Z10enrollUserv>

000d4a64 <loop>:
   d4a64:	b530      	push	{r4, r5, lr}
   d4a66:	2100      	movs	r1, #0
   d4a68:	b087      	sub	sp, #28
   d4a6a:	4608      	mov	r0, r1
   d4a6c:	22ff      	movs	r2, #255	; 0xff
   d4a6e:	f002 fb13 	bl	d7098 <_ZN8RGBClass5colorEiii>
   d4a72:	484e      	ldr	r0, [pc, #312]	; (d4bac <loop+0x148>)
   d4a74:	f000 fcd4 	bl	d5420 <_ZN12FPS_GT521F3213IsPressFingerEv>
   d4a78:	b130      	cbz	r0, d4a88 <loop+0x24>
   d4a7a:	22ff      	movs	r2, #255	; 0xff
   d4a7c:	4611      	mov	r1, r2
   d4a7e:	4610      	mov	r0, r2
   d4a80:	f002 fb0a 	bl	d7098 <_ZN8RGBClass5colorEiii>
   d4a84:	f7ff fdea 	bl	d465c <_Z12identifyUserv>
   d4a88:	2005      	movs	r0, #5
   d4a8a:	f002 ffab 	bl	d79e4 <digitalRead>
   d4a8e:	2801      	cmp	r0, #1
   d4a90:	4604      	mov	r4, r0
   d4a92:	d147      	bne.n	d4b24 <loop+0xc0>
   d4a94:	4d46      	ldr	r5, [pc, #280]	; (d4bb0 <loop+0x14c>)
   d4a96:	782b      	ldrb	r3, [r5, #0]
   d4a98:	2b00      	cmp	r3, #0
   d4a9a:	d143      	bne.n	d4b24 <loop+0xc0>
   d4a9c:	f44f 7096 	mov.w	r0, #300	; 0x12c
   d4aa0:	f002 fad8 	bl	d7054 <delay>
   d4aa4:	2005      	movs	r0, #5
   d4aa6:	f002 ff9d 	bl	d79e4 <digitalRead>
   d4aaa:	b910      	cbnz	r0, d4ab2 <loop+0x4e>
   d4aac:	f7ff fe74 	bl	d4798 <_Z10enrollUserv>
   d4ab0:	e007      	b.n	d4ac2 <loop+0x5e>
   d4ab2:	f7ff fbb7 	bl	d4224 <_Z7openBinv>
   d4ab6:	702c      	strb	r4, [r5, #0]
   d4ab8:	e003      	b.n	d4ac2 <loop+0x5e>
   d4aba:	f7ff ffd1 	bl	d4a60 <_Z7addUserv>
   d4abe:	2300      	movs	r3, #0
   d4ac0:	702b      	strb	r3, [r5, #0]
   d4ac2:	4c3c      	ldr	r4, [pc, #240]	; (d4bb4 <loop+0x150>)
   d4ac4:	f000 fdd2 	bl	d566c <HAL_Timer_Get_Milli_Seconds>
   d4ac8:	6823      	ldr	r3, [r4, #0]
   d4aca:	1ac0      	subs	r0, r0, r3
   d4acc:	f5b0 7f7a 	cmp.w	r0, #1000	; 0x3e8
   d4ad0:	d323      	bcc.n	d4b1a <loop+0xb6>
   d4ad2:	f000 fdcb 	bl	d566c <HAL_Timer_Get_Milli_Seconds>
   d4ad6:	6020      	str	r0, [r4, #0]
   d4ad8:	f001 fca8 	bl	d642c <_ZN8particle14BleLocalDevice11getInstanceEv>
   d4adc:	f001 fd30 	bl	d6540 <_ZNK8particle14BleLocalDevice9connectedEv>
   d4ae0:	4c35      	ldr	r4, [pc, #212]	; (d4bb8 <loop+0x154>)
   d4ae2:	4605      	mov	r5, r0
   d4ae4:	7823      	ldrb	r3, [r4, #0]
   d4ae6:	b188      	cbz	r0, d4b0c <loop+0xa8>
   d4ae8:	b933      	cbnz	r3, d4af8 <loop+0x94>
   d4aea:	f002 fc5d 	bl	d73a8 <_Z16_fetch_usbserialv>
   d4aee:	4933      	ldr	r1, [pc, #204]	; (d4bbc <loop+0x158>)
   d4af0:	f002 fa39 	bl	d6f66 <_ZN5Print7printlnEPKc>
   d4af4:	2301      	movs	r3, #1
   d4af6:	7023      	strb	r3, [r4, #0]
   d4af8:	4931      	ldr	r1, [pc, #196]	; (d4bc0 <loop+0x15c>)
    ssize_t setValue(const char* str, BleTxRxType type = BleTxRxType::AUTO);

    template<typename T>
    typename std::enable_if_t<std::is_standard_layout<T>::value, ssize_t>
    setValue(const T& val, BleTxRxType type = BleTxRxType::AUTO) {
        return setValue(reinterpret_cast<const uint8_t*>(&val), sizeof(T), type);
   d4afa:	4832      	ldr	r0, [pc, #200]	; (d4bc4 <loop+0x160>)
   d4afc:	780b      	ldrb	r3, [r1, #0]
   d4afe:	3301      	adds	r3, #1
   d4b00:	700b      	strb	r3, [r1, #0]
   d4b02:	2201      	movs	r2, #1
   d4b04:	2300      	movs	r3, #0
   d4b06:	f001 fbdb 	bl	d62c0 <_ZN8particle17BleCharacteristic8setValueEPKhjNS_11BleTxRxTypeE>
   d4b0a:	e006      	b.n	d4b1a <loop+0xb6>
   d4b0c:	b12b      	cbz	r3, d4b1a <loop+0xb6>
   d4b0e:	f002 fc4b 	bl	d73a8 <_Z16_fetch_usbserialv>
   d4b12:	492d      	ldr	r1, [pc, #180]	; (d4bc8 <loop+0x164>)
   d4b14:	f002 fa27 	bl	d6f66 <_ZN5Print7printlnEPKc>
   d4b18:	7025      	strb	r5, [r4, #0]
   d4b1a:	2064      	movs	r0, #100	; 0x64
   d4b1c:	f002 fa9a 	bl	d7054 <delay>
   d4b20:	b007      	add	sp, #28
   d4b22:	bd30      	pop	{r4, r5, pc}
   d4b24:	2005      	movs	r0, #5
   d4b26:	f002 ff5d 	bl	d79e4 <digitalRead>
   d4b2a:	b920      	cbnz	r0, d4b36 <loop+0xd2>
   d4b2c:	4b20      	ldr	r3, [pc, #128]	; (d4bb0 <loop+0x14c>)
   d4b2e:	781a      	ldrb	r2, [r3, #0]
   d4b30:	b10a      	cbz	r2, d4b36 <loop+0xd2>
   d4b32:	7018      	strb	r0, [r3, #0]
   d4b34:	e7c5      	b.n	d4ac2 <loop+0x5e>
   d4b36:	4d25      	ldr	r5, [pc, #148]	; (d4bcc <loop+0x168>)
   d4b38:	782b      	ldrb	r3, [r5, #0]
   d4b3a:	2b00      	cmp	r3, #0
   d4b3c:	d0c1      	beq.n	d4ac2 <loop+0x5e>
   d4b3e:	4c24      	ldr	r4, [pc, #144]	; (d4bd0 <loop+0x16c>)
   d4b40:	f002 fc32 	bl	d73a8 <_Z16_fetch_usbserialv>
   d4b44:	7822      	ldrb	r2, [r4, #0]
   d4b46:	782b      	ldrb	r3, [r5, #0]
   d4b48:	9200      	str	r2, [sp, #0]
   d4b4a:	2101      	movs	r1, #1
   d4b4c:	4a21      	ldr	r2, [pc, #132]	; (d4bd4 <loop+0x170>)
   d4b4e:	f002 fa34 	bl	d6fba <_ZN5Print11printf_implEbPKcz>
   d4b52:	782a      	ldrb	r2, [r5, #0]
   d4b54:	3a41      	subs	r2, #65	; 0x41
   d4b56:	4623      	mov	r3, r4
   d4b58:	2a04      	cmp	r2, #4
   d4b5a:	d8b0      	bhi.n	d4abe <loop+0x5a>
   d4b5c:	a101      	add	r1, pc, #4	; (adr r1, d4b64 <loop+0x100>)
   d4b5e:	f851 f022 	ldr.w	pc, [r1, r2, lsl #2]
   d4b62:	bf00      	nop
   d4b64:	000d4abb 	.word	0x000d4abb
   d4b68:	000d4b79 	.word	0x000d4b79
   d4b6c:	000d4b81 	.word	0x000d4b81
   d4b70:	000d4b85 	.word	0x000d4b85
   d4b74:	000d4b8f 	.word	0x000d4b8f
   d4b78:	7820      	ldrb	r0, [r4, #0]
   d4b7a:	f7ff fdf9 	bl	d4770 <_Z10removeUserh>
   d4b7e:	e79e      	b.n	d4abe <loop+0x5a>
   d4b80:	2100      	movs	r1, #0
   d4b82:	e000      	b.n	d4b86 <loop+0x122>
   d4b84:	2101      	movs	r1, #1
   d4b86:	7818      	ldrb	r0, [r3, #0]
   d4b88:	f7ff fb98 	bl	d42bc <_Z9authWriteii>
   d4b8c:	e797      	b.n	d4abe <loop+0x5a>
   d4b8e:	4b12      	ldr	r3, [pc, #72]	; (d4bd8 <loop+0x174>)
   d4b90:	7824      	ldrb	r4, [r4, #0]
   d4b92:	6819      	ldr	r1, [r3, #0]
   d4b94:	a802      	add	r0, sp, #8
   d4b96:	f001 f8ac 	bl	d5cf2 <_ZN6StringC1EPK19__FlashStringHelper>
   d4b9a:	a902      	add	r1, sp, #8
   d4b9c:	4620      	mov	r0, r4
   d4b9e:	f7ff fc5d 	bl	d445c <_Z14changeUserNameh6String>
   d4ba2:	a802      	add	r0, sp, #8
   d4ba4:	f001 f85e 	bl	d5c64 <_ZN6StringD1Ev>
   d4ba8:	e789      	b.n	d4abe <loop+0x5a>
   d4baa:	bf00      	nop
   d4bac:	2003e3ac 	.word	0x2003e3ac
   d4bb0:	2003e370 	.word	0x2003e370
   d4bb4:	2003e374 	.word	0x2003e374
   d4bb8:	2003e3b8 	.word	0x2003e3b8
   d4bbc:	000d81ba 	.word	0x000d81ba
   d4bc0:	2003e2cc 	.word	0x2003e2cc
   d4bc4:	2003e3b0 	.word	0x2003e3b0
   d4bc8:	000d81cf 	.word	0x000d81cf
   d4bcc:	2003e384 	.word	0x2003e384
   d4bd0:	2003e371 	.word	0x2003e371
   d4bd4:	000d81a2 	.word	0x000d81a2
   d4bd8:	2003e39c 	.word	0x2003e39c

000d4bdc <_GLOBAL__sub_I_SystemMode>:
   d4bdc:	e92d 47f0 	stmdb	sp!, {r4, r5, r6, r7, r8, r9, sl, lr}

class SystemSleepResult {
public:
    SystemSleepResult()
            : wakeupSource_(nullptr),
              error_(SYSTEM_ERROR_NONE) {
   d4be0:	4d3a      	ldr	r5, [pc, #232]	; (d4ccc <_GLOBAL__sub_I_SystemMode+0xf0>)
   d4be2:	f8df 8118 	ldr.w	r8, [pc, #280]	; d4cfc <_GLOBAL__sub_I_SystemMode+0x120>
   d4be6:	f8df a118 	ldr.w	sl, [pc, #280]	; d4d00 <_GLOBAL__sub_I_SystemMode+0x124>

    public:
      typedef _Tp   element_type;

      constexpr __shared_ptr() noexcept
      : _M_ptr(0), _M_refcount()
   d4bea:	4e39      	ldr	r6, [pc, #228]	; (d4cd0 <_GLOBAL__sub_I_SystemMode+0xf4>)
   d4bec:	b09a      	sub	sp, #104	; 0x68
   d4bee:	f000 fced 	bl	d55cc <HAL_Pin_Map>
   d4bf2:	2400      	movs	r4, #0
    WAKEUP_REASON_PIN_OR_RTC = 3,
    WAKEUP_REASON_UNKNOWN = 4
};

struct SleepResult {
    SleepResult() {}
   d4bf4:	f64f 73ff 	movw	r3, #65535	; 0xffff
   d4bf8:	816b      	strh	r3, [r5, #10]

class SystemSleepResult {
public:
    SystemSleepResult()
            : wakeupSource_(nullptr),
              error_(SYSTEM_ERROR_NONE) {
   d4bfa:	602c      	str	r4, [r5, #0]
   d4bfc:	80ac      	strh	r4, [r5, #4]
    WAKEUP_REASON_PIN_OR_RTC = 3,
    WAKEUP_REASON_UNKNOWN = 4
};

struct SleepResult {
    SleepResult() {}
   d4bfe:	71ac      	strb	r4, [r5, #6]
   d4c00:	812c      	strh	r4, [r5, #8]

class SystemClass {
public:

    SystemClass(System_Mode_TypeDef mode = DEFAULT) {
        set_system_mode(mode);
   d4c02:	2003      	movs	r0, #3
   d4c04:	f000 ff24 	bl	d5a50 <set_system_mode>
   d4c08:	4628      	mov	r0, r5
   d4c0a:	4d32      	ldr	r5, [pc, #200]	; (d4cd4 <_GLOBAL__sub_I_SystemMode+0xf8>)
   d4c0c:	4932      	ldr	r1, [pc, #200]	; (d4cd8 <_GLOBAL__sub_I_SystemMode+0xfc>)
   d4c0e:	4642      	mov	r2, r8
   d4c10:	f002 ff50 	bl	d7ab4 <__aeabi_atexit>
   d4c14:	4628      	mov	r0, r5
   d4c16:	f000 f99f 	bl	d4f58 <_ZN12FPS_GT521F32C1Ev>
   d4c1a:	4642      	mov	r2, r8
   d4c1c:	492f      	ldr	r1, [pc, #188]	; (d4cdc <_GLOBAL__sub_I_SystemMode+0x100>)
   d4c1e:	4628      	mov	r0, r5
   d4c20:	f002 ff48 	bl	d7ab4 <__aeabi_atexit>
   d4c24:	492e      	ldr	r1, [pc, #184]	; (d4ce0 <_GLOBAL__sub_I_SystemMode+0x104>)
   d4c26:	4650      	mov	r0, sl
   d4c28:	f001 fa78 	bl	d611c <_ZN8particle7BleUuidC1EPKc>
   d4c2c:	4651      	mov	r1, sl
   d4c2e:	a80b      	add	r0, sp, #44	; 0x2c
   d4c30:	f001 f976 	bl	d5f20 <_ZN8particle7BleUuidC1ERKS0_>
   d4c34:	4b2b      	ldr	r3, [pc, #172]	; (d4ce4 <_GLOBAL__sub_I_SystemMode+0x108>)
   d4c36:	6034      	str	r4, [r6, #0]
   d4c38:	f8d3 9000 	ldr.w	r9, [r3]

  template<_Lock_policy _Lp>
    class __shared_count
    {
    public:
      constexpr __shared_count() noexcept : _M_pi(0)
   d4c3c:	6074      	str	r4, [r6, #4]
    }

    template<typename T1, typename T2>
    BleCharacteristic(const char* desc, EnumFlags<BleCharacteristicProperty> properties, T1 charUuid, T2 svcUuid, BleOnDataReceivedCallback callback = nullptr, void* context = nullptr) {
        BleUuid cUuid(charUuid);
        BleUuid sUuid(svcUuid);
   d4c3e:	af15      	add	r7, sp, #84	; 0x54
            : BleCharacteristic(desc.c_str(), properties, callback, context) {
    }

    template<typename T1, typename T2>
    BleCharacteristic(const char* desc, EnumFlags<BleCharacteristicProperty> properties, T1 charUuid, T2 svcUuid, BleOnDataReceivedCallback callback = nullptr, void* context = nullptr) {
        BleUuid cUuid(charUuid);
   d4c40:	4649      	mov	r1, r9
   d4c42:	a810      	add	r0, sp, #64	; 0x40
   d4c44:	f001 fa6a 	bl	d611c <_ZN8particle7BleUuidC1EPKc>
    value_ = static_cast<ValueType>(value);
}

template<typename T>
inline particle::EnumFlags<T, typename std::enable_if_t<std::is_enum<T>::value>>::EnumFlags(const EnumFlags<T>& flags) {
    value_ = flags.value_;
   d4c48:	ad1a      	add	r5, sp, #104	; 0x68
        BleUuid sUuid(svcUuid);
   d4c4a:	a90b      	add	r1, sp, #44	; 0x2c
   d4c4c:	4638      	mov	r0, r7
   d4c4e:	f001 f967 	bl	d5f20 <_ZN8particle7BleUuidC1ERKS0_>
   d4c52:	2304      	movs	r3, #4
   d4c54:	f805 3d50 	strb.w	r3, [r5, #-80]!
        construct(desc, properties, cUuid, sUuid, callback, context);
   d4c58:	f8cd 9008 	str.w	r9, [sp, #8]
   d4c5c:	4b22      	ldr	r3, [pc, #136]	; (d4ce8 <_GLOBAL__sub_I_SystemMode+0x10c>)
   d4c5e:	f8df 90a4 	ldr.w	r9, [pc, #164]	; d4d04 <_GLOBAL__sub_I_SystemMode+0x128>
   d4c62:	9301      	str	r3, [sp, #4]
   d4c64:	462a      	mov	r2, r5
   d4c66:	ab10      	add	r3, sp, #64	; 0x40
   d4c68:	4630      	mov	r0, r6
   d4c6a:	9700      	str	r7, [sp, #0]
   d4c6c:	491f      	ldr	r1, [pc, #124]	; (d4cec <_GLOBAL__sub_I_SystemMode+0x110>)
   d4c6e:	f001 ff73 	bl	d6b58 <_ZN8particle17BleCharacteristic9constructEPKcNS_9EnumFlagsINS_25BleCharacteristicPropertyEvEERNS_7BleUuidES7_PFvPKhjRKNS_13BlePeerDeviceEPvESD_>
   d4c72:	4642      	mov	r2, r8
   d4c74:	4649      	mov	r1, r9
   d4c76:	4630      	mov	r0, r6
   d4c78:	f002 ff1c 	bl	d7ab4 <__aeabi_atexit>

    public:
      typedef _Tp   element_type;

      constexpr __shared_ptr() noexcept
      : _M_ptr(0), _M_refcount()
   d4c7c:	4e1c      	ldr	r6, [pc, #112]	; (d4cf0 <_GLOBAL__sub_I_SystemMode+0x114>)
   d4c7e:	491d      	ldr	r1, [pc, #116]	; (d4cf4 <_GLOBAL__sub_I_SystemMode+0x118>)
   d4c80:	4628      	mov	r0, r5
   d4c82:	f001 fa4b 	bl	d611c <_ZN8particle7BleUuidC1EPKc>
   d4c86:	4651      	mov	r1, sl
   d4c88:	a80b      	add	r0, sp, #44	; 0x2c
   d4c8a:	f001 f949 	bl	d5f20 <_ZN8particle7BleUuidC1ERKS0_>
            : BleCharacteristic(desc.c_str(), properties, callback, context) {
    }

    template<typename T1, typename T2>
    BleCharacteristic(const char* desc, EnumFlags<BleCharacteristicProperty> properties, T1 charUuid, T2 svcUuid, BleOnDataReceivedCallback callback = nullptr, void* context = nullptr) {
        BleUuid cUuid(charUuid);
   d4c8e:	4629      	mov	r1, r5
   d4c90:	6034      	str	r4, [r6, #0]

  template<_Lock_policy _Lp>
    class __shared_count
    {
    public:
      constexpr __shared_count() noexcept : _M_pi(0)
   d4c92:	6074      	str	r4, [r6, #4]
   d4c94:	a810      	add	r0, sp, #64	; 0x40
   d4c96:	f001 f943 	bl	d5f20 <_ZN8particle7BleUuidC1ERKS0_>
        BleUuid sUuid(svcUuid);
   d4c9a:	a90b      	add	r1, sp, #44	; 0x2c
   d4c9c:	4638      	mov	r0, r7
   d4c9e:	f001 f93f 	bl	d5f20 <_ZN8particle7BleUuidC1ERKS0_>
   d4ca2:	aa1a      	add	r2, sp, #104	; 0x68
   d4ca4:	2310      	movs	r3, #16
   d4ca6:	f802 3d54 	strb.w	r3, [r2, #-84]!
        construct(desc, properties, cUuid, sUuid, callback, context);
   d4caa:	4630      	mov	r0, r6
   d4cac:	ab10      	add	r3, sp, #64	; 0x40
   d4cae:	9402      	str	r4, [sp, #8]
   d4cb0:	9401      	str	r4, [sp, #4]
   d4cb2:	9700      	str	r7, [sp, #0]
   d4cb4:	4910      	ldr	r1, [pc, #64]	; (d4cf8 <_GLOBAL__sub_I_SystemMode+0x11c>)
   d4cb6:	f001 ff4f 	bl	d6b58 <_ZN8particle17BleCharacteristic9constructEPKcNS_9EnumFlagsINS_25BleCharacteristicPropertyEvEERNS_7BleUuidES7_PFvPKhjRKNS_13BlePeerDeviceEPvESD_>
   d4cba:	4642      	mov	r2, r8
   d4cbc:	4649      	mov	r1, r9
   d4cbe:	4630      	mov	r0, r6
   d4cc0:	f002 fef8 	bl	d7ab4 <__aeabi_atexit>
   d4cc4:	b01a      	add	sp, #104	; 0x68
   d4cc6:	e8bd 87f0 	ldmia.w	sp!, {r4, r5, r6, r7, r8, r9, sl, pc}
   d4cca:	bf00      	nop
   d4ccc:	2003e378 	.word	0x2003e378
   d4cd0:	2003e3a0 	.word	0x2003e3a0
   d4cd4:	2003e3ac 	.word	0x2003e3ac
   d4cd8:	000d41d5 	.word	0x000d41d5
   d4cdc:	000d4f71 	.word	0x000d4f71
   d4ce0:	000d81e7 	.word	0x000d81e7
   d4ce4:	2003e300 	.word	0x2003e300
   d4ce8:	000d4111 	.word	0x000d4111
   d4cec:	000d820c 	.word	0x000d820c
   d4cf0:	2003e3b0 	.word	0x2003e3b0
   d4cf4:	000d8214 	.word	0x000d8214
   d4cf8:	000d8239 	.word	0x000d8239
   d4cfc:	2003e36c 	.word	0x2003e36c
   d4d00:	2003e388 	.word	0x2003e388
   d4d04:	000d65a5 	.word	0x000d65a5

000d4d08 <_ZN14Command_Packet16ParameterFromIntEi>:

// Converts the int to bytes and puts them into the paramter array
void Command_Packet::ParameterFromInt(int i)
{
	Parameter[0] = (i & 0x000000ff);
	Parameter[1] = (i & 0x0000ff00) >> 8;
   d4d08:	120b      	asrs	r3, r1, #8
}

// Converts the int to bytes and puts them into the paramter array
void Command_Packet::ParameterFromInt(int i)
{
	Parameter[0] = (i & 0x000000ff);
   d4d0a:	7041      	strb	r1, [r0, #1]
	Parameter[1] = (i & 0x0000ff00) >> 8;
   d4d0c:	7083      	strb	r3, [r0, #2]
	Parameter[2] = (i & 0x00ff0000) >> 16;
   d4d0e:	140b      	asrs	r3, r1, #16
	Parameter[3] = (i & 0xff000000) >> 24;
   d4d10:	0e09      	lsrs	r1, r1, #24
// Converts the int to bytes and puts them into the paramter array
void Command_Packet::ParameterFromInt(int i)
{
	Parameter[0] = (i & 0x000000ff);
	Parameter[1] = (i & 0x0000ff00) >> 8;
	Parameter[2] = (i & 0x00ff0000) >> 16;
   d4d12:	70c3      	strb	r3, [r0, #3]
	Parameter[3] = (i & 0xff000000) >> 24;
   d4d14:	7101      	strb	r1, [r0, #4]
   d4d16:	4770      	bx	lr

000d4d18 <_ZN14Command_Packet18_CalculateChecksumEv>:
	w += COMMAND_START_CODE_1;
	w += COMMAND_START_CODE_2;
	w += COMMAND_DEVICE_ID_1;
	w += COMMAND_DEVICE_ID_2;
	w += Parameter[0];
	w += Parameter[1];
   d4d18:	7842      	ldrb	r2, [r0, #1]
   d4d1a:	7883      	ldrb	r3, [r0, #2]
   d4d1c:	4413      	add	r3, r2
	w += Parameter[2];
   d4d1e:	78c2      	ldrb	r2, [r0, #3]
	w += COMMAND_START_CODE_1;
	w += COMMAND_START_CODE_2;
	w += COMMAND_DEVICE_ID_1;
	w += COMMAND_DEVICE_ID_2;
	w += Parameter[0];
	w += Parameter[1];
   d4d20:	f503 7380 	add.w	r3, r3, #256	; 0x100
	w += Parameter[2];
   d4d24:	4413      	add	r3, r2
	w += Parameter[3];
   d4d26:	7902      	ldrb	r2, [r0, #4]
   d4d28:	4413      	add	r3, r2
	w += command[0];
   d4d2a:	7942      	ldrb	r2, [r0, #5]
	w += command[1];

	return w;
   d4d2c:	7980      	ldrb	r0, [r0, #6]
	w += COMMAND_DEVICE_ID_2;
	w += Parameter[0];
	w += Parameter[1];
	w += Parameter[2];
	w += Parameter[3];
	w += command[0];
   d4d2e:	4413      	add	r3, r2
	w += command[1];

	return w;
}
   d4d30:	4418      	add	r0, r3
   d4d32:	4770      	bx	lr

000d4d34 <_ZN14Command_Packet14GetPacketBytesEv>:
#endif  //__GNUC__

// returns the 12 bytes of the generated command packet
// remember to call delete on the returned array
byte* Command_Packet::GetPacketBytes()
{
   d4d34:	b570      	push	{r4, r5, r6, lr}
   d4d36:	4604      	mov	r4, r0
	byte* packetbytes= new byte[12];
   d4d38:	200c      	movs	r0, #12
   d4d3a:	f7ff f9ae 	bl	d409a <_Znaj>

	// update command before calculating checksum (important!)
	word cmd = Command;
	command[0] = GetLowByte(cmd);
	command[1] = GetHighByte(cmd);
   d4d3e:	2500      	movs	r5, #0
byte* Command_Packet::GetPacketBytes()
{
	byte* packetbytes= new byte[12];

	// update command before calculating checksum (important!)
	word cmd = Command;
   d4d40:	7826      	ldrb	r6, [r4, #0]
	command[0] = GetLowByte(cmd);
   d4d42:	7166      	strb	r6, [r4, #5]

// returns the 12 bytes of the generated command packet
// remember to call delete on the returned array
byte* Command_Packet::GetPacketBytes()
{
	byte* packetbytes= new byte[12];
   d4d44:	4601      	mov	r1, r0

	// update command before calculating checksum (important!)
	word cmd = Command;
	command[0] = GetLowByte(cmd);
	command[1] = GetHighByte(cmd);
   d4d46:	71a5      	strb	r5, [r4, #6]

	word checksum = _CalculateChecksum();
   d4d48:	4620      	mov	r0, r4
   d4d4a:	f7ff ffe5 	bl	d4d18 <_ZN14Command_Packet18_CalculateChecksumEv>

	packetbytes[0] = COMMAND_START_CODE_1;
   d4d4e:	2355      	movs	r3, #85	; 0x55
   d4d50:	700b      	strb	r3, [r1, #0]
	packetbytes[1] = COMMAND_START_CODE_2;
   d4d52:	23aa      	movs	r3, #170	; 0xaa
   d4d54:	704b      	strb	r3, [r1, #1]
	packetbytes[2] = COMMAND_DEVICE_ID_1;
   d4d56:	2301      	movs	r3, #1
   d4d58:	708b      	strb	r3, [r1, #2]
	packetbytes[3] = COMMAND_DEVICE_ID_2;
	packetbytes[4] = Parameter[0];
   d4d5a:	7863      	ldrb	r3, [r4, #1]
   d4d5c:	710b      	strb	r3, [r1, #4]
	packetbytes[5] = Parameter[1];
   d4d5e:	78a3      	ldrb	r3, [r4, #2]
   d4d60:	714b      	strb	r3, [r1, #5]
	packetbytes[6] = Parameter[2];
   d4d62:	78e3      	ldrb	r3, [r4, #3]
   d4d64:	718b      	strb	r3, [r1, #6]
	packetbytes[7] = Parameter[3];
	packetbytes[8] = command[0];
	packetbytes[9] = command[1];
	packetbytes[10] = GetLowByte(checksum);
   d4d66:	7288      	strb	r0, [r1, #10]
	packetbytes[2] = COMMAND_DEVICE_ID_1;
	packetbytes[3] = COMMAND_DEVICE_ID_2;
	packetbytes[4] = Parameter[0];
	packetbytes[5] = Parameter[1];
	packetbytes[6] = Parameter[2];
	packetbytes[7] = Parameter[3];
   d4d68:	7923      	ldrb	r3, [r4, #4]
	word checksum = _CalculateChecksum();

	packetbytes[0] = COMMAND_START_CODE_1;
	packetbytes[1] = COMMAND_START_CODE_2;
	packetbytes[2] = COMMAND_DEVICE_ID_1;
	packetbytes[3] = COMMAND_DEVICE_ID_2;
   d4d6a:	70cd      	strb	r5, [r1, #3]
	packetbytes[6] = Parameter[2];
	packetbytes[7] = Parameter[3];
	packetbytes[8] = command[0];
	packetbytes[9] = command[1];
	packetbytes[10] = GetLowByte(checksum);
	packetbytes[11] = GetHighByte(checksum);
   d4d6c:	0a00      	lsrs	r0, r0, #8
   d4d6e:	72c8      	strb	r0, [r1, #11]
	packetbytes[2] = COMMAND_DEVICE_ID_1;
	packetbytes[3] = COMMAND_DEVICE_ID_2;
	packetbytes[4] = Parameter[0];
	packetbytes[5] = Parameter[1];
	packetbytes[6] = Parameter[2];
	packetbytes[7] = Parameter[3];
   d4d70:	71cb      	strb	r3, [r1, #7]
	packetbytes[8] = command[0];
   d4d72:	720e      	strb	r6, [r1, #8]
	packetbytes[9] = command[1];
   d4d74:	724d      	strb	r5, [r1, #9]
	packetbytes[10] = GetLowByte(checksum);
	packetbytes[11] = GetHighByte(checksum);

	return packetbytes;
}
   d4d76:	4608      	mov	r0, r1
   d4d78:	bd70      	pop	{r4, r5, r6, pc}
	...

000d4d7c <_ZN15Response_Packet10ErrorCodes14ParseFromBytesEhh>:

// parses bytes into one of the possible errors from the finger print scanner
Response_Packet::ErrorCodes::Errors_Enum Response_Packet::ErrorCodes::ParseFromBytes(byte high, byte low)
{
	Errors_Enum e = INVALID;
	if (high == 0x00)
   d4d7c:	b128      	cbz	r0, d4d8a <_ZN15Response_Packet10ErrorCodes14ParseFromBytesEhh+0xe>
   d4d7e:	2912      	cmp	r1, #18
   d4d80:	d803      	bhi.n	d4d8a <_ZN15Response_Packet10ErrorCodes14ParseFromBytesEhh+0xe>
   d4d82:	4b03      	ldr	r3, [pc, #12]	; (d4d90 <_ZN15Response_Packet10ErrorCodes14ParseFromBytesEhh+0x14>)
   d4d84:	f833 0011 	ldrh.w	r0, [r3, r1, lsl #1]
   d4d88:	4770      	bx	lr
}

// parses bytes into one of the possible errors from the finger print scanner
Response_Packet::ErrorCodes::Errors_Enum Response_Packet::ErrorCodes::ParseFromBytes(byte high, byte low)
{
	Errors_Enum e = INVALID;
   d4d8a:	f64f 70ff 	movw	r0, #65535	; 0xffff
			case 0x11: e = NACK_INVALID_PARAM; break;
			case 0x12: e = NACK_FINGER_IS_NOT_PRESSED; break;
		}
	}
	return e;
}
   d4d8e:	4770      	bx	lr
   d4d90:	000d8268 	.word	0x000d8268

000d4d94 <_ZN15Response_Packet16IntFromParameterEv>:
int Response_Packet::IntFromParameter()
{
	int retval = 0;
	retval = (retval << 8) + ParameterBytes[3];
	retval = (retval << 8) + ParameterBytes[2];
	retval = (retval << 8) + ParameterBytes[1];
   d4d94:	7c03      	ldrb	r3, [r0, #16]
   d4d96:	7c42      	ldrb	r2, [r0, #17]
   d4d98:	eb03 2202 	add.w	r2, r3, r2, lsl #8
	retval = (retval << 8) + ParameterBytes[0];
   d4d9c:	7bc3      	ldrb	r3, [r0, #15]
	return retval;
   d4d9e:	7b80      	ldrb	r0, [r0, #14]
{
	int retval = 0;
	retval = (retval << 8) + ParameterBytes[3];
	retval = (retval << 8) + ParameterBytes[2];
	retval = (retval << 8) + ParameterBytes[1];
	retval = (retval << 8) + ParameterBytes[0];
   d4da0:	eb03 2302 	add.w	r3, r3, r2, lsl #8
	return retval;
}
   d4da4:	eb00 2003 	add.w	r0, r0, r3, lsl #8
   d4da8:	4770      	bx	lr

000d4daa <_ZN15Response_Packet17CalculateChecksumEPhi>:

// calculates the checksum from the bytes in the packet
word Response_Packet::CalculateChecksum(byte* buffer, int length)
{
   d4daa:	b510      	push	{r4, lr}
   d4dac:	460b      	mov	r3, r1
	word checksum = 0;
   d4dae:	2000      	movs	r0, #0
	for (int i=0; i<length; i++)
   d4db0:	1a5c      	subs	r4, r3, r1
   d4db2:	42a2      	cmp	r2, r4
   d4db4:	dd03      	ble.n	d4dbe <_ZN15Response_Packet17CalculateChecksumEPhi+0x14>
	{
		checksum +=buffer[i];
   d4db6:	f813 4b01 	ldrb.w	r4, [r3], #1
   d4dba:	4420      	add	r0, r4

// calculates the checksum from the bytes in the packet
word Response_Packet::CalculateChecksum(byte* buffer, int length)
{
	word checksum = 0;
	for (int i=0; i<length; i++)
   d4dbc:	e7f8      	b.n	d4db0 <_ZN15Response_Packet17CalculateChecksumEPhi+0x6>
	{
		checksum +=buffer[i];
	}
	return checksum;
}
   d4dbe:	bd10      	pop	{r4, pc}

000d4dc0 <_ZN15Response_Packet12CheckParsingEhhhPKcb>:
}

// checks to see if the byte is the proper value, and logs it to the serial channel if not
bool Response_Packet::CheckParsing(byte b, byte propervalue, byte alternatevalue, const char* varname, bool UseSerialDebug)
{
	bool retval = (b != propervalue) && (b != alternatevalue);
   d4dc0:	4291      	cmp	r1, r2
	return (byte)w&0x00FF;
}

// checks to see if the byte is the proper value, and logs it to the serial channel if not
bool Response_Packet::CheckParsing(byte b, byte propervalue, byte alternatevalue, const char* varname, bool UseSerialDebug)
{
   d4dc2:	b570      	push	{r4, r5, r6, lr}
   d4dc4:	460c      	mov	r4, r1
   d4dc6:	4615      	mov	r5, r2
   d4dc8:	461e      	mov	r6, r3
	bool retval = (b != propervalue) && (b != alternatevalue);
   d4dca:	d001      	beq.n	d4dd0 <_ZN15Response_Packet12CheckParsingEhhhPKcb+0x10>
   d4dcc:	4299      	cmp	r1, r3
   d4dce:	d101      	bne.n	d4dd4 <_ZN15Response_Packet12CheckParsingEhhhPKcb+0x14>
   d4dd0:	2000      	movs	r0, #0
   d4dd2:	bd70      	pop	{r4, r5, r6, pc}
	if ((UseSerialDebug) && (retval))
   d4dd4:	f89d 3014 	ldrb.w	r3, [sp, #20]
   d4dd8:	b373      	cbz	r3, d4e38 <_ZN15Response_Packet12CheckParsingEhhhPKcb+0x78>
	{
		Serial.print("Response_Packet parsing error ");
   d4dda:	f002 fae5 	bl	d73a8 <_Z16_fetch_usbserialv>
   d4dde:	4917      	ldr	r1, [pc, #92]	; (d4e3c <_ZN15Response_Packet12CheckParsingEhhhPKcb+0x7c>)
   d4de0:	f002 f8ae 	bl	d6f40 <_ZN5Print5printEPKc>
		Serial.print(varname);
   d4de4:	f002 fae0 	bl	d73a8 <_Z16_fetch_usbserialv>
   d4de8:	9904      	ldr	r1, [sp, #16]
   d4dea:	f002 f8a9 	bl	d6f40 <_ZN5Print5printEPKc>
		Serial.print(" ");
   d4dee:	f002 fadb 	bl	d73a8 <_Z16_fetch_usbserialv>
   d4df2:	4913      	ldr	r1, [pc, #76]	; (d4e40 <_ZN15Response_Packet12CheckParsingEhhhPKcb+0x80>)
   d4df4:	f002 f8a4 	bl	d6f40 <_ZN5Print5printEPKc>
		Serial.print(propervalue, HEX);
   d4df8:	f002 fad6 	bl	d73a8 <_Z16_fetch_usbserialv>
            t = print('-');
            val = -n;
        } else {
            val = n;
        }
        return printNumber(val, base) + t;
   d4dfc:	2210      	movs	r2, #16
   d4dfe:	4629      	mov	r1, r5
   d4e00:	f002 f8bb 	bl	d6f7a <_ZN5Print11printNumberEmh>
		Serial.print(" || ");
   d4e04:	f002 fad0 	bl	d73a8 <_Z16_fetch_usbserialv>
   d4e08:	490e      	ldr	r1, [pc, #56]	; (d4e44 <_ZN15Response_Packet12CheckParsingEhhhPKcb+0x84>)
   d4e0a:	f002 f899 	bl	d6f40 <_ZN5Print5printEPKc>
		Serial.print(alternatevalue, HEX);
   d4e0e:	f002 facb 	bl	d73a8 <_Z16_fetch_usbserialv>
   d4e12:	2210      	movs	r2, #16
   d4e14:	4631      	mov	r1, r6
   d4e16:	f002 f8b0 	bl	d6f7a <_ZN5Print11printNumberEmh>
		Serial.print(" != ");
   d4e1a:	f002 fac5 	bl	d73a8 <_Z16_fetch_usbserialv>
   d4e1e:	490a      	ldr	r1, [pc, #40]	; (d4e48 <_ZN15Response_Packet12CheckParsingEhhhPKcb+0x88>)
   d4e20:	f002 f88e 	bl	d6f40 <_ZN5Print5printEPKc>
		Serial.println(b, HEX);
   d4e24:	f002 fac0 	bl	d73a8 <_Z16_fetch_usbserialv>
   d4e28:	2210      	movs	r2, #16
   d4e2a:	4605      	mov	r5, r0
   d4e2c:	4621      	mov	r1, r4
   d4e2e:	f002 f8a4 	bl	d6f7a <_ZN5Print11printNumberEmh>
    size_t println(char);
    template <typename T, std::enable_if_t<std::is_integral<T>::value || std::is_convertible<T, unsigned long long>::value ||
        std::is_convertible<T, long long>::value, int> = 0>
    size_t println(T b, int base = DEC) {
        size_t n = print(b, base);
        n += println();
   d4e32:	4628      	mov	r0, r5
   d4e34:	f002 f88b 	bl	d6f4e <_ZN5Print7printlnEv>
}

// checks to see if the byte is the proper value, and logs it to the serial channel if not
bool Response_Packet::CheckParsing(byte b, byte propervalue, byte alternatevalue, const char* varname, bool UseSerialDebug)
{
	bool retval = (b != propervalue) && (b != alternatevalue);
   d4e38:	2001      	movs	r0, #1
		Serial.print(alternatevalue, HEX);
		Serial.print(" != ");
		Serial.println(b, HEX);
	}
  return retval;
}
   d4e3a:	bd70      	pop	{r4, r5, r6, pc}
   d4e3c:	000d828e 	.word	0x000d828e
   d4e40:	000d872a 	.word	0x000d872a
   d4e44:	000d82ad 	.word	0x000d82ad
   d4e48:	000d82b2 	.word	0x000d82b2

000d4e4c <_ZN15Response_PacketC1EPhb>:

#ifndef __GNUC__
#pragma region -= Response_Packet Definitions =-
#endif  //__GNUC__
// creates and parses a response packet from the finger print scanner
Response_Packet::Response_Packet(byte* buffer, bool UseSerialDebug)
   d4e4c:	b5f7      	push	{r0, r1, r2, r4, r5, r6, r7, lr}
{
	CheckParsing(buffer[0], COMMAND_START_CODE_1, COMMAND_START_CODE_1, "COMMAND_START_CODE_1", UseSerialDebug);
   d4e4e:	4b3a      	ldr	r3, [pc, #232]	; (d4f38 <_ZN15Response_PacketC1EPhb+0xec>)

#ifndef __GNUC__
#pragma region -= Response_Packet Definitions =-
#endif  //__GNUC__
// creates and parses a response packet from the finger print scanner
Response_Packet::Response_Packet(byte* buffer, bool UseSerialDebug)
   d4e50:	460c      	mov	r4, r1
{
	CheckParsing(buffer[0], COMMAND_START_CODE_1, COMMAND_START_CODE_1, "COMMAND_START_CODE_1", UseSerialDebug);
   d4e52:	7809      	ldrb	r1, [r1, #0]
   d4e54:	9300      	str	r3, [sp, #0]
   d4e56:	2355      	movs	r3, #85	; 0x55

#ifndef __GNUC__
#pragma region -= Response_Packet Definitions =-
#endif  //__GNUC__
// creates and parses a response packet from the finger print scanner
Response_Packet::Response_Packet(byte* buffer, bool UseSerialDebug)
   d4e58:	4616      	mov	r6, r2
{
	CheckParsing(buffer[0], COMMAND_START_CODE_1, COMMAND_START_CODE_1, "COMMAND_START_CODE_1", UseSerialDebug);
   d4e5a:	9201      	str	r2, [sp, #4]
   d4e5c:	461a      	mov	r2, r3

#ifndef __GNUC__
#pragma region -= Response_Packet Definitions =-
#endif  //__GNUC__
// creates and parses a response packet from the finger print scanner
Response_Packet::Response_Packet(byte* buffer, bool UseSerialDebug)
   d4e5e:	4605      	mov	r5, r0
{
	CheckParsing(buffer[0], COMMAND_START_CODE_1, COMMAND_START_CODE_1, "COMMAND_START_CODE_1", UseSerialDebug);
   d4e60:	f7ff ffae 	bl	d4dc0 <_ZN15Response_Packet12CheckParsingEhhhPKcb>
	CheckParsing(buffer[1], COMMAND_START_CODE_2, COMMAND_START_CODE_2, "COMMAND_START_CODE_2", UseSerialDebug);
   d4e64:	4b35      	ldr	r3, [pc, #212]	; (d4f3c <_ZN15Response_PacketC1EPhb+0xf0>)
   d4e66:	7861      	ldrb	r1, [r4, #1]
   d4e68:	9300      	str	r3, [sp, #0]
   d4e6a:	23aa      	movs	r3, #170	; 0xaa
   d4e6c:	461a      	mov	r2, r3
   d4e6e:	9601      	str	r6, [sp, #4]
   d4e70:	4628      	mov	r0, r5
   d4e72:	f7ff ffa5 	bl	d4dc0 <_ZN15Response_Packet12CheckParsingEhhhPKcb>
	CheckParsing(buffer[2], COMMAND_DEVICE_ID_1, COMMAND_DEVICE_ID_1, "COMMAND_DEVICE_ID_1", UseSerialDebug);
   d4e76:	4b32      	ldr	r3, [pc, #200]	; (d4f40 <_ZN15Response_PacketC1EPhb+0xf4>)
   d4e78:	78a1      	ldrb	r1, [r4, #2]
   d4e7a:	9300      	str	r3, [sp, #0]
   d4e7c:	2301      	movs	r3, #1
   d4e7e:	461a      	mov	r2, r3
   d4e80:	9601      	str	r6, [sp, #4]
   d4e82:	4628      	mov	r0, r5
   d4e84:	f7ff ff9c 	bl	d4dc0 <_ZN15Response_Packet12CheckParsingEhhhPKcb>
	CheckParsing(buffer[3], COMMAND_DEVICE_ID_2, COMMAND_DEVICE_ID_2, "COMMAND_DEVICE_ID_2", UseSerialDebug);
   d4e88:	4b2e      	ldr	r3, [pc, #184]	; (d4f44 <_ZN15Response_PacketC1EPhb+0xf8>)
   d4e8a:	78e1      	ldrb	r1, [r4, #3]
   d4e8c:	9300      	str	r3, [sp, #0]
   d4e8e:	2300      	movs	r3, #0
   d4e90:	461a      	mov	r2, r3
   d4e92:	9601      	str	r6, [sp, #4]
   d4e94:	4628      	mov	r0, r5
   d4e96:	f7ff ff93 	bl	d4dc0 <_ZN15Response_Packet12CheckParsingEhhhPKcb>
	CheckParsing(buffer[8], 0x30, 0x31, "AckNak_LOW", UseSerialDebug);
   d4e9a:	4b2b      	ldr	r3, [pc, #172]	; (d4f48 <_ZN15Response_PacketC1EPhb+0xfc>)
   d4e9c:	7a21      	ldrb	r1, [r4, #8]
   d4e9e:	9300      	str	r3, [sp, #0]
   d4ea0:	2230      	movs	r2, #48	; 0x30
   d4ea2:	2331      	movs	r3, #49	; 0x31
   d4ea4:	9601      	str	r6, [sp, #4]
   d4ea6:	4628      	mov	r0, r5
   d4ea8:	f7ff ff8a 	bl	d4dc0 <_ZN15Response_Packet12CheckParsingEhhhPKcb>
	if (buffer[8] == 0x30) ACK = true; else ACK = false;
   d4eac:	7a23      	ldrb	r3, [r4, #8]
   d4eae:	2b30      	cmp	r3, #48	; 0x30
   d4eb0:	bf0c      	ite	eq
   d4eb2:	2301      	moveq	r3, #1
   d4eb4:	2300      	movne	r3, #0
   d4eb6:	752b      	strb	r3, [r5, #20]
	CheckParsing(buffer[9], 0x00, 0x00, "AckNak_HIGH", UseSerialDebug);
   d4eb8:	4b24      	ldr	r3, [pc, #144]	; (d4f4c <_ZN15Response_PacketC1EPhb+0x100>)
   d4eba:	7a61      	ldrb	r1, [r4, #9]
   d4ebc:	9300      	str	r3, [sp, #0]
   d4ebe:	2300      	movs	r3, #0
   d4ec0:	461a      	mov	r2, r3
   d4ec2:	9601      	str	r6, [sp, #4]
   d4ec4:	4628      	mov	r0, r5
   d4ec6:	f7ff ff7b 	bl	d4dc0 <_ZN15Response_Packet12CheckParsingEhhhPKcb>

	word checksum = CalculateChecksum(buffer, 10);
   d4eca:	4621      	mov	r1, r4
   d4ecc:	220a      	movs	r2, #10
   d4ece:	4628      	mov	r0, r5
   d4ed0:	f7ff ff6b 	bl	d4daa <_ZN15Response_Packet17CalculateChecksumEPhi>
	byte checksum_low = GetLowByte(checksum);
	byte checksum_high = GetHighByte(checksum);
	CheckParsing(buffer[10], checksum_low, checksum_low, "Checksum_LOW", UseSerialDebug);
   d4ed4:	4a1e      	ldr	r2, [pc, #120]	; (d4f50 <_ZN15Response_PacketC1EPhb+0x104>)
   d4ed6:	7aa1      	ldrb	r1, [r4, #10]
   d4ed8:	9200      	str	r2, [sp, #0]
}

// Returns the low byte from a word
byte Response_Packet::GetLowByte(word w)
{
	return (byte)w&0x00FF;
   d4eda:	b2c3      	uxtb	r3, r0
}

// Returns the high byte from a word
byte Response_Packet::GetHighByte(word w)
{
	return (byte)(w>>8)&0x00FF;
   d4edc:	f3c0 2707 	ubfx	r7, r0, #8, #8
	CheckParsing(buffer[9], 0x00, 0x00, "AckNak_HIGH", UseSerialDebug);

	word checksum = CalculateChecksum(buffer, 10);
	byte checksum_low = GetLowByte(checksum);
	byte checksum_high = GetHighByte(checksum);
	CheckParsing(buffer[10], checksum_low, checksum_low, "Checksum_LOW", UseSerialDebug);
   d4ee0:	461a      	mov	r2, r3
   d4ee2:	9601      	str	r6, [sp, #4]
   d4ee4:	4628      	mov	r0, r5
   d4ee6:	f7ff ff6b 	bl	d4dc0 <_ZN15Response_Packet12CheckParsingEhhhPKcb>
	CheckParsing(buffer[11], checksum_high, checksum_high, "Checksum_HIGH", UseSerialDebug);
   d4eea:	4b1a      	ldr	r3, [pc, #104]	; (d4f54 <_ZN15Response_PacketC1EPhb+0x108>)
   d4eec:	7ae1      	ldrb	r1, [r4, #11]
   d4eee:	9300      	str	r3, [sp, #0]
   d4ef0:	463a      	mov	r2, r7
   d4ef2:	463b      	mov	r3, r7
   d4ef4:	9601      	str	r6, [sp, #4]
   d4ef6:	4628      	mov	r0, r5
   d4ef8:	f7ff ff62 	bl	d4dc0 <_ZN15Response_Packet12CheckParsingEhhhPKcb>

	Error = ErrorCodes::ParseFromBytes(buffer[5], buffer[4]);
   d4efc:	7921      	ldrb	r1, [r4, #4]
   d4efe:	7960      	ldrb	r0, [r4, #5]
   d4f00:	f7ff ff3c 	bl	d4d7c <_ZN15Response_Packet10ErrorCodes14ParseFromBytesEhh>
   d4f04:	8028      	strh	r0, [r5, #0]

	ParameterBytes[0] = buffer[4];
   d4f06:	7923      	ldrb	r3, [r4, #4]
   d4f08:	73ab      	strb	r3, [r5, #14]
	ParameterBytes[1] = buffer[5];
   d4f0a:	7963      	ldrb	r3, [r4, #5]
   d4f0c:	73eb      	strb	r3, [r5, #15]
	ParameterBytes[2] = buffer[6];
   d4f0e:	79a3      	ldrb	r3, [r4, #6]
   d4f10:	742b      	strb	r3, [r5, #16]
	ParameterBytes[3] = buffer[7];
   d4f12:	79e3      	ldrb	r3, [r4, #7]
   d4f14:	746b      	strb	r3, [r5, #17]
	ResponseBytes[0]=buffer[8];
   d4f16:	7a23      	ldrb	r3, [r4, #8]
   d4f18:	74ab      	strb	r3, [r5, #18]
	ResponseBytes[1]=buffer[9];
   d4f1a:	7a63      	ldrb	r3, [r4, #9]
   d4f1c:	74eb      	strb	r3, [r5, #19]
   d4f1e:	3c01      	subs	r4, #1
   d4f20:	1c6b      	adds	r3, r5, #1
   d4f22:	f105 020d 	add.w	r2, r5, #13
	for (int i=0; i < 12; i++)
	{
		RawBytes[i]=buffer[i];
   d4f26:	f814 1f01 	ldrb.w	r1, [r4, #1]!
   d4f2a:	f803 1f01 	strb.w	r1, [r3, #1]!
	ParameterBytes[1] = buffer[5];
	ParameterBytes[2] = buffer[6];
	ParameterBytes[3] = buffer[7];
	ResponseBytes[0]=buffer[8];
	ResponseBytes[1]=buffer[9];
	for (int i=0; i < 12; i++)
   d4f2e:	4293      	cmp	r3, r2
   d4f30:	d1f9      	bne.n	d4f26 <_ZN15Response_PacketC1EPhb+0xda>
	{
		RawBytes[i]=buffer[i];
	}
}
   d4f32:	4628      	mov	r0, r5
   d4f34:	b003      	add	sp, #12
   d4f36:	bdf0      	pop	{r4, r5, r6, r7, pc}
   d4f38:	000d82b7 	.word	0x000d82b7
   d4f3c:	000d82cc 	.word	0x000d82cc
   d4f40:	000d82e1 	.word	0x000d82e1
   d4f44:	000d82f5 	.word	0x000d82f5
   d4f48:	000d8309 	.word	0x000d8309
   d4f4c:	000d8314 	.word	0x000d8314
   d4f50:	000d8320 	.word	0x000d8320
   d4f54:	000d832d 	.word	0x000d832d

000d4f58 <_ZN12FPS_GT521F32C1Ev>:
#ifndef __GNUC__
#pragma region -= Constructor/Destructor =-
#endif  //__GNUC__
// Creates a new object to interface with the fingerprint scanner
//FPS_GT521F32::FPS_GT521F32(uint8_t rx, uint8_t tx)
FPS_GT521F32::FPS_GT521F32()	// Serial pins pre-defined
   d4f58:	b510      	push	{r4, lr}
   d4f5a:	4604      	mov	r4, r0
	//pin_RX = rx;
	//pin_TX = tx;
	//pin_RX = 14;
	//pin_TX = 15;
	//_serial.begin(9600);
	Serial1.begin(9600);
   d4f5c:	f002 fada 	bl	d7514 <_Z22__fetch_global_Serial1v>
   d4f60:	f44f 5116 	mov.w	r1, #9600	; 0x2580
   d4f64:	f002 facc 	bl	d7500 <_ZN11USARTSerial5beginEm>
	this->UseSerialDebug = false;
   d4f68:	2300      	movs	r3, #0
   d4f6a:	7023      	strb	r3, [r4, #0]
};
   d4f6c:	4620      	mov	r0, r4
   d4f6e:	bd10      	pop	{r4, pc}

000d4f70 <_ZN12FPS_GT521F32D1Ev>:

// destructor
FPS_GT521F32::~FPS_GT521F32()
   d4f70:	b510      	push	{r4, lr}
   d4f72:	4604      	mov	r4, r0
{
	//_serial.~SoftwareSerial();
	Serial1.~USARTSerial();
   d4f74:	f002 face 	bl	d7514 <_Z22__fetch_global_Serial1v>
   d4f78:	6803      	ldr	r3, [r0, #0]
   d4f7a:	681b      	ldr	r3, [r3, #0]
   d4f7c:	4798      	blx	r3
	Serial1.end();
   d4f7e:	f002 fac9 	bl	d7514 <_Z22__fetch_global_Serial1v>
   d4f82:	f002 fac0 	bl	d7506 <_ZN11USARTSerial3endEv>
}
   d4f86:	4620      	mov	r0, r4
   d4f88:	bd10      	pop	{r4, pc}
	...

000d4f8c <_ZN12FPS_GT521F3214serialPrintHexEh>:
  Serial.print("\"");
}

// sends a byte to the serial debugger in the hex format we want EX "0F"
void FPS_GT521F32::serialPrintHex(byte data)
{
   d4f8c:	b51f      	push	{r0, r1, r2, r3, r4, lr}
  char tmp[16];
  sprintf(tmp, "%.2X",data);
   d4f8e:	460a      	mov	r2, r1
   d4f90:	4668      	mov	r0, sp
   d4f92:	4905      	ldr	r1, [pc, #20]	; (d4fa8 <_ZN12FPS_GT521F3214serialPrintHexEh+0x1c>)
   d4f94:	f000 fdf0 	bl	d5b78 <sprintf>
  Serial.print(tmp);
   d4f98:	f002 fa06 	bl	d73a8 <_Z16_fetch_usbserialv>
   d4f9c:	4669      	mov	r1, sp
   d4f9e:	f001 ffcf 	bl	d6f40 <_ZN5Print5printEPKc>
}
   d4fa2:	b005      	add	sp, #20
   d4fa4:	f85d fb04 	ldr.w	pc, [sp], #4
   d4fa8:	000d833b 	.word	0x000d833b

000d4fac <_ZN12FPS_GT521F3212SendToSerialEPhi>:
	return rp;
};

// sends the bye aray to the serial debugger in our hex format EX: "00 AF FF 10 00 13"
void FPS_GT521F32::SendToSerial(byte data[], int length)
{
   d4fac:	b5f8      	push	{r3, r4, r5, r6, r7, lr}
   d4fae:	460d      	mov	r5, r1
   d4fb0:	4617      	mov	r7, r2
   d4fb2:	4606      	mov	r6, r0
  boolean first=true;
  Serial.print("\"");
   d4fb4:	f002 f9f8 	bl	d73a8 <_Z16_fetch_usbserialv>
   d4fb8:	490d      	ldr	r1, [pc, #52]	; (d4ff0 <_ZN12FPS_GT521F3212SendToSerialEPhi+0x44>)
   d4fba:	f001 ffc1 	bl	d6f40 <_ZN5Print5printEPKc>
   d4fbe:	462c      	mov	r4, r5
};

// sends the bye aray to the serial debugger in our hex format EX: "00 AF FF 10 00 13"
void FPS_GT521F32::SendToSerial(byte data[], int length)
{
  boolean first=true;
   d4fc0:	2301      	movs	r3, #1
  Serial.print("\"");
  for(int i=0; i<length; i++)
   d4fc2:	1b62      	subs	r2, r4, r5
   d4fc4:	4297      	cmp	r7, r2
   d4fc6:	dd0c      	ble.n	d4fe2 <_ZN12FPS_GT521F3212SendToSerialEPhi+0x36>
  {
	if (first) first=false; else Serial.print(" ");
   d4fc8:	b923      	cbnz	r3, d4fd4 <_ZN12FPS_GT521F3212SendToSerialEPhi+0x28>
   d4fca:	f002 f9ed 	bl	d73a8 <_Z16_fetch_usbserialv>
   d4fce:	4909      	ldr	r1, [pc, #36]	; (d4ff4 <_ZN12FPS_GT521F3212SendToSerialEPhi+0x48>)
   d4fd0:	f001 ffb6 	bl	d6f40 <_ZN5Print5printEPKc>
	serialPrintHex(data[i]);
   d4fd4:	f814 1b01 	ldrb.w	r1, [r4], #1
   d4fd8:	4630      	mov	r0, r6
   d4fda:	f7ff ffd7 	bl	d4f8c <_ZN12FPS_GT521F3214serialPrintHexEh>
   d4fde:	2300      	movs	r3, #0
// sends the bye aray to the serial debugger in our hex format EX: "00 AF FF 10 00 13"
void FPS_GT521F32::SendToSerial(byte data[], int length)
{
  boolean first=true;
  Serial.print("\"");
  for(int i=0; i<length; i++)
   d4fe0:	e7ef      	b.n	d4fc2 <_ZN12FPS_GT521F3212SendToSerialEPhi+0x16>
  {
	if (first) first=false; else Serial.print(" ");
	serialPrintHex(data[i]);
  }
  Serial.print("\"");
   d4fe2:	f002 f9e1 	bl	d73a8 <_Z16_fetch_usbserialv>
   d4fe6:	4902      	ldr	r1, [pc, #8]	; (d4ff0 <_ZN12FPS_GT521F3212SendToSerialEPhi+0x44>)
}
   d4fe8:	e8bd 40f8 	ldmia.w	sp!, {r3, r4, r5, r6, r7, lr}
  for(int i=0; i<length; i++)
  {
	if (first) first=false; else Serial.print(" ");
	serialPrintHex(data[i]);
  }
  Serial.print("\"");
   d4fec:	f001 bfa8 	b.w	d6f40 <_ZN5Print5printEPKc>
   d4ff0:	000d8340 	.word	0x000d8340
   d4ff4:	000d872a 	.word	0x000d872a

000d4ff8 <_ZN12FPS_GT521F3211SendCommandEPhi>:
#ifndef __GNUC__
#pragma region -= Private Methods =-
#endif  //__GNUC__
// Sends the command to the software serial channel
void FPS_GT521F32::SendCommand(byte cmd[], int length)
{
   d4ff8:	b570      	push	{r4, r5, r6, lr}
   d4ffa:	4604      	mov	r4, r0
   d4ffc:	460d      	mov	r5, r1
   d4ffe:	4616      	mov	r6, r2
	//_serial.write(cmd, length);
	Serial1.write(cmd, length);
   d5000:	f002 fa88 	bl	d7514 <_Z22__fetch_global_Serial1v>
   d5004:	6803      	ldr	r3, [r0, #0]
   d5006:	4632      	mov	r2, r6
   d5008:	68db      	ldr	r3, [r3, #12]
   d500a:	4629      	mov	r1, r5
   d500c:	4798      	blx	r3
	if (UseSerialDebug)
   d500e:	7823      	ldrb	r3, [r4, #0]
   d5010:	b17b      	cbz	r3, d5032 <_ZN12FPS_GT521F3211SendCommandEPhi+0x3a>
	{
		Serial.print("FPS - SEND: ");
   d5012:	f002 f9c9 	bl	d73a8 <_Z16_fetch_usbserialv>
   d5016:	4907      	ldr	r1, [pc, #28]	; (d5034 <_ZN12FPS_GT521F3211SendCommandEPhi+0x3c>)
   d5018:	f001 ff92 	bl	d6f40 <_ZN5Print5printEPKc>
		SendToSerial(cmd, length);
   d501c:	4632      	mov	r2, r6
   d501e:	4629      	mov	r1, r5
   d5020:	4620      	mov	r0, r4
   d5022:	f7ff ffc3 	bl	d4fac <_ZN12FPS_GT521F3212SendToSerialEPhi>
		Serial.println();
   d5026:	f002 f9bf 	bl	d73a8 <_Z16_fetch_usbserialv>
	}
};
   d502a:	e8bd 4070 	ldmia.w	sp!, {r4, r5, r6, lr}
	Serial1.write(cmd, length);
	if (UseSerialDebug)
	{
		Serial.print("FPS - SEND: ");
		SendToSerial(cmd, length);
		Serial.println();
   d502e:	f001 bf8e 	b.w	d6f4e <_ZN5Print7printlnEv>
   d5032:	bd70      	pop	{r4, r5, r6, pc}
   d5034:	000d8342 	.word	0x000d8342

000d5038 <_ZN12FPS_GT521F3211GetResponseEv>:
	}
};

// Gets the response to the command from the software serial channel (and waits for it)
Response_Packet* FPS_GT521F32::GetResponse()
{
   d5038:	b5f8      	push	{r3, r4, r5, r6, r7, lr}
   d503a:	4605      	mov	r5, r0
	//_serial.listen();	// let's the fake digital UART listen (b/c only one can at a time)
	//Serial1.listen();	// uneccesary b/c Serial1 is always listening unlike SoftwareSerial
	while (done == false)
	{
		//firstbyte = (byte)_serial.read();
		firstbyte = (byte)Serial1.read();
   d503c:	f002 fa6a 	bl	d7514 <_Z22__fetch_global_Serial1v>
   d5040:	6803      	ldr	r3, [r0, #0]
   d5042:	695b      	ldr	r3, [r3, #20]
   d5044:	4798      	blx	r3
{
	byte firstbyte = 0;
	bool done = false;
	//_serial.listen();	// let's the fake digital UART listen (b/c only one can at a time)
	//Serial1.listen();	// uneccesary b/c Serial1 is always listening unlike SoftwareSerial
	while (done == false)
   d5046:	b2c6      	uxtb	r6, r0
   d5048:	2e55      	cmp	r6, #85	; 0x55
   d504a:	d1f7      	bne.n	d503c <_ZN12FPS_GT521F3211GetResponseEv+0x4>
		if (firstbyte == Response_Packet::COMMAND_START_CODE_1)
		{
			done = true;
		}
	}
	byte* resp = new byte[12];
   d504c:	200c      	movs	r0, #12
   d504e:	f7ff f824 	bl	d409a <_Znaj>
	resp[0] = firstbyte;
   d5052:	7006      	strb	r6, [r0, #0]
		if (firstbyte == Response_Packet::COMMAND_START_CODE_1)
		{
			done = true;
		}
	}
	byte* resp = new byte[12];
   d5054:	4604      	mov	r4, r0
   d5056:	4606      	mov	r6, r0
   d5058:	f100 070b 	add.w	r7, r0, #11
	resp[0] = firstbyte;
	for (int i=1; i < 12; i++)
	{
		//while (_serial.available() == false) delay(10);
		//resp[i]= (byte) _serial.read();
		while (Serial1.available() == false) delay(10);
   d505c:	f002 fa5a 	bl	d7514 <_Z22__fetch_global_Serial1v>
   d5060:	6803      	ldr	r3, [r0, #0]
   d5062:	691b      	ldr	r3, [r3, #16]
   d5064:	4798      	blx	r3
   d5066:	b918      	cbnz	r0, d5070 <_ZN12FPS_GT521F3211GetResponseEv+0x38>
   d5068:	200a      	movs	r0, #10
   d506a:	f001 fff3 	bl	d7054 <delay>
   d506e:	e7f5      	b.n	d505c <_ZN12FPS_GT521F3211GetResponseEv+0x24>
		resp[i]= (byte) Serial1.read();
   d5070:	f002 fa50 	bl	d7514 <_Z22__fetch_global_Serial1v>
   d5074:	6803      	ldr	r3, [r0, #0]
   d5076:	695b      	ldr	r3, [r3, #20]
   d5078:	4798      	blx	r3
   d507a:	f806 0f01 	strb.w	r0, [r6, #1]!
			done = true;
		}
	}
	byte* resp = new byte[12];
	resp[0] = firstbyte;
	for (int i=1; i < 12; i++)
   d507e:	42b7      	cmp	r7, r6
   d5080:	d1ec      	bne.n	d505c <_ZN12FPS_GT521F3211GetResponseEv+0x24>
		//while (_serial.available() == false) delay(10);
		//resp[i]= (byte) _serial.read();
		while (Serial1.available() == false) delay(10);
		resp[i]= (byte) Serial1.read();
	}
	Response_Packet* rp = new Response_Packet(resp, UseSerialDebug);
   d5082:	2016      	movs	r0, #22
   d5084:	f7ff f807 	bl	d4096 <_Znwj>
   d5088:	4606      	mov	r6, r0
   d508a:	b118      	cbz	r0, d5094 <_ZN12FPS_GT521F3211GetResponseEv+0x5c>
   d508c:	782a      	ldrb	r2, [r5, #0]
   d508e:	4621      	mov	r1, r4
   d5090:	f7ff fedc 	bl	d4e4c <_ZN15Response_PacketC1EPhb>
	delete resp;
   d5094:	2101      	movs	r1, #1
   d5096:	4620      	mov	r0, r4
   d5098:	f002 fd1a 	bl	d7ad0 <_ZdlPvj>
	if (UseSerialDebug)
   d509c:	782b      	ldrb	r3, [r5, #0]
   d509e:	b18b      	cbz	r3, d50c4 <_ZN12FPS_GT521F3211GetResponseEv+0x8c>
	{
		Serial.print("FPS - RECV: ");
   d50a0:	f002 f982 	bl	d73a8 <_Z16_fetch_usbserialv>
   d50a4:	4908      	ldr	r1, [pc, #32]	; (d50c8 <_ZN12FPS_GT521F3211GetResponseEv+0x90>)
   d50a6:	f001 ff4b 	bl	d6f40 <_ZN5Print5printEPKc>
		SendToSerial(rp->RawBytes, 12);
   d50aa:	220c      	movs	r2, #12
   d50ac:	1cb1      	adds	r1, r6, #2
   d50ae:	4628      	mov	r0, r5
   d50b0:	f7ff ff7c 	bl	d4fac <_ZN12FPS_GT521F3212SendToSerialEPhi>
		Serial.println();
   d50b4:	f002 f978 	bl	d73a8 <_Z16_fetch_usbserialv>
   d50b8:	f001 ff49 	bl	d6f4e <_ZN5Print7printlnEv>
		Serial.println();
   d50bc:	f002 f974 	bl	d73a8 <_Z16_fetch_usbserialv>
   d50c0:	f001 ff45 	bl	d6f4e <_ZN5Print7printlnEv>
	}
	return rp;
};
   d50c4:	4630      	mov	r0, r6
   d50c6:	bdf8      	pop	{r3, r4, r5, r6, r7, pc}
   d50c8:	000d834f 	.word	0x000d834f

000d50cc <_ZN12FPS_GT521F324OpenEv>:
#ifndef __GNUC__
#pragma region -= Device Commands =-
#endif  //__GNUC__
//Initialises the device and gets ready for commands
void FPS_GT521F32::Open()
{
   d50cc:	b5f8      	push	{r3, r4, r5, r6, r7, lr}
	if (UseSerialDebug) Serial.println("FPS - Open");
   d50ce:	7803      	ldrb	r3, [r0, #0]
#ifndef __GNUC__
#pragma region -= Device Commands =-
#endif  //__GNUC__
//Initialises the device and gets ready for commands
void FPS_GT521F32::Open()
{
   d50d0:	4605      	mov	r5, r0
	if (UseSerialDebug) Serial.println("FPS - Open");
   d50d2:	b123      	cbz	r3, d50de <_ZN12FPS_GT521F324OpenEv+0x12>
   d50d4:	f002 f968 	bl	d73a8 <_Z16_fetch_usbserialv>
   d50d8:	4912      	ldr	r1, [pc, #72]	; (d5124 <_ZN12FPS_GT521F324OpenEv+0x58>)
   d50da:	f001 ff44 	bl	d6f66 <_ZN5Print7printlnEPKc>
	Command_Packet* cp = new Command_Packet();
   d50de:	2007      	movs	r0, #7
   d50e0:	f7fe ffd9 	bl	d4096 <_Znwj>
	cp->Command = Command_Packet::Commands::Open;
   d50e4:	2701      	movs	r7, #1
	cp->Parameter[0] = 0x00;
   d50e6:	2300      	movs	r3, #0
   d50e8:	7043      	strb	r3, [r0, #1]
	cp->Parameter[1] = 0x00;
   d50ea:	7083      	strb	r3, [r0, #2]
	cp->Parameter[2] = 0x00;
   d50ec:	70c3      	strb	r3, [r0, #3]
	cp->Parameter[3] = 0x00;
   d50ee:	7103      	strb	r3, [r0, #4]
//Initialises the device and gets ready for commands
void FPS_GT521F32::Open()
{
	if (UseSerialDebug) Serial.println("FPS - Open");
	Command_Packet* cp = new Command_Packet();
	cp->Command = Command_Packet::Commands::Open;
   d50f0:	7007      	strb	r7, [r0, #0]
#endif  //__GNUC__
//Initialises the device and gets ready for commands
void FPS_GT521F32::Open()
{
	if (UseSerialDebug) Serial.println("FPS - Open");
	Command_Packet* cp = new Command_Packet();
   d50f2:	4604      	mov	r4, r0
	cp->Command = Command_Packet::Commands::Open;
	cp->Parameter[0] = 0x00;
	cp->Parameter[1] = 0x00;
	cp->Parameter[2] = 0x00;
	cp->Parameter[3] = 0x00;
	byte* packetbytes = cp->GetPacketBytes();
   d50f4:	f7ff fe1e 	bl	d4d34 <_ZN14Command_Packet14GetPacketBytesEv>
	delete cp;
   d50f8:	2107      	movs	r1, #7
	cp->Command = Command_Packet::Commands::Open;
	cp->Parameter[0] = 0x00;
	cp->Parameter[1] = 0x00;
	cp->Parameter[2] = 0x00;
	cp->Parameter[3] = 0x00;
	byte* packetbytes = cp->GetPacketBytes();
   d50fa:	4606      	mov	r6, r0
	delete cp;
   d50fc:	4620      	mov	r0, r4
   d50fe:	f002 fce7 	bl	d7ad0 <_ZdlPvj>
	SendCommand(packetbytes, 12);
   d5102:	4631      	mov	r1, r6
   d5104:	220c      	movs	r2, #12
   d5106:	4628      	mov	r0, r5
   d5108:	f7ff ff76 	bl	d4ff8 <_ZN12FPS_GT521F3211SendCommandEPhi>
	Response_Packet* rp = GetResponse();
   d510c:	4628      	mov	r0, r5
   d510e:	f7ff ff93 	bl	d5038 <_ZN12FPS_GT521F3211GetResponseEv>
	delete rp;
   d5112:	2116      	movs	r1, #22
   d5114:	f002 fcdc 	bl	d7ad0 <_ZdlPvj>
	delete packetbytes;
   d5118:	4639      	mov	r1, r7
   d511a:	4630      	mov	r0, r6
}
   d511c:	e8bd 40f8 	ldmia.w	sp!, {r3, r4, r5, r6, r7, lr}
	byte* packetbytes = cp->GetPacketBytes();
	delete cp;
	SendCommand(packetbytes, 12);
	Response_Packet* rp = GetResponse();
	delete rp;
	delete packetbytes;
   d5120:	f002 bcd6 	b.w	d7ad0 <_ZdlPvj>
   d5124:	000d835c 	.word	0x000d835c

000d5128 <_ZN12FPS_GT521F326SetLEDEb>:

// Turns on or off the LED backlight
// Parameter: true turns on the backlight, false turns it off
// Returns: True if successful, false if not
bool FPS_GT521F32::SetLED(bool on)
{
   d5128:	b570      	push	{r4, r5, r6, lr}
   d512a:	4605      	mov	r5, r0
	Command_Packet* cp = new Command_Packet();
   d512c:	2007      	movs	r0, #7

// Turns on or off the LED backlight
// Parameter: true turns on the backlight, false turns it off
// Returns: True if successful, false if not
bool FPS_GT521F32::SetLED(bool on)
{
   d512e:	460e      	mov	r6, r1
	Command_Packet* cp = new Command_Packet();
   d5130:	f7fe ffb1 	bl	d4096 <_Znwj>
	cp->Command = Command_Packet::Commands::CmosLed;
   d5134:	2312      	movs	r3, #18
   d5136:	7003      	strb	r3, [r0, #0]
// Turns on or off the LED backlight
// Parameter: true turns on the backlight, false turns it off
// Returns: True if successful, false if not
bool FPS_GT521F32::SetLED(bool on)
{
	Command_Packet* cp = new Command_Packet();
   d5138:	4604      	mov	r4, r0
   d513a:	782b      	ldrb	r3, [r5, #0]
	cp->Command = Command_Packet::Commands::CmosLed;
	if (on)
   d513c:	b13e      	cbz	r6, d514e <_ZN12FPS_GT521F326SetLEDEb+0x26>
	{
		if (UseSerialDebug) Serial.println("FPS - LED on");
   d513e:	b123      	cbz	r3, d514a <_ZN12FPS_GT521F326SetLEDEb+0x22>
   d5140:	f002 f932 	bl	d73a8 <_Z16_fetch_usbserialv>
   d5144:	4915      	ldr	r1, [pc, #84]	; (d519c <_ZN12FPS_GT521F326SetLEDEb+0x74>)
   d5146:	f001 ff0e 	bl	d6f66 <_ZN5Print7printlnEPKc>
		cp->Parameter[0] = 0x01;
   d514a:	2301      	movs	r3, #1
   d514c:	e006      	b.n	d515c <_ZN12FPS_GT521F326SetLEDEb+0x34>
	}
	else
	{
		if (UseSerialDebug) Serial.println("FPS - LED off");
   d514e:	b123      	cbz	r3, d515a <_ZN12FPS_GT521F326SetLEDEb+0x32>
   d5150:	f002 f92a 	bl	d73a8 <_Z16_fetch_usbserialv>
   d5154:	4912      	ldr	r1, [pc, #72]	; (d51a0 <_ZN12FPS_GT521F326SetLEDEb+0x78>)
   d5156:	f001 ff06 	bl	d6f66 <_ZN5Print7printlnEPKc>
		cp->Parameter[0] = 0x00;
   d515a:	2300      	movs	r3, #0
   d515c:	7063      	strb	r3, [r4, #1]
	}
	cp->Parameter[1] = 0x00;
   d515e:	2300      	movs	r3, #0
   d5160:	70a3      	strb	r3, [r4, #2]
	cp->Parameter[2] = 0x00;
   d5162:	70e3      	strb	r3, [r4, #3]
	cp->Parameter[3] = 0x00;
   d5164:	7123      	strb	r3, [r4, #4]
	byte* packetbytes = cp->GetPacketBytes();
   d5166:	4620      	mov	r0, r4
   d5168:	f7ff fde4 	bl	d4d34 <_ZN14Command_Packet14GetPacketBytesEv>
	delete cp;
   d516c:	2107      	movs	r1, #7
		cp->Parameter[0] = 0x00;
	}
	cp->Parameter[1] = 0x00;
	cp->Parameter[2] = 0x00;
	cp->Parameter[3] = 0x00;
	byte* packetbytes = cp->GetPacketBytes();
   d516e:	4606      	mov	r6, r0
	delete cp;
   d5170:	4620      	mov	r0, r4
   d5172:	f002 fcad 	bl	d7ad0 <_ZdlPvj>
	SendCommand(packetbytes, 12);
   d5176:	220c      	movs	r2, #12
   d5178:	4631      	mov	r1, r6
   d517a:	4628      	mov	r0, r5
   d517c:	f7ff ff3c 	bl	d4ff8 <_ZN12FPS_GT521F3211SendCommandEPhi>
	Response_Packet* rp = GetResponse();
   d5180:	4628      	mov	r0, r5
   d5182:	f7ff ff59 	bl	d5038 <_ZN12FPS_GT521F3211GetResponseEv>
	bool retval = true;
	if (rp->ACK == false) retval = false;
	delete rp;
   d5186:	2116      	movs	r1, #22
	byte* packetbytes = cp->GetPacketBytes();
	delete cp;
	SendCommand(packetbytes, 12);
	Response_Packet* rp = GetResponse();
	bool retval = true;
	if (rp->ACK == false) retval = false;
   d5188:	7d04      	ldrb	r4, [r0, #20]
	delete rp;
   d518a:	f002 fca1 	bl	d7ad0 <_ZdlPvj>
	delete packetbytes;
   d518e:	4630      	mov	r0, r6
   d5190:	2101      	movs	r1, #1
   d5192:	f002 fc9d 	bl	d7ad0 <_ZdlPvj>
	return retval;
};
   d5196:	4620      	mov	r0, r4
   d5198:	bd70      	pop	{r4, r5, r6, pc}
   d519a:	bf00      	nop
   d519c:	000d8373 	.word	0x000d8373
   d51a0:	000d8380 	.word	0x000d8380

000d51a4 <_ZN12FPS_GT521F3213CheckEnrolledEi>:
// checks to see if the ID number is in use or not
// Parameter: 0-2999, if using GT-521F52
//            0-199, if using GT-521F32/GT-511C3
// Return: True if the ID number is enrolled, false if not
bool FPS_GT521F32::CheckEnrolled(int id)
{
   d51a4:	b570      	push	{r4, r5, r6, lr}
	if (UseSerialDebug) Serial.println("FPS - CheckEnrolled");
   d51a6:	7803      	ldrb	r3, [r0, #0]
// checks to see if the ID number is in use or not
// Parameter: 0-2999, if using GT-521F52
//            0-199, if using GT-521F32/GT-511C3
// Return: True if the ID number is enrolled, false if not
bool FPS_GT521F32::CheckEnrolled(int id)
{
   d51a8:	4604      	mov	r4, r0
   d51aa:	460e      	mov	r6, r1
	if (UseSerialDebug) Serial.println("FPS - CheckEnrolled");
   d51ac:	b123      	cbz	r3, d51b8 <_ZN12FPS_GT521F3213CheckEnrolledEi+0x14>
   d51ae:	f002 f8fb 	bl	d73a8 <_Z16_fetch_usbserialv>
   d51b2:	4912      	ldr	r1, [pc, #72]	; (d51fc <_ZN12FPS_GT521F3213CheckEnrolledEi+0x58>)
   d51b4:	f001 fed7 	bl	d6f66 <_ZN5Print7printlnEPKc>
	Command_Packet* cp = new Command_Packet();
   d51b8:	2007      	movs	r0, #7
   d51ba:	f7fe ff6c 	bl	d4096 <_Znwj>
	cp->Command = Command_Packet::Commands::CheckEnrolled;
   d51be:	2321      	movs	r3, #33	; 0x21
   d51c0:	7003      	strb	r3, [r0, #0]
	cp->ParameterFromInt(id);
   d51c2:	4631      	mov	r1, r6
//            0-199, if using GT-521F32/GT-511C3
// Return: True if the ID number is enrolled, false if not
bool FPS_GT521F32::CheckEnrolled(int id)
{
	if (UseSerialDebug) Serial.println("FPS - CheckEnrolled");
	Command_Packet* cp = new Command_Packet();
   d51c4:	4605      	mov	r5, r0
	cp->Command = Command_Packet::Commands::CheckEnrolled;
	cp->ParameterFromInt(id);
   d51c6:	f7ff fd9f 	bl	d4d08 <_ZN14Command_Packet16ParameterFromIntEi>
	byte* packetbytes = cp->GetPacketBytes();
   d51ca:	f7ff fdb3 	bl	d4d34 <_ZN14Command_Packet14GetPacketBytesEv>
	delete cp;
   d51ce:	2107      	movs	r1, #7
{
	if (UseSerialDebug) Serial.println("FPS - CheckEnrolled");
	Command_Packet* cp = new Command_Packet();
	cp->Command = Command_Packet::Commands::CheckEnrolled;
	cp->ParameterFromInt(id);
	byte* packetbytes = cp->GetPacketBytes();
   d51d0:	4606      	mov	r6, r0
	delete cp;
   d51d2:	4628      	mov	r0, r5
   d51d4:	f002 fc7c 	bl	d7ad0 <_ZdlPvj>
	SendCommand(packetbytes, 12);
   d51d8:	220c      	movs	r2, #12
   d51da:	4631      	mov	r1, r6
   d51dc:	4620      	mov	r0, r4
   d51de:	f7ff ff0b 	bl	d4ff8 <_ZN12FPS_GT521F3211SendCommandEPhi>
	delete packetbytes;
   d51e2:	2101      	movs	r1, #1
   d51e4:	4630      	mov	r0, r6
   d51e6:	f002 fc73 	bl	d7ad0 <_ZdlPvj>
	Response_Packet* rp = GetResponse();
   d51ea:	4620      	mov	r0, r4
   d51ec:	f7ff ff24 	bl	d5038 <_ZN12FPS_GT521F3211GetResponseEv>
	bool retval = false;
	retval = rp->ACK;
   d51f0:	7d04      	ldrb	r4, [r0, #20]
	delete rp;
   d51f2:	2116      	movs	r1, #22
   d51f4:	f002 fc6c 	bl	d7ad0 <_ZdlPvj>
	return retval;
}
   d51f8:	4620      	mov	r0, r4
   d51fa:	bd70      	pop	{r4, r5, r6, pc}
   d51fc:	000d83ba 	.word	0x000d83ba

000d5200 <_ZN12FPS_GT521F3211EnrollStartEi>:
//	0 - ACK
//	1 - Database is full
//	2 - Invalid Position
//	3 - Position(ID) is already used
int FPS_GT521F32::EnrollStart(int id)
{
   d5200:	b570      	push	{r4, r5, r6, lr}
	if (UseSerialDebug) Serial.println("FPS - EnrollStart");
   d5202:	7803      	ldrb	r3, [r0, #0]
//	0 - ACK
//	1 - Database is full
//	2 - Invalid Position
//	3 - Position(ID) is already used
int FPS_GT521F32::EnrollStart(int id)
{
   d5204:	4604      	mov	r4, r0
   d5206:	460e      	mov	r6, r1
	if (UseSerialDebug) Serial.println("FPS - EnrollStart");
   d5208:	b123      	cbz	r3, d5214 <_ZN12FPS_GT521F3211EnrollStartEi+0x14>
   d520a:	f002 f8cd 	bl	d73a8 <_Z16_fetch_usbserialv>
   d520e:	491d      	ldr	r1, [pc, #116]	; (d5284 <_ZN12FPS_GT521F3211EnrollStartEi+0x84>)
   d5210:	f001 fea9 	bl	d6f66 <_ZN5Print7printlnEPKc>
	Command_Packet* cp = new Command_Packet();
   d5214:	2007      	movs	r0, #7
   d5216:	f7fe ff3e 	bl	d4096 <_Znwj>
	cp->Command = Command_Packet::Commands::EnrollStart;
   d521a:	2322      	movs	r3, #34	; 0x22
   d521c:	7003      	strb	r3, [r0, #0]
	cp->ParameterFromInt(id);
   d521e:	4631      	mov	r1, r6
//	2 - Invalid Position
//	3 - Position(ID) is already used
int FPS_GT521F32::EnrollStart(int id)
{
	if (UseSerialDebug) Serial.println("FPS - EnrollStart");
	Command_Packet* cp = new Command_Packet();
   d5220:	4605      	mov	r5, r0
	cp->Command = Command_Packet::Commands::EnrollStart;
	cp->ParameterFromInt(id);
   d5222:	f7ff fd71 	bl	d4d08 <_ZN14Command_Packet16ParameterFromIntEi>
	byte* packetbytes = cp->GetPacketBytes();
   d5226:	f7ff fd85 	bl	d4d34 <_ZN14Command_Packet14GetPacketBytesEv>
	delete cp;
   d522a:	2107      	movs	r1, #7
{
	if (UseSerialDebug) Serial.println("FPS - EnrollStart");
	Command_Packet* cp = new Command_Packet();
	cp->Command = Command_Packet::Commands::EnrollStart;
	cp->ParameterFromInt(id);
	byte* packetbytes = cp->GetPacketBytes();
   d522c:	4606      	mov	r6, r0
	delete cp;
   d522e:	4628      	mov	r0, r5
   d5230:	f002 fc4e 	bl	d7ad0 <_ZdlPvj>
	SendCommand(packetbytes, 12);
   d5234:	220c      	movs	r2, #12
   d5236:	4631      	mov	r1, r6
   d5238:	4620      	mov	r0, r4
   d523a:	f7ff fedd 	bl	d4ff8 <_ZN12FPS_GT521F3211SendCommandEPhi>
	delete packetbytes;
   d523e:	2101      	movs	r1, #1
   d5240:	4630      	mov	r0, r6
   d5242:	f002 fc45 	bl	d7ad0 <_ZdlPvj>
	Response_Packet* rp = GetResponse();
   d5246:	4620      	mov	r0, r4
   d5248:	f7ff fef6 	bl	d5038 <_ZN12FPS_GT521F3211GetResponseEv>
	int retval = 0;
	if (rp->ACK == false)
   d524c:	7d03      	ldrb	r3, [r0, #20]
   d524e:	b97b      	cbnz	r3, d5270 <_ZN12FPS_GT521F3211EnrollStartEi+0x70>
	{
		if (rp->Error == Response_Packet::ErrorCodes::NACK_DB_IS_FULL) retval = 1;
   d5250:	8803      	ldrh	r3, [r0, #0]
   d5252:	f241 0209 	movw	r2, #4105	; 0x1009
   d5256:	4293      	cmp	r3, r2
   d5258:	d00c      	beq.n	d5274 <_ZN12FPS_GT521F3211EnrollStartEi+0x74>
		if (rp->Error == Response_Packet::ErrorCodes::NACK_INVALID_POS) retval = 2;
   d525a:	f241 0203 	movw	r2, #4099	; 0x1003
   d525e:	4293      	cmp	r3, r2
   d5260:	d00a      	beq.n	d5278 <_ZN12FPS_GT521F3211EnrollStartEi+0x78>
		if (rp->Error == Response_Packet::ErrorCodes::NACK_IS_ALREADY_USED) retval = 3;
   d5262:	f241 0405 	movw	r4, #4101	; 0x1005
   d5266:	42a3      	cmp	r3, r4
   d5268:	bf0c      	ite	eq
   d526a:	2403      	moveq	r4, #3
   d526c:	2400      	movne	r4, #0
   d526e:	e004      	b.n	d527a <_ZN12FPS_GT521F3211EnrollStartEi+0x7a>
	byte* packetbytes = cp->GetPacketBytes();
	delete cp;
	SendCommand(packetbytes, 12);
	delete packetbytes;
	Response_Packet* rp = GetResponse();
	int retval = 0;
   d5270:	2400      	movs	r4, #0
   d5272:	e002      	b.n	d527a <_ZN12FPS_GT521F3211EnrollStartEi+0x7a>
	if (rp->ACK == false)
	{
		if (rp->Error == Response_Packet::ErrorCodes::NACK_DB_IS_FULL) retval = 1;
   d5274:	2401      	movs	r4, #1
   d5276:	e000      	b.n	d527a <_ZN12FPS_GT521F3211EnrollStartEi+0x7a>
		if (rp->Error == Response_Packet::ErrorCodes::NACK_INVALID_POS) retval = 2;
   d5278:	2402      	movs	r4, #2
		if (rp->Error == Response_Packet::ErrorCodes::NACK_IS_ALREADY_USED) retval = 3;
	}
	delete rp;
   d527a:	2116      	movs	r1, #22
   d527c:	f002 fc28 	bl	d7ad0 <_ZdlPvj>
	return retval;
}
   d5280:	4620      	mov	r0, r4
   d5282:	bd70      	pop	{r4, r5, r6, pc}
   d5284:	000d83ce 	.word	0x000d83ce

000d5288 <_ZN12FPS_GT521F327Enroll1Ev>:
//	0 - ACK
//	1 - Enroll Failed
//	2 - Bad finger
//	3 - ID in use
int FPS_GT521F32::Enroll1()
{
   d5288:	b570      	push	{r4, r5, r6, lr}
	if (UseSerialDebug) Serial.println("FPS - Enroll1");
   d528a:	7803      	ldrb	r3, [r0, #0]
//	0 - ACK
//	1 - Enroll Failed
//	2 - Bad finger
//	3 - ID in use
int FPS_GT521F32::Enroll1()
{
   d528c:	4604      	mov	r4, r0
	if (UseSerialDebug) Serial.println("FPS - Enroll1");
   d528e:	b123      	cbz	r3, d529a <_ZN12FPS_GT521F327Enroll1Ev+0x12>
   d5290:	f002 f88a 	bl	d73a8 <_Z16_fetch_usbserialv>
   d5294:	491d      	ldr	r1, [pc, #116]	; (d530c <_ZN12FPS_GT521F327Enroll1Ev+0x84>)
   d5296:	f001 fe66 	bl	d6f66 <_ZN5Print7printlnEPKc>
	Command_Packet* cp = new Command_Packet();
   d529a:	2007      	movs	r0, #7
   d529c:	f7fe fefb 	bl	d4096 <_Znwj>
	cp->Command = Command_Packet::Commands::Enroll1;
   d52a0:	2323      	movs	r3, #35	; 0x23
   d52a2:	7003      	strb	r3, [r0, #0]
//	2 - Bad finger
//	3 - ID in use
int FPS_GT521F32::Enroll1()
{
	if (UseSerialDebug) Serial.println("FPS - Enroll1");
	Command_Packet* cp = new Command_Packet();
   d52a4:	4606      	mov	r6, r0
	cp->Command = Command_Packet::Commands::Enroll1;
	byte* packetbytes = cp->GetPacketBytes();
   d52a6:	f7ff fd45 	bl	d4d34 <_ZN14Command_Packet14GetPacketBytesEv>
	delete cp;
   d52aa:	2107      	movs	r1, #7
int FPS_GT521F32::Enroll1()
{
	if (UseSerialDebug) Serial.println("FPS - Enroll1");
	Command_Packet* cp = new Command_Packet();
	cp->Command = Command_Packet::Commands::Enroll1;
	byte* packetbytes = cp->GetPacketBytes();
   d52ac:	4605      	mov	r5, r0
	delete cp;
   d52ae:	4630      	mov	r0, r6
   d52b0:	f002 fc0e 	bl	d7ad0 <_ZdlPvj>
	SendCommand(packetbytes, 12);
   d52b4:	220c      	movs	r2, #12
   d52b6:	4620      	mov	r0, r4
   d52b8:	4629      	mov	r1, r5
   d52ba:	f7ff fe9d 	bl	d4ff8 <_ZN12FPS_GT521F3211SendCommandEPhi>
	delete packetbytes;
   d52be:	2101      	movs	r1, #1
   d52c0:	4628      	mov	r0, r5
   d52c2:	f002 fc05 	bl	d7ad0 <_ZdlPvj>
	Response_Packet* rp = GetResponse();
   d52c6:	4620      	mov	r0, r4
   d52c8:	f7ff feb6 	bl	d5038 <_ZN12FPS_GT521F3211GetResponseEv>
   d52cc:	4605      	mov	r5, r0
	int retval = rp->IntFromParameter();
   d52ce:	f7ff fd61 	bl	d4d94 <_ZN15Response_Packet16IntFromParameterEv>
//Change to  "retval < 3000", if using GT-521F52
//Leave "reval < 200", if using GT-521F32/GT-511C3
	if (retval < 200) retval = 3; else retval = 0;
	if (rp->ACK == false)
   d52d2:	7d2b      	ldrb	r3, [r5, #20]
	delete packetbytes;
	Response_Packet* rp = GetResponse();
	int retval = rp->IntFromParameter();
//Change to  "retval < 3000", if using GT-521F52
//Leave "reval < 200", if using GT-521F32/GT-511C3
	if (retval < 200) retval = 3; else retval = 0;
   d52d4:	28c7      	cmp	r0, #199	; 0xc7
   d52d6:	bfd4      	ite	le
   d52d8:	2403      	movle	r4, #3
   d52da:	2400      	movgt	r4, #0
	if (rp->ACK == false)
   d52dc:	b95b      	cbnz	r3, d52f6 <_ZN12FPS_GT521F327Enroll1Ev+0x6e>
	{
		if (rp->Error == Response_Packet::ErrorCodes::NACK_ENROLL_FAILED) retval = 1;
   d52de:	882b      	ldrh	r3, [r5, #0]
   d52e0:	f241 020d 	movw	r2, #4109	; 0x100d
   d52e4:	4293      	cmp	r3, r2
   d52e6:	d005      	beq.n	d52f4 <_ZN12FPS_GT521F327Enroll1Ev+0x6c>
		if (rp->Error == Response_Packet::ErrorCodes::NACK_BAD_FINGER) retval = 2;
   d52e8:	f241 020c 	movw	r2, #4108	; 0x100c
   d52ec:	4293      	cmp	r3, r2
   d52ee:	bf08      	it	eq
   d52f0:	2402      	moveq	r4, #2
   d52f2:	e000      	b.n	d52f6 <_ZN12FPS_GT521F327Enroll1Ev+0x6e>
//Change to  "retval < 3000", if using GT-521F52
//Leave "reval < 200", if using GT-521F32/GT-511C3
	if (retval < 200) retval = 3; else retval = 0;
	if (rp->ACK == false)
	{
		if (rp->Error == Response_Packet::ErrorCodes::NACK_ENROLL_FAILED) retval = 1;
   d52f4:	2401      	movs	r4, #1
		if (rp->Error == Response_Packet::ErrorCodes::NACK_BAD_FINGER) retval = 2;
	}
	delete rp;
   d52f6:	4628      	mov	r0, r5
   d52f8:	2116      	movs	r1, #22
   d52fa:	f002 fbe9 	bl	d7ad0 <_ZdlPvj>
	if (rp->ACK) return 0; else return retval;
   d52fe:	7d2b      	ldrb	r3, [r5, #20]
   d5300:	2b00      	cmp	r3, #0
}
   d5302:	bf0c      	ite	eq
   d5304:	4620      	moveq	r0, r4
   d5306:	2000      	movne	r0, #0
   d5308:	bd70      	pop	{r4, r5, r6, pc}
   d530a:	bf00      	nop
   d530c:	000d83e0 	.word	0x000d83e0

000d5310 <_ZN12FPS_GT521F327Enroll2Ev>:
//	0 - ACK
//	1 - Enroll Failed
//	2 - Bad finger
//	3 - ID in use
int FPS_GT521F32::Enroll2()
{
   d5310:	b570      	push	{r4, r5, r6, lr}
	if (UseSerialDebug) Serial.println("FPS - Enroll2");
   d5312:	7803      	ldrb	r3, [r0, #0]
//	0 - ACK
//	1 - Enroll Failed
//	2 - Bad finger
//	3 - ID in use
int FPS_GT521F32::Enroll2()
{
   d5314:	4604      	mov	r4, r0
	if (UseSerialDebug) Serial.println("FPS - Enroll2");
   d5316:	b123      	cbz	r3, d5322 <_ZN12FPS_GT521F327Enroll2Ev+0x12>
   d5318:	f002 f846 	bl	d73a8 <_Z16_fetch_usbserialv>
   d531c:	491d      	ldr	r1, [pc, #116]	; (d5394 <_ZN12FPS_GT521F327Enroll2Ev+0x84>)
   d531e:	f001 fe22 	bl	d6f66 <_ZN5Print7printlnEPKc>
	Command_Packet* cp = new Command_Packet();
   d5322:	2007      	movs	r0, #7
   d5324:	f7fe feb7 	bl	d4096 <_Znwj>
	cp->Command = Command_Packet::Commands::Enroll2;
   d5328:	2324      	movs	r3, #36	; 0x24
   d532a:	7003      	strb	r3, [r0, #0]
//	2 - Bad finger
//	3 - ID in use
int FPS_GT521F32::Enroll2()
{
	if (UseSerialDebug) Serial.println("FPS - Enroll2");
	Command_Packet* cp = new Command_Packet();
   d532c:	4606      	mov	r6, r0
	cp->Command = Command_Packet::Commands::Enroll2;
	byte* packetbytes = cp->GetPacketBytes();
   d532e:	f7ff fd01 	bl	d4d34 <_ZN14Command_Packet14GetPacketBytesEv>
	delete cp;
   d5332:	2107      	movs	r1, #7
int FPS_GT521F32::Enroll2()
{
	if (UseSerialDebug) Serial.println("FPS - Enroll2");
	Command_Packet* cp = new Command_Packet();
	cp->Command = Command_Packet::Commands::Enroll2;
	byte* packetbytes = cp->GetPacketBytes();
   d5334:	4605      	mov	r5, r0
	delete cp;
   d5336:	4630      	mov	r0, r6
   d5338:	f002 fbca 	bl	d7ad0 <_ZdlPvj>
	SendCommand(packetbytes, 12);
   d533c:	220c      	movs	r2, #12
   d533e:	4620      	mov	r0, r4
   d5340:	4629      	mov	r1, r5
   d5342:	f7ff fe59 	bl	d4ff8 <_ZN12FPS_GT521F3211SendCommandEPhi>
	delete packetbytes;
   d5346:	2101      	movs	r1, #1
   d5348:	4628      	mov	r0, r5
   d534a:	f002 fbc1 	bl	d7ad0 <_ZdlPvj>
	Response_Packet* rp = GetResponse();
   d534e:	4620      	mov	r0, r4
   d5350:	f7ff fe72 	bl	d5038 <_ZN12FPS_GT521F3211GetResponseEv>
   d5354:	4605      	mov	r5, r0
	int retval = rp->IntFromParameter();
   d5356:	f7ff fd1d 	bl	d4d94 <_ZN15Response_Packet16IntFromParameterEv>
//Change to "retval < 3000", if using GT-521F52
//Leave "reval < 200", if using GT-521F32/GT-511C3
	if (retval < 200) retval = 3; else retval = 0;
	if (rp->ACK == false)
   d535a:	7d2b      	ldrb	r3, [r5, #20]
	delete packetbytes;
	Response_Packet* rp = GetResponse();
	int retval = rp->IntFromParameter();
//Change to "retval < 3000", if using GT-521F52
//Leave "reval < 200", if using GT-521F32/GT-511C3
	if (retval < 200) retval = 3; else retval = 0;
   d535c:	28c7      	cmp	r0, #199	; 0xc7
   d535e:	bfd4      	ite	le
   d5360:	2403      	movle	r4, #3
   d5362:	2400      	movgt	r4, #0
	if (rp->ACK == false)
   d5364:	b95b      	cbnz	r3, d537e <_ZN12FPS_GT521F327Enroll2Ev+0x6e>
	{
		if (rp->Error == Response_Packet::ErrorCodes::NACK_ENROLL_FAILED) retval = 1;
   d5366:	882b      	ldrh	r3, [r5, #0]
   d5368:	f241 020d 	movw	r2, #4109	; 0x100d
   d536c:	4293      	cmp	r3, r2
   d536e:	d005      	beq.n	d537c <_ZN12FPS_GT521F327Enroll2Ev+0x6c>
		if (rp->Error == Response_Packet::ErrorCodes::NACK_BAD_FINGER) retval = 2;
   d5370:	f241 020c 	movw	r2, #4108	; 0x100c
   d5374:	4293      	cmp	r3, r2
   d5376:	bf08      	it	eq
   d5378:	2402      	moveq	r4, #2
   d537a:	e000      	b.n	d537e <_ZN12FPS_GT521F327Enroll2Ev+0x6e>
//Change to "retval < 3000", if using GT-521F52
//Leave "reval < 200", if using GT-521F32/GT-511C3
	if (retval < 200) retval = 3; else retval = 0;
	if (rp->ACK == false)
	{
		if (rp->Error == Response_Packet::ErrorCodes::NACK_ENROLL_FAILED) retval = 1;
   d537c:	2401      	movs	r4, #1
		if (rp->Error == Response_Packet::ErrorCodes::NACK_BAD_FINGER) retval = 2;
	}
	delete rp;
   d537e:	4628      	mov	r0, r5
   d5380:	2116      	movs	r1, #22
   d5382:	f002 fba5 	bl	d7ad0 <_ZdlPvj>
	if (rp->ACK) return 0; else return retval;
   d5386:	7d2b      	ldrb	r3, [r5, #20]
   d5388:	2b00      	cmp	r3, #0
}
   d538a:	bf0c      	ite	eq
   d538c:	4620      	moveq	r0, r4
   d538e:	2000      	movne	r0, #0
   d5390:	bd70      	pop	{r4, r5, r6, pc}
   d5392:	bf00      	nop
   d5394:	000d83ee 	.word	0x000d83ee

000d5398 <_ZN12FPS_GT521F327Enroll3Ev>:
//	0 - ACK
//	1 - Enroll Failed
//	2 - Bad finger
//	3 - ID in use
int FPS_GT521F32::Enroll3()
{
   d5398:	b570      	push	{r4, r5, r6, lr}
	if (UseSerialDebug) Serial.println("FPS - Enroll3");
   d539a:	7803      	ldrb	r3, [r0, #0]
//	0 - ACK
//	1 - Enroll Failed
//	2 - Bad finger
//	3 - ID in use
int FPS_GT521F32::Enroll3()
{
   d539c:	4604      	mov	r4, r0
	if (UseSerialDebug) Serial.println("FPS - Enroll3");
   d539e:	b123      	cbz	r3, d53aa <_ZN12FPS_GT521F327Enroll3Ev+0x12>
   d53a0:	f002 f802 	bl	d73a8 <_Z16_fetch_usbserialv>
   d53a4:	491d      	ldr	r1, [pc, #116]	; (d541c <_ZN12FPS_GT521F327Enroll3Ev+0x84>)
   d53a6:	f001 fdde 	bl	d6f66 <_ZN5Print7printlnEPKc>
	Command_Packet* cp = new Command_Packet();
   d53aa:	2007      	movs	r0, #7
   d53ac:	f7fe fe73 	bl	d4096 <_Znwj>
	cp->Command = Command_Packet::Commands::Enroll3;
   d53b0:	2325      	movs	r3, #37	; 0x25
   d53b2:	7003      	strb	r3, [r0, #0]
//	2 - Bad finger
//	3 - ID in use
int FPS_GT521F32::Enroll3()
{
	if (UseSerialDebug) Serial.println("FPS - Enroll3");
	Command_Packet* cp = new Command_Packet();
   d53b4:	4606      	mov	r6, r0
	cp->Command = Command_Packet::Commands::Enroll3;
	byte* packetbytes = cp->GetPacketBytes();
   d53b6:	f7ff fcbd 	bl	d4d34 <_ZN14Command_Packet14GetPacketBytesEv>
	delete cp;
   d53ba:	2107      	movs	r1, #7
int FPS_GT521F32::Enroll3()
{
	if (UseSerialDebug) Serial.println("FPS - Enroll3");
	Command_Packet* cp = new Command_Packet();
	cp->Command = Command_Packet::Commands::Enroll3;
	byte* packetbytes = cp->GetPacketBytes();
   d53bc:	4605      	mov	r5, r0
	delete cp;
   d53be:	4630      	mov	r0, r6
   d53c0:	f002 fb86 	bl	d7ad0 <_ZdlPvj>
	SendCommand(packetbytes, 12);
   d53c4:	220c      	movs	r2, #12
   d53c6:	4620      	mov	r0, r4
   d53c8:	4629      	mov	r1, r5
   d53ca:	f7ff fe15 	bl	d4ff8 <_ZN12FPS_GT521F3211SendCommandEPhi>
	delete packetbytes;
   d53ce:	2101      	movs	r1, #1
   d53d0:	4628      	mov	r0, r5
   d53d2:	f002 fb7d 	bl	d7ad0 <_ZdlPvj>
	Response_Packet* rp = GetResponse();
   d53d6:	4620      	mov	r0, r4
   d53d8:	f7ff fe2e 	bl	d5038 <_ZN12FPS_GT521F3211GetResponseEv>
   d53dc:	4605      	mov	r5, r0
	int retval = rp->IntFromParameter();
   d53de:	f7ff fcd9 	bl	d4d94 <_ZN15Response_Packet16IntFromParameterEv>
//Change to "retval < 3000", if using GT-521F52
//Leave "reval < 200", if using GT-521F32/GT-511C3
        if (retval < 200) retval = 3; else retval = 0;
	if (rp->ACK == false)
   d53e2:	7d2b      	ldrb	r3, [r5, #20]
	delete packetbytes;
	Response_Packet* rp = GetResponse();
	int retval = rp->IntFromParameter();
//Change to "retval < 3000", if using GT-521F52
//Leave "reval < 200", if using GT-521F32/GT-511C3
        if (retval < 200) retval = 3; else retval = 0;
   d53e4:	28c7      	cmp	r0, #199	; 0xc7
   d53e6:	bfd4      	ite	le
   d53e8:	2403      	movle	r4, #3
   d53ea:	2400      	movgt	r4, #0
	if (rp->ACK == false)
   d53ec:	b95b      	cbnz	r3, d5406 <_ZN12FPS_GT521F327Enroll3Ev+0x6e>
	{
		if (rp->Error == Response_Packet::ErrorCodes::NACK_ENROLL_FAILED) retval = 1;
   d53ee:	882b      	ldrh	r3, [r5, #0]
   d53f0:	f241 020d 	movw	r2, #4109	; 0x100d
   d53f4:	4293      	cmp	r3, r2
   d53f6:	d005      	beq.n	d5404 <_ZN12FPS_GT521F327Enroll3Ev+0x6c>
		if (rp->Error == Response_Packet::ErrorCodes::NACK_BAD_FINGER) retval = 2;
   d53f8:	f241 020c 	movw	r2, #4108	; 0x100c
   d53fc:	4293      	cmp	r3, r2
   d53fe:	bf08      	it	eq
   d5400:	2402      	moveq	r4, #2
   d5402:	e000      	b.n	d5406 <_ZN12FPS_GT521F327Enroll3Ev+0x6e>
//Change to "retval < 3000", if using GT-521F52
//Leave "reval < 200", if using GT-521F32/GT-511C3
        if (retval < 200) retval = 3; else retval = 0;
	if (rp->ACK == false)
	{
		if (rp->Error == Response_Packet::ErrorCodes::NACK_ENROLL_FAILED) retval = 1;
   d5404:	2401      	movs	r4, #1
		if (rp->Error == Response_Packet::ErrorCodes::NACK_BAD_FINGER) retval = 2;
	}
	delete rp;
   d5406:	4628      	mov	r0, r5
   d5408:	2116      	movs	r1, #22
   d540a:	f002 fb61 	bl	d7ad0 <_ZdlPvj>
	if (rp->ACK) return 0; else return retval;
   d540e:	7d2b      	ldrb	r3, [r5, #20]
   d5410:	2b00      	cmp	r3, #0
}
   d5412:	bf0c      	ite	eq
   d5414:	4620      	moveq	r0, r4
   d5416:	2000      	movne	r0, #0
   d5418:	bd70      	pop	{r4, r5, r6, pc}
   d541a:	bf00      	nop
   d541c:	000d83fc 	.word	0x000d83fc

000d5420 <_ZN12FPS_GT521F3213IsPressFingerEv>:

// Checks to see if a finger is pressed on the FPS
// Return: true if finger pressed, false if not
bool FPS_GT521F32::IsPressFinger()
{
   d5420:	b570      	push	{r4, r5, r6, lr}
   d5422:	4605      	mov	r5, r0
	//if (UseSerialDebug) Serial.println("FPS - IsPressFinger");
	Command_Packet* cp = new Command_Packet();
   d5424:	2007      	movs	r0, #7
   d5426:	f7fe fe36 	bl	d4096 <_Znwj>
	cp->Command = Command_Packet::Commands::IsPressFinger;
   d542a:	2326      	movs	r3, #38	; 0x26
   d542c:	7003      	strb	r3, [r0, #0]
// Checks to see if a finger is pressed on the FPS
// Return: true if finger pressed, false if not
bool FPS_GT521F32::IsPressFinger()
{
	//if (UseSerialDebug) Serial.println("FPS - IsPressFinger");
	Command_Packet* cp = new Command_Packet();
   d542e:	4606      	mov	r6, r0
	cp->Command = Command_Packet::Commands::IsPressFinger;
	byte* packetbytes = cp->GetPacketBytes();
   d5430:	f7ff fc80 	bl	d4d34 <_ZN14Command_Packet14GetPacketBytesEv>
	delete cp;
   d5434:	2107      	movs	r1, #7
bool FPS_GT521F32::IsPressFinger()
{
	//if (UseSerialDebug) Serial.println("FPS - IsPressFinger");
	Command_Packet* cp = new Command_Packet();
	cp->Command = Command_Packet::Commands::IsPressFinger;
	byte* packetbytes = cp->GetPacketBytes();
   d5436:	4604      	mov	r4, r0
	delete cp;
   d5438:	4630      	mov	r0, r6
   d543a:	f002 fb49 	bl	d7ad0 <_ZdlPvj>
	SendCommand(packetbytes, 12);
   d543e:	4628      	mov	r0, r5
   d5440:	4621      	mov	r1, r4
   d5442:	220c      	movs	r2, #12
   d5444:	f7ff fdd8 	bl	d4ff8 <_ZN12FPS_GT521F3211SendCommandEPhi>
	Response_Packet* rp = GetResponse();
   d5448:	4628      	mov	r0, r5
   d544a:	f7ff fdf5 	bl	d5038 <_ZN12FPS_GT521F3211GetResponseEv>
	bool retval = false;
	int pval = rp->ParameterBytes[0];
	pval += rp->ParameterBytes[1];
   d544e:	7bc1      	ldrb	r1, [r0, #15]
	byte* packetbytes = cp->GetPacketBytes();
	delete cp;
	SendCommand(packetbytes, 12);
	Response_Packet* rp = GetResponse();
	bool retval = false;
	int pval = rp->ParameterBytes[0];
   d5450:	7b83      	ldrb	r3, [r0, #14]
	pval += rp->ParameterBytes[1];
	pval += rp->ParameterBytes[2];
	pval += rp->ParameterBytes[3];
	if (pval == 0) retval = true;
   d5452:	7c42      	ldrb	r2, [r0, #17]
	delete cp;
	SendCommand(packetbytes, 12);
	Response_Packet* rp = GetResponse();
	bool retval = false;
	int pval = rp->ParameterBytes[0];
	pval += rp->ParameterBytes[1];
   d5454:	440b      	add	r3, r1
	pval += rp->ParameterBytes[2];
   d5456:	7c01      	ldrb	r1, [r0, #16]
   d5458:	440b      	add	r3, r1
	pval += rp->ParameterBytes[3];
	if (pval == 0) retval = true;
   d545a:	42da      	cmn	r2, r3
	delete rp;
   d545c:	f04f 0116 	mov.w	r1, #22
	bool retval = false;
	int pval = rp->ParameterBytes[0];
	pval += rp->ParameterBytes[1];
	pval += rp->ParameterBytes[2];
	pval += rp->ParameterBytes[3];
	if (pval == 0) retval = true;
   d5460:	bf0c      	ite	eq
   d5462:	2501      	moveq	r5, #1
   d5464:	2500      	movne	r5, #0
	delete rp;
   d5466:	f002 fb33 	bl	d7ad0 <_ZdlPvj>
	delete packetbytes;
   d546a:	4620      	mov	r0, r4
   d546c:	2101      	movs	r1, #1
   d546e:	f002 fb2f 	bl	d7ad0 <_ZdlPvj>
	return retval;
}
   d5472:	4628      	mov	r0, r5
   d5474:	bd70      	pop	{r4, r5, r6, pc}
	...

000d5478 <_ZN12FPS_GT521F328DeleteIDEi>:
// Deletes the specified ID (enrollment) from the database
// Parameter: 0-2999, if using GT-521F52 (id number to be deleted)
//            0-199, if using GT-521F32/GT-511C3(id number to be deleted)
// Returns: true if successful, false if position invalid
bool FPS_GT521F32::DeleteID(int id)
{
   d5478:	b570      	push	{r4, r5, r6, lr}
	if (UseSerialDebug) Serial.println("FPS - DeleteID");
   d547a:	7803      	ldrb	r3, [r0, #0]
// Deletes the specified ID (enrollment) from the database
// Parameter: 0-2999, if using GT-521F52 (id number to be deleted)
//            0-199, if using GT-521F32/GT-511C3(id number to be deleted)
// Returns: true if successful, false if position invalid
bool FPS_GT521F32::DeleteID(int id)
{
   d547c:	4604      	mov	r4, r0
   d547e:	460e      	mov	r6, r1
	if (UseSerialDebug) Serial.println("FPS - DeleteID");
   d5480:	b123      	cbz	r3, d548c <_ZN12FPS_GT521F328DeleteIDEi+0x14>
   d5482:	f001 ff91 	bl	d73a8 <_Z16_fetch_usbserialv>
   d5486:	4912      	ldr	r1, [pc, #72]	; (d54d0 <_ZN12FPS_GT521F328DeleteIDEi+0x58>)
   d5488:	f001 fd6d 	bl	d6f66 <_ZN5Print7printlnEPKc>
	Command_Packet* cp = new Command_Packet();
   d548c:	2007      	movs	r0, #7
   d548e:	f7fe fe02 	bl	d4096 <_Znwj>
	cp->Command = Command_Packet::Commands::DeleteID;
   d5492:	2340      	movs	r3, #64	; 0x40
   d5494:	7003      	strb	r3, [r0, #0]
	cp->ParameterFromInt(id);
   d5496:	4631      	mov	r1, r6
//            0-199, if using GT-521F32/GT-511C3(id number to be deleted)
// Returns: true if successful, false if position invalid
bool FPS_GT521F32::DeleteID(int id)
{
	if (UseSerialDebug) Serial.println("FPS - DeleteID");
	Command_Packet* cp = new Command_Packet();
   d5498:	4605      	mov	r5, r0
	cp->Command = Command_Packet::Commands::DeleteID;
	cp->ParameterFromInt(id);
   d549a:	f7ff fc35 	bl	d4d08 <_ZN14Command_Packet16ParameterFromIntEi>
	byte* packetbytes = cp->GetPacketBytes();
   d549e:	f7ff fc49 	bl	d4d34 <_ZN14Command_Packet14GetPacketBytesEv>
	delete cp;
   d54a2:	2107      	movs	r1, #7
{
	if (UseSerialDebug) Serial.println("FPS - DeleteID");
	Command_Packet* cp = new Command_Packet();
	cp->Command = Command_Packet::Commands::DeleteID;
	cp->ParameterFromInt(id);
	byte* packetbytes = cp->GetPacketBytes();
   d54a4:	4606      	mov	r6, r0
	delete cp;
   d54a6:	4628      	mov	r0, r5
   d54a8:	f002 fb12 	bl	d7ad0 <_ZdlPvj>
	SendCommand(packetbytes, 12);
   d54ac:	220c      	movs	r2, #12
   d54ae:	4631      	mov	r1, r6
   d54b0:	4620      	mov	r0, r4
   d54b2:	f7ff fda1 	bl	d4ff8 <_ZN12FPS_GT521F3211SendCommandEPhi>
	Response_Packet* rp = GetResponse();
   d54b6:	4620      	mov	r0, r4
   d54b8:	f7ff fdbe 	bl	d5038 <_ZN12FPS_GT521F3211GetResponseEv>
	bool retval = rp->ACK;
	delete rp;
   d54bc:	2116      	movs	r1, #22
	cp->ParameterFromInt(id);
	byte* packetbytes = cp->GetPacketBytes();
	delete cp;
	SendCommand(packetbytes, 12);
	Response_Packet* rp = GetResponse();
	bool retval = rp->ACK;
   d54be:	7d04      	ldrb	r4, [r0, #20]
	delete rp;
   d54c0:	f002 fb06 	bl	d7ad0 <_ZdlPvj>
	delete packetbytes;
   d54c4:	4630      	mov	r0, r6
   d54c6:	2101      	movs	r1, #1
   d54c8:	f002 fb02 	bl	d7ad0 <_ZdlPvj>
	return retval;
}
   d54cc:	4620      	mov	r0, r4
   d54ce:	bd70      	pop	{r4, r5, r6, pc}
   d54d0:	000d840a 	.word	0x000d840a

000d54d4 <_ZN12FPS_GT521F3211Identify1_NEv>:
//           0-199, if using GT-521F32/GT-511C3
//      Failed to find the fingerprint in the database
// 	     3000, if using GT-521F52
//           200, if using GT-521F32/GT-511C3
int FPS_GT521F32::Identify1_N()
{
   d54d4:	b570      	push	{r4, r5, r6, lr}
	if (UseSerialDebug) Serial.println("FPS - Identify1_N");
   d54d6:	7803      	ldrb	r3, [r0, #0]
//           0-199, if using GT-521F32/GT-511C3
//      Failed to find the fingerprint in the database
// 	     3000, if using GT-521F52
//           200, if using GT-521F32/GT-511C3
int FPS_GT521F32::Identify1_N()
{
   d54d8:	4604      	mov	r4, r0
	if (UseSerialDebug) Serial.println("FPS - Identify1_N");
   d54da:	b123      	cbz	r3, d54e6 <_ZN12FPS_GT521F3211Identify1_NEv+0x12>
   d54dc:	f001 ff64 	bl	d73a8 <_Z16_fetch_usbserialv>
   d54e0:	4914      	ldr	r1, [pc, #80]	; (d5534 <_ZN12FPS_GT521F3211Identify1_NEv+0x60>)
   d54e2:	f001 fd40 	bl	d6f66 <_ZN5Print7printlnEPKc>
	Command_Packet* cp = new Command_Packet();
   d54e6:	2007      	movs	r0, #7
   d54e8:	f7fe fdd5 	bl	d4096 <_Znwj>
	cp->Command = Command_Packet::Commands::Identify1_N;
   d54ec:	2351      	movs	r3, #81	; 0x51
   d54ee:	7003      	strb	r3, [r0, #0]
// 	     3000, if using GT-521F52
//           200, if using GT-521F32/GT-511C3
int FPS_GT521F32::Identify1_N()
{
	if (UseSerialDebug) Serial.println("FPS - Identify1_N");
	Command_Packet* cp = new Command_Packet();
   d54f0:	4606      	mov	r6, r0
	cp->Command = Command_Packet::Commands::Identify1_N;
	byte* packetbytes = cp->GetPacketBytes();
   d54f2:	f7ff fc1f 	bl	d4d34 <_ZN14Command_Packet14GetPacketBytesEv>
	delete cp;
   d54f6:	2107      	movs	r1, #7
int FPS_GT521F32::Identify1_N()
{
	if (UseSerialDebug) Serial.println("FPS - Identify1_N");
	Command_Packet* cp = new Command_Packet();
	cp->Command = Command_Packet::Commands::Identify1_N;
	byte* packetbytes = cp->GetPacketBytes();
   d54f8:	4605      	mov	r5, r0
	delete cp;
   d54fa:	4630      	mov	r0, r6
   d54fc:	f002 fae8 	bl	d7ad0 <_ZdlPvj>
	SendCommand(packetbytes, 12);
   d5500:	220c      	movs	r2, #12
   d5502:	4629      	mov	r1, r5
   d5504:	4620      	mov	r0, r4
   d5506:	f7ff fd77 	bl	d4ff8 <_ZN12FPS_GT521F3211SendCommandEPhi>
	Response_Packet* rp = GetResponse();
   d550a:	4620      	mov	r0, r4
   d550c:	f7ff fd94 	bl	d5038 <_ZN12FPS_GT521F3211GetResponseEv>
   d5510:	4606      	mov	r6, r0
	int retval = rp->IntFromParameter();
   d5512:	f7ff fc3f 	bl	d4d94 <_ZN15Response_Packet16IntFromParameterEv>
//Change to "retval > 3000" and "retval = 3000", if using GT-521F52
//Leave "reval > 200" and "retval = 200", if using GT-521F32/GT-511C3
	if (retval > 200) retval = 200;
	delete rp;
   d5516:	2116      	movs	r1, #22
	cp->Command = Command_Packet::Commands::Identify1_N;
	byte* packetbytes = cp->GetPacketBytes();
	delete cp;
	SendCommand(packetbytes, 12);
	Response_Packet* rp = GetResponse();
	int retval = rp->IntFromParameter();
   d5518:	4604      	mov	r4, r0
//Change to "retval > 3000" and "retval = 3000", if using GT-521F52
//Leave "reval > 200" and "retval = 200", if using GT-521F32/GT-511C3
	if (retval > 200) retval = 200;
	delete rp;
   d551a:	4630      	mov	r0, r6
   d551c:	f002 fad8 	bl	d7ad0 <_ZdlPvj>
	delete packetbytes;
   d5520:	4628      	mov	r0, r5
   d5522:	2101      	movs	r1, #1
   d5524:	f002 fad4 	bl	d7ad0 <_ZdlPvj>
	return retval;
}
   d5528:	2cc8      	cmp	r4, #200	; 0xc8
   d552a:	4620      	mov	r0, r4
   d552c:	bfa8      	it	ge
   d552e:	20c8      	movge	r0, #200	; 0xc8
   d5530:	bd70      	pop	{r4, r5, r6, pc}
   d5532:	bf00      	nop
   d5534:	000d8439 	.word	0x000d8439

000d5538 <_ZN12FPS_GT521F3213CaptureFingerEb>:
// Captures the currently pressed finger into onboard ram use this prior to other commands
// Parameter: true for high quality image(slower), false for low quality image (faster)
// Generally, use high quality for enrollment, and low quality for verification/identification
// Returns: True if ok, false if no finger pressed
bool FPS_GT521F32::CaptureFinger(bool highquality)
{
   d5538:	b570      	push	{r4, r5, r6, lr}
	if (UseSerialDebug) Serial.println("FPS - CaptureFinger");
   d553a:	7803      	ldrb	r3, [r0, #0]
// Captures the currently pressed finger into onboard ram use this prior to other commands
// Parameter: true for high quality image(slower), false for low quality image (faster)
// Generally, use high quality for enrollment, and low quality for verification/identification
// Returns: True if ok, false if no finger pressed
bool FPS_GT521F32::CaptureFinger(bool highquality)
{
   d553c:	4606      	mov	r6, r0
   d553e:	460d      	mov	r5, r1
	if (UseSerialDebug) Serial.println("FPS - CaptureFinger");
   d5540:	b123      	cbz	r3, d554c <_ZN12FPS_GT521F3213CaptureFingerEb+0x14>
   d5542:	f001 ff31 	bl	d73a8 <_Z16_fetch_usbserialv>
   d5546:	4917      	ldr	r1, [pc, #92]	; (d55a4 <_ZN12FPS_GT521F3213CaptureFingerEb+0x6c>)
   d5548:	f001 fd0d 	bl	d6f66 <_ZN5Print7printlnEPKc>
	Command_Packet* cp = new Command_Packet();
   d554c:	2007      	movs	r0, #7
   d554e:	f7fe fda2 	bl	d4096 <_Znwj>
	cp->Command = Command_Packet::Commands::CaptureFinger;
   d5552:	2360      	movs	r3, #96	; 0x60
// Generally, use high quality for enrollment, and low quality for verification/identification
// Returns: True if ok, false if no finger pressed
bool FPS_GT521F32::CaptureFinger(bool highquality)
{
	if (UseSerialDebug) Serial.println("FPS - CaptureFinger");
	Command_Packet* cp = new Command_Packet();
   d5554:	4604      	mov	r4, r0
	cp->Command = Command_Packet::Commands::CaptureFinger;
   d5556:	7003      	strb	r3, [r0, #0]
	if (highquality)
   d5558:	b135      	cbz	r5, d5568 <_ZN12FPS_GT521F3213CaptureFingerEb+0x30>
}

// Converts the int to bytes and puts them into the paramter array
void Command_Packet::ParameterFromInt(int i)
{
	Parameter[0] = (i & 0x000000ff);
   d555a:	2301      	movs	r3, #1
   d555c:	7043      	strb	r3, [r0, #1]
	Parameter[1] = (i & 0x0000ff00) >> 8;
   d555e:	2300      	movs	r3, #0
   d5560:	7083      	strb	r3, [r0, #2]
	Parameter[2] = (i & 0x00ff0000) >> 16;
   d5562:	70c3      	strb	r3, [r0, #3]
	Parameter[3] = (i & 0xff000000) >> 24;
   d5564:	7103      	strb	r3, [r0, #4]
   d5566:	e003      	b.n	d5570 <_ZN12FPS_GT521F3213CaptureFingerEb+0x38>
}

// Converts the int to bytes and puts them into the paramter array
void Command_Packet::ParameterFromInt(int i)
{
	Parameter[0] = (i & 0x000000ff);
   d5568:	7045      	strb	r5, [r0, #1]
	Parameter[1] = (i & 0x0000ff00) >> 8;
   d556a:	7085      	strb	r5, [r0, #2]
	Parameter[2] = (i & 0x00ff0000) >> 16;
   d556c:	70c5      	strb	r5, [r0, #3]
	Parameter[3] = (i & 0xff000000) >> 24;
   d556e:	7105      	strb	r5, [r0, #4]
	}
	else
	{
		cp->ParameterFromInt(0);
	}
	byte* packetbytes = cp->GetPacketBytes();
   d5570:	4620      	mov	r0, r4
   d5572:	f7ff fbdf 	bl	d4d34 <_ZN14Command_Packet14GetPacketBytesEv>
	delete cp;
   d5576:	2107      	movs	r1, #7
	}
	else
	{
		cp->ParameterFromInt(0);
	}
	byte* packetbytes = cp->GetPacketBytes();
   d5578:	4605      	mov	r5, r0
	delete cp;
   d557a:	4620      	mov	r0, r4
   d557c:	f002 faa8 	bl	d7ad0 <_ZdlPvj>
	SendCommand(packetbytes, 12);
   d5580:	220c      	movs	r2, #12
   d5582:	4629      	mov	r1, r5
   d5584:	4630      	mov	r0, r6
   d5586:	f7ff fd37 	bl	d4ff8 <_ZN12FPS_GT521F3211SendCommandEPhi>
	Response_Packet* rp = GetResponse();
   d558a:	4630      	mov	r0, r6
   d558c:	f7ff fd54 	bl	d5038 <_ZN12FPS_GT521F3211GetResponseEv>
	bool retval = rp->ACK;
	delete rp;
   d5590:	2116      	movs	r1, #22
	}
	byte* packetbytes = cp->GetPacketBytes();
	delete cp;
	SendCommand(packetbytes, 12);
	Response_Packet* rp = GetResponse();
	bool retval = rp->ACK;
   d5592:	7d04      	ldrb	r4, [r0, #20]
	delete rp;
   d5594:	f002 fa9c 	bl	d7ad0 <_ZdlPvj>
	delete packetbytes;
   d5598:	4628      	mov	r0, r5
   d559a:	2101      	movs	r1, #1
   d559c:	f002 fa98 	bl	d7ad0 <_ZdlPvj>
	return retval;

}
   d55a0:	4620      	mov	r0, r4
   d55a2:	bd70      	pop	{r4, r5, r6, pc}
   d55a4:	000d844b 	.word	0x000d844b

000d55a8 <_GLOBAL__sub_I__ZN14Command_Packet14GetPacketBytesEv>:
   d55a8:	f000 b810 	b.w	d55cc <HAL_Pin_Map>

000d55ac <netdb_freeaddrinfo>:

DYNALIB_BEGIN(hal_netdb)

DYNALIB_FN(0, hal_netdb, netdb_gethostbyname, struct hostent*(const char*))
DYNALIB_FN(1, hal_netdb, netdb_gethostbyname_r, int(const char*, struct hostent*, char*, size_t, struct hostent**, int*))
DYNALIB_FN(2, hal_netdb, netdb_freeaddrinfo, void(struct addrinfo*))
   d55ac:	b508      	push	{r3, lr}
   d55ae:	4b02      	ldr	r3, [pc, #8]	; (d55b8 <netdb_freeaddrinfo+0xc>)
   d55b0:	681b      	ldr	r3, [r3, #0]
   d55b2:	689b      	ldr	r3, [r3, #8]
   d55b4:	9301      	str	r3, [sp, #4]
   d55b6:	bd08      	pop	{r3, pc}
   d55b8:	00030268 	.word	0x00030268

000d55bc <netdb_getaddrinfo>:
DYNALIB_FN(3, hal_netdb, netdb_getaddrinfo, int(const char*, const char*, const struct addrinfo*, struct addrinfo**))
   d55bc:	b508      	push	{r3, lr}
   d55be:	4b02      	ldr	r3, [pc, #8]	; (d55c8 <netdb_getaddrinfo+0xc>)
   d55c0:	681b      	ldr	r3, [r3, #0]
   d55c2:	68db      	ldr	r3, [r3, #12]
   d55c4:	9301      	str	r3, [sp, #4]
   d55c6:	bd08      	pop	{r3, pc}
   d55c8:	00030268 	.word	0x00030268

000d55cc <HAL_Pin_Map>:
// New HAL functions must be added to the end of this list.
// GNINRAW

DYNALIB_BEGIN(hal_gpio)

DYNALIB_FN(0, hal_gpio, HAL_Pin_Map, Hal_Pin_Info*(void))
   d55cc:	b508      	push	{r3, lr}
   d55ce:	4b02      	ldr	r3, [pc, #8]	; (d55d8 <HAL_Pin_Map+0xc>)
   d55d0:	681b      	ldr	r3, [r3, #0]
   d55d2:	681b      	ldr	r3, [r3, #0]
   d55d4:	9301      	str	r3, [sp, #4]
   d55d6:	bd08      	pop	{r3, pc}
   d55d8:	0003022c 	.word	0x0003022c

000d55dc <HAL_Validate_Pin_Function>:
DYNALIB_FN(1, hal_gpio, HAL_Validate_Pin_Function, PinFunction(pin_t, PinFunction))
   d55dc:	b508      	push	{r3, lr}
   d55de:	4b02      	ldr	r3, [pc, #8]	; (d55e8 <HAL_Validate_Pin_Function+0xc>)
   d55e0:	681b      	ldr	r3, [r3, #0]
   d55e2:	685b      	ldr	r3, [r3, #4]
   d55e4:	9301      	str	r3, [sp, #4]
   d55e6:	bd08      	pop	{r3, pc}
   d55e8:	0003022c 	.word	0x0003022c

000d55ec <HAL_Pin_Mode>:
DYNALIB_FN(2, hal_gpio, HAL_Pin_Mode, void(pin_t, PinMode))
   d55ec:	b508      	push	{r3, lr}
   d55ee:	4b02      	ldr	r3, [pc, #8]	; (d55f8 <HAL_Pin_Mode+0xc>)
   d55f0:	681b      	ldr	r3, [r3, #0]
   d55f2:	689b      	ldr	r3, [r3, #8]
   d55f4:	9301      	str	r3, [sp, #4]
   d55f6:	bd08      	pop	{r3, pc}
   d55f8:	0003022c 	.word	0x0003022c

000d55fc <HAL_Get_Pin_Mode>:
DYNALIB_FN(3, hal_gpio, HAL_Get_Pin_Mode, PinMode(pin_t))
   d55fc:	b508      	push	{r3, lr}
   d55fe:	4b02      	ldr	r3, [pc, #8]	; (d5608 <HAL_Get_Pin_Mode+0xc>)
   d5600:	681b      	ldr	r3, [r3, #0]
   d5602:	68db      	ldr	r3, [r3, #12]
   d5604:	9301      	str	r3, [sp, #4]
   d5606:	bd08      	pop	{r3, pc}
   d5608:	0003022c 	.word	0x0003022c

000d560c <HAL_GPIO_Write>:
DYNALIB_FN(4, hal_gpio, HAL_GPIO_Write, void(pin_t, uint8_t))
   d560c:	b508      	push	{r3, lr}
   d560e:	4b02      	ldr	r3, [pc, #8]	; (d5618 <HAL_GPIO_Write+0xc>)
   d5610:	681b      	ldr	r3, [r3, #0]
   d5612:	691b      	ldr	r3, [r3, #16]
   d5614:	9301      	str	r3, [sp, #4]
   d5616:	bd08      	pop	{r3, pc}
   d5618:	0003022c 	.word	0x0003022c

000d561c <HAL_GPIO_Read>:
DYNALIB_FN(5, hal_gpio, HAL_GPIO_Read, int32_t(pin_t))
   d561c:	b508      	push	{r3, lr}
   d561e:	4b02      	ldr	r3, [pc, #8]	; (d5628 <HAL_GPIO_Read+0xc>)
   d5620:	681b      	ldr	r3, [r3, #0]
   d5622:	695b      	ldr	r3, [r3, #20]
   d5624:	9301      	str	r3, [sp, #4]
   d5626:	bd08      	pop	{r3, pc}
   d5628:	0003022c 	.word	0x0003022c

000d562c <HAL_SPI_Init>:
DYNALIB_FN(2, hal_spi, HAL_SPI_Set_Bit_Order, void(HAL_SPI_Interface, uint8_t))
DYNALIB_FN(3, hal_spi, HAL_SPI_Set_Data_Mode, void(HAL_SPI_Interface, uint8_t))
DYNALIB_FN(4, hal_spi, HAL_SPI_Set_Clock_Divider, void(HAL_SPI_Interface, uint8_t))
DYNALIB_FN(5, hal_spi, HAL_SPI_Send_Receive_Data, uint16_t(HAL_SPI_Interface, uint16_t))
DYNALIB_FN(6, hal_spi, HAL_SPI_Is_Enabled_Old, bool(void))
DYNALIB_FN(7, hal_spi, HAL_SPI_Init, void(HAL_SPI_Interface))
   d562c:	b508      	push	{r3, lr}
   d562e:	4b02      	ldr	r3, [pc, #8]	; (d5638 <HAL_SPI_Init+0xc>)
   d5630:	681b      	ldr	r3, [r3, #0]
   d5632:	69db      	ldr	r3, [r3, #28]
   d5634:	9301      	str	r3, [sp, #4]
   d5636:	bd08      	pop	{r3, pc}
   d5638:	00030230 	.word	0x00030230

000d563c <HAL_SPI_Is_Enabled>:
DYNALIB_FN(8, hal_spi, HAL_SPI_Is_Enabled, bool(HAL_SPI_Interface))
   d563c:	b508      	push	{r3, lr}
   d563e:	4b02      	ldr	r3, [pc, #8]	; (d5648 <HAL_SPI_Is_Enabled+0xc>)
   d5640:	681b      	ldr	r3, [r3, #0]
   d5642:	6a1b      	ldr	r3, [r3, #32]
   d5644:	9301      	str	r3, [sp, #4]
   d5646:	bd08      	pop	{r3, pc}
   d5648:	00030230 	.word	0x00030230

000d564c <HAL_RNG_GetRandomNumber>:

DYNALIB_BEGIN(hal)

#if PLATFORM_ID > 3
DYNALIB_FN(0, hal, HAL_RNG_Configuration, void(void))
DYNALIB_FN(1, hal, HAL_RNG_GetRandomNumber, uint32_t(void))
   d564c:	b508      	push	{r3, lr}
   d564e:	4b02      	ldr	r3, [pc, #8]	; (d5658 <HAL_RNG_GetRandomNumber+0xc>)
   d5650:	681b      	ldr	r3, [r3, #0]
   d5652:	685b      	ldr	r3, [r3, #4]
   d5654:	9301      	str	r3, [sp, #4]
   d5656:	bd08      	pop	{r3, pc}
   d5658:	00030218 	.word	0x00030218

000d565c <HAL_Delay_Microseconds>:
#else
#define BASE_IDX 0
#endif

DYNALIB_FN(BASE_IDX + 0, hal, HAL_Delay_Milliseconds, void(uint32_t))
DYNALIB_FN(BASE_IDX + 1, hal, HAL_Delay_Microseconds, void(uint32_t))
   d565c:	b508      	push	{r3, lr}
   d565e:	4b02      	ldr	r3, [pc, #8]	; (d5668 <HAL_Delay_Microseconds+0xc>)
   d5660:	681b      	ldr	r3, [r3, #0]
   d5662:	68db      	ldr	r3, [r3, #12]
   d5664:	9301      	str	r3, [sp, #4]
   d5666:	bd08      	pop	{r3, pc}
   d5668:	00030218 	.word	0x00030218

000d566c <HAL_Timer_Get_Milli_Seconds>:
DYNALIB_FN(BASE_IDX + 2, hal, HAL_Timer_Get_Micro_Seconds, system_tick_t(void))
DYNALIB_FN(BASE_IDX + 3, hal, HAL_Timer_Get_Milli_Seconds, system_tick_t(void))
   d566c:	b508      	push	{r3, lr}
   d566e:	4b02      	ldr	r3, [pc, #8]	; (d5678 <HAL_Timer_Get_Milli_Seconds+0xc>)
   d5670:	681b      	ldr	r3, [r3, #0]
   d5672:	695b      	ldr	r3, [r3, #20]
   d5674:	9301      	str	r3, [sp, #4]
   d5676:	bd08      	pop	{r3, pc}
   d5678:	00030218 	.word	0x00030218

000d567c <HAL_EEPROM_Init>:
DYNALIB_FN(BASE_IDX + 4, hal, HAL_RTC_Configuration, void(void))
DYNALIB_FN(BASE_IDX + 5, hal, HAL_RTC_Get_UnixTime, time_t(void))
DYNALIB_FN(BASE_IDX + 6, hal, HAL_RTC_Set_UnixTime, void(time_t))
DYNALIB_FN(BASE_IDX + 7, hal, HAL_RTC_Set_UnixAlarm, void(time_t))

DYNALIB_FN(BASE_IDX + 8, hal, HAL_EEPROM_Init, void(void))
   d567c:	b508      	push	{r3, lr}
   d567e:	4b02      	ldr	r3, [pc, #8]	; (d5688 <HAL_EEPROM_Init+0xc>)
   d5680:	681b      	ldr	r3, [r3, #0]
   d5682:	6a9b      	ldr	r3, [r3, #40]	; 0x28
   d5684:	9301      	str	r3, [sp, #4]
   d5686:	bd08      	pop	{r3, pc}
   d5688:	00030218 	.word	0x00030218

000d568c <HAL_EEPROM_Read>:
DYNALIB_FN(BASE_IDX + 9, hal, HAL_EEPROM_Read, uint8_t(uint32_t))
   d568c:	b508      	push	{r3, lr}
   d568e:	4b02      	ldr	r3, [pc, #8]	; (d5698 <HAL_EEPROM_Read+0xc>)
   d5690:	681b      	ldr	r3, [r3, #0]
   d5692:	6adb      	ldr	r3, [r3, #44]	; 0x2c
   d5694:	9301      	str	r3, [sp, #4]
   d5696:	bd08      	pop	{r3, pc}
   d5698:	00030218 	.word	0x00030218

000d569c <HAL_EEPROM_Write>:
DYNALIB_FN(BASE_IDX + 10, hal, HAL_EEPROM_Write, void(uint32_t, uint8_t))
   d569c:	b508      	push	{r3, lr}
   d569e:	4b02      	ldr	r3, [pc, #8]	; (d56a8 <HAL_EEPROM_Write+0xc>)
   d56a0:	681b      	ldr	r3, [r3, #0]
   d56a2:	6b1b      	ldr	r3, [r3, #48]	; 0x30
   d56a4:	9301      	str	r3, [sp, #4]
   d56a6:	bd08      	pop	{r3, pc}
   d56a8:	00030218 	.word	0x00030218

000d56ac <HAL_EEPROM_Length>:
DYNALIB_FN(BASE_IDX + 11, hal, HAL_EEPROM_Length, size_t(void))
   d56ac:	b508      	push	{r3, lr}
   d56ae:	4b02      	ldr	r3, [pc, #8]	; (d56b8 <HAL_EEPROM_Length+0xc>)
   d56b0:	681b      	ldr	r3, [r3, #0]
   d56b2:	6b5b      	ldr	r3, [r3, #52]	; 0x34
   d56b4:	9301      	str	r3, [sp, #4]
   d56b6:	bd08      	pop	{r3, pc}
   d56b8:	00030218 	.word	0x00030218

000d56bc <HAL_EEPROM_Put>:
DYNALIB_FN(BASE_IDX + 12, hal, HAL_disable_irq, int(void))
DYNALIB_FN(BASE_IDX + 13, hal, HAL_enable_irq, void(int))
DYNALIB_FN(BASE_IDX + 14, hal, HAL_RTC_Cancel_UnixAlarm, void(void))

DYNALIB_FN(BASE_IDX + 15, hal,HAL_EEPROM_Get, void(uint32_t, void *, size_t))
DYNALIB_FN(BASE_IDX + 16, hal,HAL_EEPROM_Put, void(uint32_t, const void *, size_t))
   d56bc:	b508      	push	{r3, lr}
   d56be:	4b02      	ldr	r3, [pc, #8]	; (d56c8 <HAL_EEPROM_Put+0xc>)
   d56c0:	681b      	ldr	r3, [r3, #0]
   d56c2:	6c9b      	ldr	r3, [r3, #72]	; 0x48
   d56c4:	9301      	str	r3, [sp, #4]
   d56c6:	bd08      	pop	{r3, pc}
   d56c8:	00030218 	.word	0x00030218

000d56cc <hal_ble_stack_init>:

DYNALIB_BEGIN(hal_ble)

DYNALIB_FN(0, hal_ble, hal_ble_lock, int(void*))
DYNALIB_FN(1, hal_ble, hal_ble_unlock, int(void*))
DYNALIB_FN(2, hal_ble, hal_ble_stack_init, int(void*))
   d56cc:	b508      	push	{r3, lr}
   d56ce:	4b02      	ldr	r3, [pc, #8]	; (d56d8 <hal_ble_stack_init+0xc>)
   d56d0:	681b      	ldr	r3, [r3, #0]
   d56d2:	689b      	ldr	r3, [r3, #8]
   d56d4:	9301      	str	r3, [sp, #4]
   d56d6:	bd08      	pop	{r3, pc}
   d56d8:	00030278 	.word	0x00030278

000d56dc <hal_ble_gap_set_advertising_data>:
DYNALIB_FN(15, hal_ble, hal_ble_gap_delete_whitelist, int(void*))
DYNALIB_FN(16, hal_ble, hal_ble_gap_set_tx_power, int(int8_t, void*))
DYNALIB_FN(17, hal_ble, hal_ble_gap_get_tx_power, int(int8_t*, void*))
DYNALIB_FN(18, hal_ble, hal_ble_gap_set_advertising_parameters, int(const hal_ble_adv_params_t*, void*))
DYNALIB_FN(19, hal_ble, hal_ble_gap_get_advertising_parameters, int(hal_ble_adv_params_t*, void*))
DYNALIB_FN(20, hal_ble, hal_ble_gap_set_advertising_data, int(const uint8_t*, size_t, void*))
   d56dc:	b508      	push	{r3, lr}
   d56de:	4b02      	ldr	r3, [pc, #8]	; (d56e8 <hal_ble_gap_set_advertising_data+0xc>)
   d56e0:	681b      	ldr	r3, [r3, #0]
   d56e2:	6d1b      	ldr	r3, [r3, #80]	; 0x50
   d56e4:	9301      	str	r3, [sp, #4]
   d56e6:	bd08      	pop	{r3, pc}
   d56e8:	00030278 	.word	0x00030278

000d56ec <hal_ble_gap_set_scan_response_data>:
DYNALIB_FN(21, hal_ble, hal_ble_gap_get_advertising_data, ssize_t(uint8_t*, size_t, void*))
DYNALIB_FN(22, hal_ble, hal_ble_gap_set_scan_response_data, int(const uint8_t*, size_t, void*))
   d56ec:	b508      	push	{r3, lr}
   d56ee:	4b02      	ldr	r3, [pc, #8]	; (d56f8 <hal_ble_gap_set_scan_response_data+0xc>)
   d56f0:	681b      	ldr	r3, [r3, #0]
   d56f2:	6d9b      	ldr	r3, [r3, #88]	; 0x58
   d56f4:	9301      	str	r3, [sp, #4]
   d56f6:	bd08      	pop	{r3, pc}
   d56f8:	00030278 	.word	0x00030278

000d56fc <hal_ble_gap_start_advertising>:
DYNALIB_FN(23, hal_ble, hal_ble_gap_get_scan_response_data, ssize_t(uint8_t*, size_t, void*))
DYNALIB_FN(24, hal_ble, hal_ble_gap_start_advertising, int(void*))
   d56fc:	b508      	push	{r3, lr}
   d56fe:	4b02      	ldr	r3, [pc, #8]	; (d5708 <hal_ble_gap_start_advertising+0xc>)
   d5700:	681b      	ldr	r3, [r3, #0]
   d5702:	6e1b      	ldr	r3, [r3, #96]	; 0x60
   d5704:	9301      	str	r3, [sp, #4]
   d5706:	bd08      	pop	{r3, pc}
   d5708:	00030278 	.word	0x00030278

000d570c <hal_ble_gap_disconnect>:
DYNALIB_FN(33, hal_ble, hal_ble_gap_stop_scan, int(void*))
DYNALIB_FN(34, hal_ble, hal_ble_gap_connect_deprecated, int(const hal_ble_addr_t*, void*))
DYNALIB_FN(35, hal_ble, hal_ble_gap_is_connecting, bool(const hal_ble_addr_t*, void*))
DYNALIB_FN(36, hal_ble, hal_ble_gap_is_connected, bool(const hal_ble_addr_t*, void*))
DYNALIB_FN(37, hal_ble, hal_ble_gap_connect_cancel, int(const hal_ble_addr_t*, void*))
DYNALIB_FN(38, hal_ble, hal_ble_gap_disconnect, int(hal_ble_conn_handle_t, void*))
   d570c:	b508      	push	{r3, lr}
   d570e:	4b03      	ldr	r3, [pc, #12]	; (d571c <hal_ble_gap_disconnect+0x10>)
   d5710:	681b      	ldr	r3, [r3, #0]
   d5712:	f8d3 3098 	ldr.w	r3, [r3, #152]	; 0x98
   d5716:	9301      	str	r3, [sp, #4]
   d5718:	bd08      	pop	{r3, pc}
   d571a:	0000      	.short	0x0000
   d571c:	00030278 	.word	0x00030278

000d5720 <hal_ble_gatt_server_add_service>:
DYNALIB_FN(39, hal_ble, hal_ble_gap_update_connection_params, int(hal_ble_conn_handle_t, const hal_ble_conn_params_t*, void*))
DYNALIB_FN(40, hal_ble, hal_ble_gap_get_connection_params_deprecated, int(hal_ble_conn_handle_t, hal_ble_conn_params_t*, void*))
DYNALIB_FN(41, hal_ble, hal_ble_gap_get_rssi, int(hal_ble_conn_handle_t, void*))
DYNALIB_FN(42, hal_ble, hal_ble_gatt_server_add_service, int(uint8_t, const hal_ble_uuid_t*, hal_ble_attr_handle_t*, void*))
   d5720:	b508      	push	{r3, lr}
   d5722:	4b03      	ldr	r3, [pc, #12]	; (d5730 <hal_ble_gatt_server_add_service+0x10>)
   d5724:	681b      	ldr	r3, [r3, #0]
   d5726:	f8d3 30a8 	ldr.w	r3, [r3, #168]	; 0xa8
   d572a:	9301      	str	r3, [sp, #4]
   d572c:	bd08      	pop	{r3, pc}
   d572e:	0000      	.short	0x0000
   d5730:	00030278 	.word	0x00030278

000d5734 <hal_ble_gatt_server_set_characteristic_value>:
DYNALIB_FN(43, hal_ble, hal_ble_gatt_server_add_characteristic_deprecated, int(const hal_ble_char_init_deprecated_t*, hal_ble_char_handles_t*, void*))
DYNALIB_FN(44, hal_ble, hal_ble_gatt_server_add_descriptor, int(const hal_ble_desc_init_t*, hal_ble_attr_handle_t*, void*))
DYNALIB_FN(45, hal_ble, hal_ble_gatt_server_set_characteristic_value, ssize_t(hal_ble_attr_handle_t, const uint8_t*, size_t, void*))
   d5734:	b508      	push	{r3, lr}
   d5736:	4b03      	ldr	r3, [pc, #12]	; (d5744 <hal_ble_gatt_server_set_characteristic_value+0x10>)
   d5738:	681b      	ldr	r3, [r3, #0]
   d573a:	f8d3 30b4 	ldr.w	r3, [r3, #180]	; 0xb4
   d573e:	9301      	str	r3, [sp, #4]
   d5740:	bd08      	pop	{r3, pc}
   d5742:	0000      	.short	0x0000
   d5744:	00030278 	.word	0x00030278

000d5748 <hal_ble_gatt_client_write_with_response>:
DYNALIB_FN(49, hal_ble, hal_ble_gatt_client_discover_characteristics, int(hal_ble_conn_handle_t, const hal_ble_svc_t*, hal_ble_on_disc_char_cb_t, void*, void*))
DYNALIB_FN(50, hal_ble, hal_ble_gatt_client_discover_characteristics_by_uuid, int(hal_ble_conn_handle_t, const hal_ble_svc_t*, const hal_ble_uuid_t*, hal_ble_on_disc_char_cb_t, void*, void*))
DYNALIB_FN(51, hal_ble, hal_ble_gatt_client_is_discovering, bool(hal_ble_conn_handle_t, void*))
DYNALIB_FN(52, hal_ble, hal_ble_gatt_set_att_mtu, int(size_t, void*))
DYNALIB_FN(53, hal_ble, hal_ble_gatt_client_configure_cccd_deprecated, int(hal_ble_conn_handle_t, hal_ble_attr_handle_t, ble_sig_cccd_value_t, void*))
DYNALIB_FN(54, hal_ble, hal_ble_gatt_client_write_with_response, ssize_t(hal_ble_conn_handle_t, hal_ble_attr_handle_t, const uint8_t*, size_t, void*))
   d5748:	b508      	push	{r3, lr}
   d574a:	4b03      	ldr	r3, [pc, #12]	; (d5758 <hal_ble_gatt_client_write_with_response+0x10>)
   d574c:	681b      	ldr	r3, [r3, #0]
   d574e:	f8d3 30d8 	ldr.w	r3, [r3, #216]	; 0xd8
   d5752:	9301      	str	r3, [sp, #4]
   d5754:	bd08      	pop	{r3, pc}
   d5756:	0000      	.short	0x0000
   d5758:	00030278 	.word	0x00030278

000d575c <hal_ble_gatt_client_write_without_response>:
DYNALIB_FN(55, hal_ble, hal_ble_gatt_client_write_without_response, ssize_t(hal_ble_conn_handle_t, hal_ble_attr_handle_t, const uint8_t*, size_t, void*))
   d575c:	b508      	push	{r3, lr}
   d575e:	4b03      	ldr	r3, [pc, #12]	; (d576c <hal_ble_gatt_client_write_without_response+0x10>)
   d5760:	681b      	ldr	r3, [r3, #0]
   d5762:	f8d3 30dc 	ldr.w	r3, [r3, #220]	; 0xdc
   d5766:	9301      	str	r3, [sp, #4]
   d5768:	bd08      	pop	{r3, pc}
   d576a:	0000      	.short	0x0000
   d576c:	00030278 	.word	0x00030278

000d5770 <hal_ble_gatt_server_add_characteristic>:
DYNALIB_FN(56, hal_ble, hal_ble_gatt_client_read, ssize_t(hal_ble_conn_handle_t, hal_ble_attr_handle_t, uint8_t*, size_t, void*))

DYNALIB_FN(57, hal_ble, hal_ble_gap_connect, int(const hal_ble_conn_cfg_t*, hal_ble_conn_handle_t*, void*))
DYNALIB_FN(58, hal_ble, hal_ble_gap_get_connection_info, int(hal_ble_conn_handle_t, hal_ble_conn_info_t*, void*))
DYNALIB_FN(59, hal_ble, hal_ble_gatt_server_add_characteristic, int(const hal_ble_char_init_t*, hal_ble_char_handles_t*, void*))
   d5770:	b508      	push	{r3, lr}
   d5772:	4b03      	ldr	r3, [pc, #12]	; (d5780 <hal_ble_gatt_server_add_characteristic+0x10>)
   d5774:	681b      	ldr	r3, [r3, #0]
   d5776:	f8d3 30ec 	ldr.w	r3, [r3, #236]	; 0xec
   d577a:	9301      	str	r3, [sp, #4]
   d577c:	bd08      	pop	{r3, pc}
   d577e:	0000      	.short	0x0000
   d5780:	00030278 	.word	0x00030278

000d5784 <hal_ble_set_callback_on_periph_link_events>:
DYNALIB_FN(60, hal_ble, hal_ble_set_callback_on_periph_link_events, int(hal_ble_on_link_evt_cb_t, void*, void*))
   d5784:	b508      	push	{r3, lr}
   d5786:	4b03      	ldr	r3, [pc, #12]	; (d5794 <hal_ble_set_callback_on_periph_link_events+0x10>)
   d5788:	681b      	ldr	r3, [r3, #0]
   d578a:	f8d3 30f0 	ldr.w	r3, [r3, #240]	; 0xf0
   d578e:	9301      	str	r3, [sp, #4]
   d5790:	bd08      	pop	{r3, pc}
   d5792:	0000      	.short	0x0000
   d5794:	00030278 	.word	0x00030278

000d5798 <hal_ble_gatt_server_notify_characteristic_value>:
DYNALIB_FN(61, hal_ble, hal_ble_gatt_client_configure_cccd, int(const hal_ble_cccd_config_t*, void*))
DYNALIB_FN(62, hal_ble, hal_ble_set_callback_on_adv_events, int(hal_ble_on_adv_evt_cb_t, void*, void*))
DYNALIB_FN(63, hal_ble, hal_ble_cancel_callback_on_adv_events, int(hal_ble_on_adv_evt_cb_t, void*, void*))
DYNALIB_FN(64, hal_ble, hal_ble_gatt_server_notify_characteristic_value, ssize_t(hal_ble_attr_handle_t, const uint8_t*, size_t, void*))
   d5798:	b508      	push	{r3, lr}
   d579a:	4b03      	ldr	r3, [pc, #12]	; (d57a8 <hal_ble_gatt_server_notify_characteristic_value+0x10>)
   d579c:	681b      	ldr	r3, [r3, #0]
   d579e:	f8d3 3100 	ldr.w	r3, [r3, #256]	; 0x100
   d57a2:	9301      	str	r3, [sp, #4]
   d57a4:	bd08      	pop	{r3, pc}
   d57a6:	0000      	.short	0x0000
   d57a8:	00030278 	.word	0x00030278

000d57ac <hal_ble_gatt_server_indicate_characteristic_value>:
DYNALIB_FN(65, hal_ble, hal_ble_gatt_server_indicate_characteristic_value, ssize_t(hal_ble_attr_handle_t, const uint8_t*, size_t, void*))
   d57ac:	b508      	push	{r3, lr}
   d57ae:	4b03      	ldr	r3, [pc, #12]	; (d57bc <hal_ble_gatt_server_indicate_characteristic_value+0x10>)
   d57b0:	681b      	ldr	r3, [r3, #0]
   d57b2:	f8d3 3104 	ldr.w	r3, [r3, #260]	; 0x104
   d57b6:	9301      	str	r3, [sp, #4]
   d57b8:	bd08      	pop	{r3, pc}
   d57ba:	0000      	.short	0x0000
   d57bc:	00030278 	.word	0x00030278

000d57c0 <os_thread_is_current>:
DYNALIB_BEGIN(hal_concurrent)

#if PLATFORM_THREADING
DYNALIB_FN(0, hal_concurrent, __gthread_equal, bool(__gthread_t, __gthread_t))
DYNALIB_FN(1, hal_concurrent, os_thread_create, os_result_t(os_thread_t*, const char*, os_thread_prio_t, os_thread_fn_t, void*, size_t))
DYNALIB_FN(2, hal_concurrent, os_thread_is_current, bool(os_thread_t))
   d57c0:	b508      	push	{r3, lr}
   d57c2:	4b02      	ldr	r3, [pc, #8]	; (d57cc <os_thread_is_current+0xc>)
   d57c4:	681b      	ldr	r3, [r3, #0]
   d57c6:	689b      	ldr	r3, [r3, #8]
   d57c8:	9301      	str	r3, [sp, #4]
   d57ca:	bd08      	pop	{r3, pc}
   d57cc:	00030248 	.word	0x00030248

000d57d0 <os_thread_join>:
DYNALIB_FN(3, hal_concurrent, os_thread_yield, os_result_t(void))
DYNALIB_FN(4, hal_concurrent, os_thread_join, os_result_t(os_thread_t))
   d57d0:	b508      	push	{r3, lr}
   d57d2:	4b02      	ldr	r3, [pc, #8]	; (d57dc <os_thread_join+0xc>)
   d57d4:	681b      	ldr	r3, [r3, #0]
   d57d6:	691b      	ldr	r3, [r3, #16]
   d57d8:	9301      	str	r3, [sp, #4]
   d57da:	bd08      	pop	{r3, pc}
   d57dc:	00030248 	.word	0x00030248

000d57e0 <os_thread_cleanup>:
DYNALIB_FN(5, hal_concurrent, os_thread_cleanup, os_result_t(os_thread_t))
   d57e0:	b508      	push	{r3, lr}
   d57e2:	4b02      	ldr	r3, [pc, #8]	; (d57ec <os_thread_cleanup+0xc>)
   d57e4:	681b      	ldr	r3, [r3, #0]
   d57e6:	695b      	ldr	r3, [r3, #20]
   d57e8:	9301      	str	r3, [sp, #4]
   d57ea:	bd08      	pop	{r3, pc}
   d57ec:	00030248 	.word	0x00030248

000d57f0 <os_mutex_recursive_create>:
DYNALIB_FN(13, hal_concurrent, os_mutex_destroy, int(os_mutex_t))
DYNALIB_FN(14, hal_concurrent, os_mutex_lock, int(os_mutex_t))
DYNALIB_FN(15, hal_concurrent, os_mutex_trylock, int(os_mutex_t))
DYNALIB_FN(16, hal_concurrent, os_mutex_unlock, int(os_mutex_t))

DYNALIB_FN(17, hal_concurrent, os_mutex_recursive_create, int(os_mutex_recursive_t*))
   d57f0:	b508      	push	{r3, lr}
   d57f2:	4b02      	ldr	r3, [pc, #8]	; (d57fc <os_mutex_recursive_create+0xc>)
   d57f4:	681b      	ldr	r3, [r3, #0]
   d57f6:	6c5b      	ldr	r3, [r3, #68]	; 0x44
   d57f8:	9301      	str	r3, [sp, #4]
   d57fa:	bd08      	pop	{r3, pc}
   d57fc:	00030248 	.word	0x00030248

000d5800 <os_mutex_recursive_destroy>:
DYNALIB_FN(18, hal_concurrent, os_mutex_recursive_destroy, int(os_mutex_recursive_t))
   d5800:	b508      	push	{r3, lr}
   d5802:	4b02      	ldr	r3, [pc, #8]	; (d580c <os_mutex_recursive_destroy+0xc>)
   d5804:	681b      	ldr	r3, [r3, #0]
   d5806:	6c9b      	ldr	r3, [r3, #72]	; 0x48
   d5808:	9301      	str	r3, [sp, #4]
   d580a:	bd08      	pop	{r3, pc}
   d580c:	00030248 	.word	0x00030248

000d5810 <os_mutex_recursive_lock>:
DYNALIB_FN(19, hal_concurrent, os_mutex_recursive_lock, int(os_mutex_recursive_t))
   d5810:	b508      	push	{r3, lr}
   d5812:	4b02      	ldr	r3, [pc, #8]	; (d581c <os_mutex_recursive_lock+0xc>)
   d5814:	681b      	ldr	r3, [r3, #0]
   d5816:	6cdb      	ldr	r3, [r3, #76]	; 0x4c
   d5818:	9301      	str	r3, [sp, #4]
   d581a:	bd08      	pop	{r3, pc}
   d581c:	00030248 	.word	0x00030248

000d5820 <os_mutex_recursive_unlock>:
DYNALIB_FN(20, hal_concurrent, os_mutex_recursive_trylock, int(os_mutex_recursive_t))
DYNALIB_FN(21, hal_concurrent, os_mutex_recursive_unlock, int(os_mutex_recursive_t))
   d5820:	b508      	push	{r3, lr}
   d5822:	4b02      	ldr	r3, [pc, #8]	; (d582c <os_mutex_recursive_unlock+0xc>)
   d5824:	681b      	ldr	r3, [r3, #0]
   d5826:	6d5b      	ldr	r3, [r3, #84]	; 0x54
   d5828:	9301      	str	r3, [sp, #4]
   d582a:	bd08      	pop	{r3, pc}
   d582c:	00030248 	.word	0x00030248

000d5830 <inet_inet_ntop>:
DYNALIB_FN(0, hal_inet, inet_inet_addr, in_addr_t(const char*))
DYNALIB_FN(1, hal_inet, inet_inet_aton, int(const char*, struct in_addr*))
DYNALIB_FN(2, hal_inet, inet_inet_network, in_addr_t(const char*))
DYNALIB_FN(3, hal_inet, inet_inet_ntoa, char*(struct in_addr))
DYNALIB_FN(4, hal_inet, inet_inet_ntoa_r, char*(struct in_addr, char*, socklen_t))
DYNALIB_FN(5, hal_inet, inet_inet_ntop, const char*(int, const void*, char*, socklen_t))
   d5830:	b508      	push	{r3, lr}
   d5832:	4b02      	ldr	r3, [pc, #8]	; (d583c <inet_inet_ntop+0xc>)
   d5834:	681b      	ldr	r3, [r3, #0]
   d5836:	695b      	ldr	r3, [r3, #20]
   d5838:	9301      	str	r3, [sp, #4]
   d583a:	bd08      	pop	{r3, pc}
   d583c:	00030264 	.word	0x00030264

000d5840 <HAL_USART_Init>:
#define BASE_IDX 6 // Base index for all subsequent functions
#else
#define BASE_IDX 0
#endif

DYNALIB_FN(BASE_IDX + 0, hal_usart, HAL_USART_Init, void(HAL_USART_Serial, Ring_Buffer*, Ring_Buffer*))
   d5840:	b508      	push	{r3, lr}
   d5842:	4b02      	ldr	r3, [pc, #8]	; (d584c <HAL_USART_Init+0xc>)
   d5844:	681b      	ldr	r3, [r3, #0]
   d5846:	681b      	ldr	r3, [r3, #0]
   d5848:	9301      	str	r3, [sp, #4]
   d584a:	bd08      	pop	{r3, pc}
   d584c:	0003023c 	.word	0x0003023c

000d5850 <HAL_USART_End>:
DYNALIB_FN(BASE_IDX + 1, hal_usart, HAL_USART_Begin, void(HAL_USART_Serial, uint32_t))
DYNALIB_FN(BASE_IDX + 2, hal_usart, HAL_USART_End, void(HAL_USART_Serial))
   d5850:	b508      	push	{r3, lr}
   d5852:	4b02      	ldr	r3, [pc, #8]	; (d585c <HAL_USART_End+0xc>)
   d5854:	681b      	ldr	r3, [r3, #0]
   d5856:	689b      	ldr	r3, [r3, #8]
   d5858:	9301      	str	r3, [sp, #4]
   d585a:	bd08      	pop	{r3, pc}
   d585c:	0003023c 	.word	0x0003023c

000d5860 <HAL_USART_Write_Data>:
DYNALIB_FN(BASE_IDX + 3, hal_usart, HAL_USART_Write_Data, uint32_t(HAL_USART_Serial, uint8_t))
   d5860:	b508      	push	{r3, lr}
   d5862:	4b02      	ldr	r3, [pc, #8]	; (d586c <HAL_USART_Write_Data+0xc>)
   d5864:	681b      	ldr	r3, [r3, #0]
   d5866:	68db      	ldr	r3, [r3, #12]
   d5868:	9301      	str	r3, [sp, #4]
   d586a:	bd08      	pop	{r3, pc}
   d586c:	0003023c 	.word	0x0003023c

000d5870 <HAL_USART_Available_Data>:
DYNALIB_FN(BASE_IDX + 4, hal_usart, HAL_USART_Available_Data, int32_t(HAL_USART_Serial))
   d5870:	b508      	push	{r3, lr}
   d5872:	4b02      	ldr	r3, [pc, #8]	; (d587c <HAL_USART_Available_Data+0xc>)
   d5874:	681b      	ldr	r3, [r3, #0]
   d5876:	691b      	ldr	r3, [r3, #16]
   d5878:	9301      	str	r3, [sp, #4]
   d587a:	bd08      	pop	{r3, pc}
   d587c:	0003023c 	.word	0x0003023c

000d5880 <HAL_USART_Read_Data>:
DYNALIB_FN(BASE_IDX + 5, hal_usart, HAL_USART_Read_Data, int32_t(HAL_USART_Serial))
   d5880:	b508      	push	{r3, lr}
   d5882:	4b02      	ldr	r3, [pc, #8]	; (d588c <HAL_USART_Read_Data+0xc>)
   d5884:	681b      	ldr	r3, [r3, #0]
   d5886:	695b      	ldr	r3, [r3, #20]
   d5888:	9301      	str	r3, [sp, #4]
   d588a:	bd08      	pop	{r3, pc}
   d588c:	0003023c 	.word	0x0003023c

000d5890 <HAL_USART_Peek_Data>:
DYNALIB_FN(BASE_IDX + 6, hal_usart, HAL_USART_Peek_Data, int32_t(HAL_USART_Serial))
   d5890:	b508      	push	{r3, lr}
   d5892:	4b02      	ldr	r3, [pc, #8]	; (d589c <HAL_USART_Peek_Data+0xc>)
   d5894:	681b      	ldr	r3, [r3, #0]
   d5896:	699b      	ldr	r3, [r3, #24]
   d5898:	9301      	str	r3, [sp, #4]
   d589a:	bd08      	pop	{r3, pc}
   d589c:	0003023c 	.word	0x0003023c

000d58a0 <HAL_USART_Flush_Data>:
DYNALIB_FN(BASE_IDX + 7, hal_usart, HAL_USART_Flush_Data, void(HAL_USART_Serial))
   d58a0:	b508      	push	{r3, lr}
   d58a2:	4b02      	ldr	r3, [pc, #8]	; (d58ac <HAL_USART_Flush_Data+0xc>)
   d58a4:	681b      	ldr	r3, [r3, #0]
   d58a6:	69db      	ldr	r3, [r3, #28]
   d58a8:	9301      	str	r3, [sp, #4]
   d58aa:	bd08      	pop	{r3, pc}
   d58ac:	0003023c 	.word	0x0003023c

000d58b0 <HAL_USART_Is_Enabled>:
DYNALIB_FN(BASE_IDX + 8, hal_usart, HAL_USART_Is_Enabled, bool(HAL_USART_Serial))
   d58b0:	b508      	push	{r3, lr}
   d58b2:	4b02      	ldr	r3, [pc, #8]	; (d58bc <HAL_USART_Is_Enabled+0xc>)
   d58b4:	681b      	ldr	r3, [r3, #0]
   d58b6:	6a1b      	ldr	r3, [r3, #32]
   d58b8:	9301      	str	r3, [sp, #4]
   d58ba:	bd08      	pop	{r3, pc}
   d58bc:	0003023c 	.word	0x0003023c

000d58c0 <HAL_USART_Available_Data_For_Write>:
DYNALIB_FN(BASE_IDX + 9, hal_usart, HAL_USART_Half_Duplex, void(HAL_USART_Serial, bool))
DYNALIB_FN(BASE_IDX + 10, hal_usart, HAL_USART_Available_Data_For_Write, int32_t(HAL_USART_Serial))
   d58c0:	b508      	push	{r3, lr}
   d58c2:	4b02      	ldr	r3, [pc, #8]	; (d58cc <HAL_USART_Available_Data_For_Write+0xc>)
   d58c4:	681b      	ldr	r3, [r3, #0]
   d58c6:	6a9b      	ldr	r3, [r3, #40]	; 0x28
   d58c8:	9301      	str	r3, [sp, #4]
   d58ca:	bd08      	pop	{r3, pc}
   d58cc:	0003023c 	.word	0x0003023c

000d58d0 <HAL_USART_BeginConfig>:
#define BASE_IDX2 (BASE_IDX+13)
#else
#define BASE_IDX2 (BASE_IDX+11)
#endif

DYNALIB_FN(BASE_IDX2 + 0, hal_usart, HAL_USART_BeginConfig, void(HAL_USART_Serial serial, uint32_t baud, uint32_t config, void *ptr))
   d58d0:	b508      	push	{r3, lr}
   d58d2:	4b02      	ldr	r3, [pc, #8]	; (d58dc <HAL_USART_BeginConfig+0xc>)
   d58d4:	681b      	ldr	r3, [r3, #0]
   d58d6:	6adb      	ldr	r3, [r3, #44]	; 0x2c
   d58d8:	9301      	str	r3, [sp, #4]
   d58da:	bd08      	pop	{r3, pc}
   d58dc:	0003023c 	.word	0x0003023c

000d58e0 <HAL_I2C_Write_Data>:
DYNALIB_FN(BASE_IDX + 3, hal_i2c, HAL_I2C_Begin, void(HAL_I2C_Interface, I2C_Mode, uint8_t, void*))
DYNALIB_FN(BASE_IDX + 4, hal_i2c, HAL_I2C_End, void(HAL_I2C_Interface, void*))
DYNALIB_FN(BASE_IDX + 5, hal_i2c, HAL_I2C_Request_Data, uint32_t(HAL_I2C_Interface, uint8_t, uint8_t, uint8_t, void*))
DYNALIB_FN(BASE_IDX + 6, hal_i2c, HAL_I2C_Begin_Transmission, void(HAL_I2C_Interface, uint8_t, const HAL_I2C_Transmission_Config*))
DYNALIB_FN(BASE_IDX + 7, hal_i2c, HAL_I2C_End_Transmission, uint8_t(HAL_I2C_Interface, uint8_t, void*))
DYNALIB_FN(BASE_IDX + 8, hal_i2c, HAL_I2C_Write_Data, uint32_t(HAL_I2C_Interface, uint8_t, void*))
   d58e0:	b508      	push	{r3, lr}
   d58e2:	4b02      	ldr	r3, [pc, #8]	; (d58ec <HAL_I2C_Write_Data+0xc>)
   d58e4:	681b      	ldr	r3, [r3, #0]
   d58e6:	6a1b      	ldr	r3, [r3, #32]
   d58e8:	9301      	str	r3, [sp, #4]
   d58ea:	bd08      	pop	{r3, pc}
   d58ec:	00030228 	.word	0x00030228

000d58f0 <HAL_I2C_Available_Data>:
DYNALIB_FN(BASE_IDX + 9, hal_i2c, HAL_I2C_Available_Data, int32_t(HAL_I2C_Interface, void*))
   d58f0:	b508      	push	{r3, lr}
   d58f2:	4b02      	ldr	r3, [pc, #8]	; (d58fc <HAL_I2C_Available_Data+0xc>)
   d58f4:	681b      	ldr	r3, [r3, #0]
   d58f6:	6a5b      	ldr	r3, [r3, #36]	; 0x24
   d58f8:	9301      	str	r3, [sp, #4]
   d58fa:	bd08      	pop	{r3, pc}
   d58fc:	00030228 	.word	0x00030228

000d5900 <HAL_I2C_Read_Data>:
DYNALIB_FN(BASE_IDX + 10, hal_i2c, HAL_I2C_Read_Data, int32_t(HAL_I2C_Interface, void*))
   d5900:	b508      	push	{r3, lr}
   d5902:	4b02      	ldr	r3, [pc, #8]	; (d590c <HAL_I2C_Read_Data+0xc>)
   d5904:	681b      	ldr	r3, [r3, #0]
   d5906:	6a9b      	ldr	r3, [r3, #40]	; 0x28
   d5908:	9301      	str	r3, [sp, #4]
   d590a:	bd08      	pop	{r3, pc}
   d590c:	00030228 	.word	0x00030228

000d5910 <HAL_I2C_Peek_Data>:
DYNALIB_FN(BASE_IDX + 11, hal_i2c, HAL_I2C_Peek_Data, int32_t(HAL_I2C_Interface, void*))
   d5910:	b508      	push	{r3, lr}
   d5912:	4b02      	ldr	r3, [pc, #8]	; (d591c <HAL_I2C_Peek_Data+0xc>)
   d5914:	681b      	ldr	r3, [r3, #0]
   d5916:	6adb      	ldr	r3, [r3, #44]	; 0x2c
   d5918:	9301      	str	r3, [sp, #4]
   d591a:	bd08      	pop	{r3, pc}
   d591c:	00030228 	.word	0x00030228

000d5920 <HAL_I2C_Flush_Data>:
DYNALIB_FN(BASE_IDX + 12, hal_i2c, HAL_I2C_Flush_Data, void(HAL_I2C_Interface, void*))
   d5920:	b508      	push	{r3, lr}
   d5922:	4b02      	ldr	r3, [pc, #8]	; (d592c <HAL_I2C_Flush_Data+0xc>)
   d5924:	681b      	ldr	r3, [r3, #0]
   d5926:	6b1b      	ldr	r3, [r3, #48]	; 0x30
   d5928:	9301      	str	r3, [sp, #4]
   d592a:	bd08      	pop	{r3, pc}
   d592c:	00030228 	.word	0x00030228

000d5930 <HAL_I2C_Is_Enabled>:
DYNALIB_FN(BASE_IDX + 13, hal_i2c, HAL_I2C_Is_Enabled, bool(HAL_I2C_Interface, void*))
   d5930:	b508      	push	{r3, lr}
   d5932:	4b02      	ldr	r3, [pc, #8]	; (d593c <HAL_I2C_Is_Enabled+0xc>)
   d5934:	681b      	ldr	r3, [r3, #0]
   d5936:	6b5b      	ldr	r3, [r3, #52]	; 0x34
   d5938:	9301      	str	r3, [sp, #4]
   d593a:	bd08      	pop	{r3, pc}
   d593c:	00030228 	.word	0x00030228

000d5940 <HAL_I2C_Init>:
DYNALIB_FN(BASE_IDX + 14, hal_i2c, HAL_I2C_Set_Callback_On_Receive, void(HAL_I2C_Interface, void(*)(int), void*))
DYNALIB_FN(BASE_IDX + 15, hal_i2c, HAL_I2C_Set_Callback_On_Request, void(HAL_I2C_Interface, void(*)(void), void*))
DYNALIB_FN(BASE_IDX + 16, hal_i2c, HAL_I2C_Init, int(HAL_I2C_Interface, const HAL_I2C_Config*))
   d5940:	b508      	push	{r3, lr}
   d5942:	4b02      	ldr	r3, [pc, #8]	; (d594c <HAL_I2C_Init+0xc>)
   d5944:	681b      	ldr	r3, [r3, #0]
   d5946:	6c1b      	ldr	r3, [r3, #64]	; 0x40
   d5948:	9301      	str	r3, [sp, #4]
   d594a:	bd08      	pop	{r3, pc}
   d594c:	00030228 	.word	0x00030228

000d5950 <HAL_Tone_Start>:
// New HAL functions must be added to the end of this list.
// GNINRAW

DYNALIB_BEGIN(hal_peripherals)

DYNALIB_FN(0, hal_peripherals, HAL_Tone_Start, void(uint8_t, uint32_t, uint32_t))
   d5950:	b508      	push	{r3, lr}
   d5952:	4b02      	ldr	r3, [pc, #8]	; (d595c <HAL_Tone_Start+0xc>)
   d5954:	681b      	ldr	r3, [r3, #0]
   d5956:	681b      	ldr	r3, [r3, #0]
   d5958:	9301      	str	r3, [sp, #4]
   d595a:	bd08      	pop	{r3, pc}
   d595c:	00030224 	.word	0x00030224

000d5960 <HAL_Tone_Stop>:
DYNALIB_FN(1, hal_peripherals, HAL_Tone_Stop, void(uint8_t))
   d5960:	b508      	push	{r3, lr}
   d5962:	4b02      	ldr	r3, [pc, #8]	; (d596c <HAL_Tone_Stop+0xc>)
   d5964:	681b      	ldr	r3, [r3, #0]
   d5966:	685b      	ldr	r3, [r3, #4]
   d5968:	9301      	str	r3, [sp, #4]
   d596a:	bd08      	pop	{r3, pc}
   d596c:	00030224 	.word	0x00030224

000d5970 <HAL_USB_USART_Init>:
#endif

DYNALIB_BEGIN(hal_usb)

#ifdef USB_CDC_ENABLE
DYNALIB_FN(0, hal_usb, HAL_USB_USART_Init, void(HAL_USB_USART_Serial, const HAL_USB_USART_Config*))
   d5970:	b508      	push	{r3, lr}
   d5972:	4b02      	ldr	r3, [pc, #8]	; (d597c <HAL_USB_USART_Init+0xc>)
   d5974:	681b      	ldr	r3, [r3, #0]
   d5976:	681b      	ldr	r3, [r3, #0]
   d5978:	9301      	str	r3, [sp, #4]
   d597a:	bd08      	pop	{r3, pc}
   d597c:	0003024c 	.word	0x0003024c

000d5980 <HAL_USB_USART_Available_Data>:
DYNALIB_FN(1, hal_usb, HAL_USB_USART_Begin, void(HAL_USB_USART_Serial, uint32_t, void *))
DYNALIB_FN(2, hal_usb, HAL_USB_USART_End, void(HAL_USB_USART_Serial))
DYNALIB_FN(3, hal_usb, HAL_USB_USART_Baud_Rate, unsigned int(HAL_USB_USART_Serial))
DYNALIB_FN(4, hal_usb, HAL_USB_USART_Available_Data, int32_t(HAL_USB_USART_Serial))
   d5980:	b508      	push	{r3, lr}
   d5982:	4b02      	ldr	r3, [pc, #8]	; (d598c <HAL_USB_USART_Available_Data+0xc>)
   d5984:	681b      	ldr	r3, [r3, #0]
   d5986:	691b      	ldr	r3, [r3, #16]
   d5988:	9301      	str	r3, [sp, #4]
   d598a:	bd08      	pop	{r3, pc}
   d598c:	0003024c 	.word	0x0003024c

000d5990 <HAL_USB_USART_Available_Data_For_Write>:
DYNALIB_FN(5, hal_usb, HAL_USB_USART_Available_Data_For_Write, int32_t(HAL_USB_USART_Serial))
   d5990:	b508      	push	{r3, lr}
   d5992:	4b02      	ldr	r3, [pc, #8]	; (d599c <HAL_USB_USART_Available_Data_For_Write+0xc>)
   d5994:	681b      	ldr	r3, [r3, #0]
   d5996:	695b      	ldr	r3, [r3, #20]
   d5998:	9301      	str	r3, [sp, #4]
   d599a:	bd08      	pop	{r3, pc}
   d599c:	0003024c 	.word	0x0003024c

000d59a0 <HAL_USB_USART_Receive_Data>:
DYNALIB_FN(6, hal_usb, HAL_USB_USART_Receive_Data, int32_t(HAL_USB_USART_Serial, uint8_t))
   d59a0:	b508      	push	{r3, lr}
   d59a2:	4b02      	ldr	r3, [pc, #8]	; (d59ac <HAL_USB_USART_Receive_Data+0xc>)
   d59a4:	681b      	ldr	r3, [r3, #0]
   d59a6:	699b      	ldr	r3, [r3, #24]
   d59a8:	9301      	str	r3, [sp, #4]
   d59aa:	bd08      	pop	{r3, pc}
   d59ac:	0003024c 	.word	0x0003024c

000d59b0 <HAL_USB_USART_Send_Data>:
DYNALIB_FN(7, hal_usb, HAL_USB_USART_Send_Data, int32_t(HAL_USB_USART_Serial, uint8_t))
   d59b0:	b508      	push	{r3, lr}
   d59b2:	4b02      	ldr	r3, [pc, #8]	; (d59bc <HAL_USB_USART_Send_Data+0xc>)
   d59b4:	681b      	ldr	r3, [r3, #0]
   d59b6:	69db      	ldr	r3, [r3, #28]
   d59b8:	9301      	str	r3, [sp, #4]
   d59ba:	bd08      	pop	{r3, pc}
   d59bc:	0003024c 	.word	0x0003024c

000d59c0 <HAL_USB_USART_Flush_Data>:
DYNALIB_FN(8, hal_usb, HAL_USB_USART_Flush_Data, void(HAL_USB_USART_Serial))
   d59c0:	b508      	push	{r3, lr}
   d59c2:	4b02      	ldr	r3, [pc, #8]	; (d59cc <HAL_USB_USART_Flush_Data+0xc>)
   d59c4:	681b      	ldr	r3, [r3, #0]
   d59c6:	6a1b      	ldr	r3, [r3, #32]
   d59c8:	9301      	str	r3, [sp, #4]
   d59ca:	bd08      	pop	{r3, pc}
   d59cc:	0003024c 	.word	0x0003024c

000d59d0 <LED_SetSignalingColor>:
#endif // defined(DYNALIB_EXPORT)

DYNALIB_BEGIN(services)

DYNALIB_FN(0, services, LED_SetRGBColor, void(uint32_t))
DYNALIB_FN(1, services, LED_SetSignalingColor, void(uint32_t))
   d59d0:	b508      	push	{r3, lr}
   d59d2:	4b02      	ldr	r3, [pc, #8]	; (d59dc <LED_SetSignalingColor+0xc>)
   d59d4:	681b      	ldr	r3, [r3, #0]
   d59d6:	685b      	ldr	r3, [r3, #4]
   d59d8:	9301      	str	r3, [sp, #4]
   d59da:	bd08      	pop	{r3, pc}
   d59dc:	00030260 	.word	0x00030260

000d59e0 <LED_Signaling_Start>:
DYNALIB_FN(2, services, LED_Signaling_Start, void(void))
   d59e0:	b508      	push	{r3, lr}
   d59e2:	4b02      	ldr	r3, [pc, #8]	; (d59ec <LED_Signaling_Start+0xc>)
   d59e4:	681b      	ldr	r3, [r3, #0]
   d59e6:	689b      	ldr	r3, [r3, #8]
   d59e8:	9301      	str	r3, [sp, #4]
   d59ea:	bd08      	pop	{r3, pc}
   d59ec:	00030260 	.word	0x00030260

000d59f0 <LED_Signaling_Stop>:
DYNALIB_FN(3, services, LED_Signaling_Stop, void(void))
   d59f0:	b508      	push	{r3, lr}
   d59f2:	4b02      	ldr	r3, [pc, #8]	; (d59fc <LED_Signaling_Stop+0xc>)
   d59f4:	681b      	ldr	r3, [r3, #0]
   d59f6:	68db      	ldr	r3, [r3, #12]
   d59f8:	9301      	str	r3, [sp, #4]
   d59fa:	bd08      	pop	{r3, pc}
   d59fc:	00030260 	.word	0x00030260

000d5a00 <LED_SetBrightness>:
DYNALIB_FN(4, services, LED_SetBrightness, void(uint8_t))
   d5a00:	b508      	push	{r3, lr}
   d5a02:	4b02      	ldr	r3, [pc, #8]	; (d5a0c <LED_SetBrightness+0xc>)
   d5a04:	681b      	ldr	r3, [r3, #0]
   d5a06:	691b      	ldr	r3, [r3, #16]
   d5a08:	9301      	str	r3, [sp, #4]
   d5a0a:	bd08      	pop	{r3, pc}
   d5a0c:	00030260 	.word	0x00030260

000d5a10 <LED_RGB_IsOverRidden>:
DYNALIB_FN(5, services, LED_RGB_Get, void(uint8_t*))
DYNALIB_FN(6, services, LED_RGB_IsOverRidden, bool(void))
   d5a10:	b508      	push	{r3, lr}
   d5a12:	4b02      	ldr	r3, [pc, #8]	; (d5a1c <LED_RGB_IsOverRidden+0xc>)
   d5a14:	681b      	ldr	r3, [r3, #0]
   d5a16:	699b      	ldr	r3, [r3, #24]
   d5a18:	9301      	str	r3, [sp, #4]
   d5a1a:	bd08      	pop	{r3, pc}
   d5a1c:	00030260 	.word	0x00030260

000d5a20 <LED_On>:
DYNALIB_FN(7, services, LED_On, void(Led_TypeDef))
   d5a20:	b508      	push	{r3, lr}
   d5a22:	4b02      	ldr	r3, [pc, #8]	; (d5a2c <LED_On+0xc>)
   d5a24:	681b      	ldr	r3, [r3, #0]
   d5a26:	69db      	ldr	r3, [r3, #28]
   d5a28:	9301      	str	r3, [sp, #4]
   d5a2a:	bd08      	pop	{r3, pc}
   d5a2c:	00030260 	.word	0x00030260

000d5a30 <panic_>:
DYNALIB_FN(9, services, LED_Toggle, void(Led_TypeDef))
DYNALIB_FN(10, services, LED_Fade, void(Led_TypeDef))
DYNALIB_FN(11, services, Get_LED_Brightness, uint8_t(void))

DYNALIB_FN(12, services, set_logger_output, void(debug_output_fn, LoggerOutputLevel)) // Deprecated
DYNALIB_FN(13, services, panic_, void(ePanicCode, void*, void(*)(uint32_t)))
   d5a30:	b508      	push	{r3, lr}
   d5a32:	4b02      	ldr	r3, [pc, #8]	; (d5a3c <panic_+0xc>)
   d5a34:	681b      	ldr	r3, [r3, #0]
   d5a36:	6b5b      	ldr	r3, [r3, #52]	; 0x34
   d5a38:	9301      	str	r3, [sp, #4]
   d5a3a:	bd08      	pop	{r3, pc}
   d5a3c:	00030260 	.word	0x00030260

000d5a40 <log_message>:
DYNALIB_FN(16, services, log_print_, void(int, int, const char*, const char*, const char*, ...)) // Deprecated
DYNALIB_FN(17, services, LED_RGB_SetChangeHandler, void(led_update_handler_fn, void*))
DYNALIB_FN(18, services, log_print_direct_, void(int, void*, const char*, ...)) // Deprecated
DYNALIB_FN(19, services, LED_GetColor, uint32_t(uint32_t, void*))

DYNALIB_FN(20, services, log_message, void(int, const char*, LogAttributes*, void*, const char*, ...))
   d5a40:	b508      	push	{r3, lr}
   d5a42:	4b02      	ldr	r3, [pc, #8]	; (d5a4c <log_message+0xc>)
   d5a44:	681b      	ldr	r3, [r3, #0]
   d5a46:	6d1b      	ldr	r3, [r3, #80]	; 0x50
   d5a48:	9301      	str	r3, [sp, #4]
   d5a4a:	bd08      	pop	{r3, pc}
   d5a4c:	00030260 	.word	0x00030260

000d5a50 <set_system_mode>:
#endif

DYNALIB_BEGIN(system)

DYNALIB_FN(0, system, system_mode, System_Mode_TypeDef(void))
DYNALIB_FN(1, system, set_system_mode, void(System_Mode_TypeDef))
   d5a50:	b508      	push	{r3, lr}
   d5a52:	4b02      	ldr	r3, [pc, #8]	; (d5a5c <set_system_mode+0xc>)
   d5a54:	681b      	ldr	r3, [r3, #0]
   d5a56:	685b      	ldr	r3, [r3, #4]
   d5a58:	9301      	str	r3, [sp, #4]
   d5a5a:	bd08      	pop	{r3, pc}
   d5a5c:	00030220 	.word	0x00030220

000d5a60 <system_delay_ms>:

DYNALIB_FN(2, system, set_ymodem_serial_flash_update_handler, void(ymodem_serial_flash_update_handler))
DYNALIB_FN(3, system, system_firmwareUpdate, bool(Stream*, void*))
DYNALIB_FN(4, system, system_fileTransfer, bool(system_file_transfer_t*, void*))

DYNALIB_FN(5, system, system_delay_ms, void(unsigned long, bool))
   d5a60:	b508      	push	{r3, lr}
   d5a62:	4b02      	ldr	r3, [pc, #8]	; (d5a6c <system_delay_ms+0xc>)
   d5a64:	681b      	ldr	r3, [r3, #0]
   d5a66:	695b      	ldr	r3, [r3, #20]
   d5a68:	9301      	str	r3, [sp, #4]
   d5a6a:	bd08      	pop	{r3, pc}
   d5a6c:	00030220 	.word	0x00030220

000d5a70 <system_ctrl_set_app_request_handler>:
DYNALIB_FN(BASE_IDX + 6, system, led_pattern_period, uint16_t(int, int, void*))
DYNALIB_FN(BASE_IDX + 7, system, system_set_tester_handlers, int(system_tester_handlers_t*, void*))
DYNALIB_FN(BASE_IDX + 8, system, system_format_diag_data, int(const uint16_t*, size_t, unsigned, appender_fn, void*, void*))

// Control requests
DYNALIB_FN(BASE_IDX + 9, system, system_ctrl_set_app_request_handler, int(ctrl_request_handler_fn, void*))
   d5a70:	b508      	push	{r3, lr}
   d5a72:	4b03      	ldr	r3, [pc, #12]	; (d5a80 <system_ctrl_set_app_request_handler+0x10>)
   d5a74:	681b      	ldr	r3, [r3, #0]
   d5a76:	f8d3 3088 	ldr.w	r3, [r3, #136]	; 0x88
   d5a7a:	9301      	str	r3, [sp, #4]
   d5a7c:	bd08      	pop	{r3, pc}
   d5a7e:	0000      	.short	0x0000
   d5a80:	00030220 	.word	0x00030220

000d5a84 <system_ctrl_set_result>:
DYNALIB_FN(BASE_IDX + 10, system, system_ctrl_alloc_reply_data, int(ctrl_request*, size_t, void*))
DYNALIB_FN(BASE_IDX + 11, system, system_ctrl_free_request_data, void(ctrl_request*, void*))
DYNALIB_FN(BASE_IDX + 12, system, system_ctrl_set_result, void(ctrl_request*, int, ctrl_completion_handler_fn, void*, void*))
   d5a84:	b508      	push	{r3, lr}
   d5a86:	4b03      	ldr	r3, [pc, #12]	; (d5a94 <system_ctrl_set_result+0x10>)
   d5a88:	681b      	ldr	r3, [r3, #0]
   d5a8a:	f8d3 3094 	ldr.w	r3, [r3, #148]	; 0x94
   d5a8e:	9301      	str	r3, [sp, #4]
   d5a90:	bd08      	pop	{r3, pc}
   d5a92:	0000      	.short	0x0000
   d5a94:	00030220 	.word	0x00030220

000d5a98 <network_connect>:
#endif

DYNALIB_BEGIN(system_net)

DYNALIB_FN(0, system_net, network_config, const void*(network_handle_t, uint32_t, void*))
DYNALIB_FN(1, system_net, network_connect, void(network_handle_t, uint32_t, uint32_t, void*))
   d5a98:	b508      	push	{r3, lr}
   d5a9a:	4b02      	ldr	r3, [pc, #8]	; (d5aa4 <network_connect+0xc>)
   d5a9c:	681b      	ldr	r3, [r3, #0]
   d5a9e:	685b      	ldr	r3, [r3, #4]
   d5aa0:	9301      	str	r3, [sp, #4]
   d5aa2:	bd08      	pop	{r3, pc}
   d5aa4:	00030240 	.word	0x00030240

000d5aa8 <network_connecting>:
DYNALIB_FN(2, system_net, network_connecting, bool(network_handle_t, uint32_t, void*))
   d5aa8:	b508      	push	{r3, lr}
   d5aaa:	4b02      	ldr	r3, [pc, #8]	; (d5ab4 <network_connecting+0xc>)
   d5aac:	681b      	ldr	r3, [r3, #0]
   d5aae:	689b      	ldr	r3, [r3, #8]
   d5ab0:	9301      	str	r3, [sp, #4]
   d5ab2:	bd08      	pop	{r3, pc}
   d5ab4:	00030240 	.word	0x00030240

000d5ab8 <network_disconnect>:
DYNALIB_FN(3, system_net, network_disconnect, void(network_handle_t, uint32_t, void*))
   d5ab8:	b508      	push	{r3, lr}
   d5aba:	4b02      	ldr	r3, [pc, #8]	; (d5ac4 <network_disconnect+0xc>)
   d5abc:	681b      	ldr	r3, [r3, #0]
   d5abe:	68db      	ldr	r3, [r3, #12]
   d5ac0:	9301      	str	r3, [sp, #4]
   d5ac2:	bd08      	pop	{r3, pc}
   d5ac4:	00030240 	.word	0x00030240

000d5ac8 <network_ready>:
DYNALIB_FN(4, system_net, network_ready, bool(network_handle_t, uint32_t, void*))
   d5ac8:	b508      	push	{r3, lr}
   d5aca:	4b02      	ldr	r3, [pc, #8]	; (d5ad4 <network_ready+0xc>)
   d5acc:	681b      	ldr	r3, [r3, #0]
   d5ace:	691b      	ldr	r3, [r3, #16]
   d5ad0:	9301      	str	r3, [sp, #4]
   d5ad2:	bd08      	pop	{r3, pc}
   d5ad4:	00030240 	.word	0x00030240

000d5ad8 <network_on>:
DYNALIB_FN(5, system_net, network_on, void(network_handle_t, uint32_t, uint32_t, void*))
   d5ad8:	b508      	push	{r3, lr}
   d5ada:	4b02      	ldr	r3, [pc, #8]	; (d5ae4 <network_on+0xc>)
   d5adc:	681b      	ldr	r3, [r3, #0]
   d5ade:	695b      	ldr	r3, [r3, #20]
   d5ae0:	9301      	str	r3, [sp, #4]
   d5ae2:	bd08      	pop	{r3, pc}
   d5ae4:	00030240 	.word	0x00030240

000d5ae8 <network_off>:
DYNALIB_FN(6, system_net, network_off, void(network_handle_t, uint32_t, uint32_t, void*))
   d5ae8:	b508      	push	{r3, lr}
   d5aea:	4b02      	ldr	r3, [pc, #8]	; (d5af4 <network_off+0xc>)
   d5aec:	681b      	ldr	r3, [r3, #0]
   d5aee:	699b      	ldr	r3, [r3, #24]
   d5af0:	9301      	str	r3, [sp, #4]
   d5af2:	bd08      	pop	{r3, pc}
   d5af4:	00030240 	.word	0x00030240

000d5af8 <network_listen>:
DYNALIB_FN(7, system_net, network_listen, void(network_handle_t, uint32_t, void*))
   d5af8:	b508      	push	{r3, lr}
   d5afa:	4b02      	ldr	r3, [pc, #8]	; (d5b04 <network_listen+0xc>)
   d5afc:	681b      	ldr	r3, [r3, #0]
   d5afe:	69db      	ldr	r3, [r3, #28]
   d5b00:	9301      	str	r3, [sp, #4]
   d5b02:	bd08      	pop	{r3, pc}
   d5b04:	00030240 	.word	0x00030240

000d5b08 <network_listening>:
DYNALIB_FN(8, system_net, network_listening, bool(network_handle_t, uint32_t, void*))
   d5b08:	b508      	push	{r3, lr}
   d5b0a:	4b02      	ldr	r3, [pc, #8]	; (d5b14 <network_listening+0xc>)
   d5b0c:	681b      	ldr	r3, [r3, #0]
   d5b0e:	6a1b      	ldr	r3, [r3, #32]
   d5b10:	9301      	str	r3, [sp, #4]
   d5b12:	bd08      	pop	{r3, pc}
   d5b14:	00030240 	.word	0x00030240

000d5b18 <network_set_listen_timeout>:
DYNALIB_FN(9, system_net, network_has_credentials, bool(network_handle_t, uint32_t, void*))
DYNALIB_FN(10, system_net, network_set_credentials, int(network_handle_t, uint32_t, NetworkCredentials*, void*))
DYNALIB_FN(11, system_net, network_clear_credentials, bool(network_handle_t, uint32_t, NetworkCredentials*, void*))
DYNALIB_FN(12, system_net, network_set_listen_timeout, void(network_handle_t, uint16_t, void*))
   d5b18:	b508      	push	{r3, lr}
   d5b1a:	4b02      	ldr	r3, [pc, #8]	; (d5b24 <network_set_listen_timeout+0xc>)
   d5b1c:	681b      	ldr	r3, [r3, #0]
   d5b1e:	6b1b      	ldr	r3, [r3, #48]	; 0x30
   d5b20:	9301      	str	r3, [sp, #4]
   d5b22:	bd08      	pop	{r3, pc}
   d5b24:	00030240 	.word	0x00030240

000d5b28 <network_get_listen_timeout>:
DYNALIB_FN(13, system_net, network_get_listen_timeout, uint16_t(network_handle_t, uint32_t, void*))
   d5b28:	b508      	push	{r3, lr}
   d5b2a:	4b02      	ldr	r3, [pc, #8]	; (d5b34 <network_get_listen_timeout+0xc>)
   d5b2c:	681b      	ldr	r3, [r3, #0]
   d5b2e:	6b5b      	ldr	r3, [r3, #52]	; 0x34
   d5b30:	9301      	str	r3, [sp, #4]
   d5b32:	bd08      	pop	{r3, pc}
   d5b34:	00030240 	.word	0x00030240

000d5b38 <spark_set_random_seed_from_cloud_handler>:
DYNALIB_FN(10, system_cloud, spark_unsubscribe, void(void*))
DYNALIB_FN(11, system_cloud, spark_sync_time, bool(void*))
DYNALIB_FN(12, system_cloud, spark_sync_time_pending, bool(void*))
DYNALIB_FN(13, system_cloud, spark_sync_time_last, system_tick_t(time_t*, void*))
DYNALIB_FN(14, system_cloud, spark_set_connection_property, int(unsigned, unsigned, particle::protocol::connection_properties_t*, void*))
DYNALIB_FN(15, system_cloud, spark_set_random_seed_from_cloud_handler, int(void (*handler)(unsigned int), void*))
   d5b38:	b508      	push	{r3, lr}
   d5b3a:	4b02      	ldr	r3, [pc, #8]	; (d5b44 <spark_set_random_seed_from_cloud_handler+0xc>)
   d5b3c:	681b      	ldr	r3, [r3, #0]
   d5b3e:	6bdb      	ldr	r3, [r3, #60]	; 0x3c
   d5b40:	9301      	str	r3, [sp, #4]
   d5b42:	bd08      	pop	{r3, pc}
   d5b44:	00030244 	.word	0x00030244

000d5b48 <malloc>:
#include <assert.h>
#endif

DYNALIB_BEGIN(rt)

DYNALIB_FN(0, rt, malloc, void*(size_t))
   d5b48:	b508      	push	{r3, lr}
   d5b4a:	4b02      	ldr	r3, [pc, #8]	; (d5b54 <malloc+0xc>)
   d5b4c:	681b      	ldr	r3, [r3, #0]
   d5b4e:	681b      	ldr	r3, [r3, #0]
   d5b50:	9301      	str	r3, [sp, #4]
   d5b52:	bd08      	pop	{r3, pc}
   d5b54:	0003021c 	.word	0x0003021c

000d5b58 <free>:
DYNALIB_FN(1, rt, free, void(void*))
   d5b58:	b508      	push	{r3, lr}
   d5b5a:	4b02      	ldr	r3, [pc, #8]	; (d5b64 <free+0xc>)
   d5b5c:	681b      	ldr	r3, [r3, #0]
   d5b5e:	685b      	ldr	r3, [r3, #4]
   d5b60:	9301      	str	r3, [sp, #4]
   d5b62:	bd08      	pop	{r3, pc}
   d5b64:	0003021c 	.word	0x0003021c

000d5b68 <realloc>:
DYNALIB_FN(2, rt, realloc, void*(void*, size_t))
   d5b68:	b508      	push	{r3, lr}
   d5b6a:	4b02      	ldr	r3, [pc, #8]	; (d5b74 <realloc+0xc>)
   d5b6c:	681b      	ldr	r3, [r3, #0]
   d5b6e:	689b      	ldr	r3, [r3, #8]
   d5b70:	9301      	str	r3, [sp, #4]
   d5b72:	bd08      	pop	{r3, pc}
   d5b74:	0003021c 	.word	0x0003021c

000d5b78 <sprintf>:
DYNALIB_FN(3, rt, sprintf, int(char*, const char*, ...))
   d5b78:	b508      	push	{r3, lr}
   d5b7a:	4b02      	ldr	r3, [pc, #8]	; (d5b84 <sprintf+0xc>)
   d5b7c:	681b      	ldr	r3, [r3, #0]
   d5b7e:	68db      	ldr	r3, [r3, #12]
   d5b80:	9301      	str	r3, [sp, #4]
   d5b82:	bd08      	pop	{r3, pc}
   d5b84:	0003021c 	.word	0x0003021c

000d5b88 <vsnprintf>:
DYNALIB_FN(4, rt, siprintf, int(char*, const char*, ...))
DYNALIB_FN(5, rt, sscanf, int(const char*, const char*, ...))
DYNALIB_FN(6, rt, siscanf, int(const char*, const char*, ...))
DYNALIB_FN(7, rt, snprintf, int(char*, size_t, const char*, ...))
DYNALIB_FN(8, rt, sniprintf, int(char*, size_t, const char*, ...))
DYNALIB_FN(9, rt, vsnprintf, int(char*, size_t, const char*, va_list))
   d5b88:	b508      	push	{r3, lr}
   d5b8a:	4b02      	ldr	r3, [pc, #8]	; (d5b94 <vsnprintf+0xc>)
   d5b8c:	681b      	ldr	r3, [r3, #0]
   d5b8e:	6a5b      	ldr	r3, [r3, #36]	; 0x24
   d5b90:	9301      	str	r3, [sp, #4]
   d5b92:	bd08      	pop	{r3, pc}
   d5b94:	0003021c 	.word	0x0003021c

000d5b98 <_ZN5spark13EthernetClass9listeningEv>:
    uint16_t getListenTimeout(void) {
        return network_get_listen_timeout(*this, 0, NULL);
    }

    bool listening(void) {
        return network_listening(*this, 0, NULL);
   d5b98:	2200      	movs	r2, #0
   d5b9a:	4611      	mov	r1, r2
   d5b9c:	6840      	ldr	r0, [r0, #4]
   d5b9e:	f7ff bfb3 	b.w	d5b08 <network_listening>

000d5ba2 <_ZN5spark13EthernetClass16getListenTimeoutEv>:
    void setListenTimeout(uint16_t timeout) {
        network_set_listen_timeout(*this, timeout, NULL);
    }

    uint16_t getListenTimeout(void) {
        return network_get_listen_timeout(*this, 0, NULL);
   d5ba2:	2200      	movs	r2, #0
   d5ba4:	4611      	mov	r1, r2
   d5ba6:	6840      	ldr	r0, [r0, #4]
   d5ba8:	f7ff bfbe 	b.w	d5b28 <network_get_listen_timeout>

000d5bac <_ZN5spark13EthernetClass16setListenTimeoutEt>:
    void listen(bool begin=true) {
        network_listen(*this, begin ? 0 : 1, NULL);
    }

    void setListenTimeout(uint16_t timeout) {
        network_set_listen_timeout(*this, timeout, NULL);
   d5bac:	2200      	movs	r2, #0
   d5bae:	6840      	ldr	r0, [r0, #4]
   d5bb0:	f7ff bfb2 	b.w	d5b18 <network_set_listen_timeout>

000d5bb4 <_ZN5spark13EthernetClass6listenEb>:
    void disconnect() {
        network_disconnect(*this, NETWORK_DISCONNECT_REASON_USER, NULL);
    }

    void listen(bool begin=true) {
        network_listen(*this, begin ? 0 : 1, NULL);
   d5bb4:	2200      	movs	r2, #0
   d5bb6:	f081 0101 	eor.w	r1, r1, #1
   d5bba:	6840      	ldr	r0, [r0, #4]
   d5bbc:	f7ff bf9c 	b.w	d5af8 <network_listen>

000d5bc0 <_ZN5spark13EthernetClass3offEv>:
    void on() {
        network_on(*this, 0, 0, NULL);
    }

    void off() {
        network_off(*this, 0, 0, NULL);
   d5bc0:	2300      	movs	r3, #0
   d5bc2:	461a      	mov	r2, r3
   d5bc4:	4619      	mov	r1, r3
   d5bc6:	6840      	ldr	r0, [r0, #4]
   d5bc8:	f7ff bf8e 	b.w	d5ae8 <network_off>

000d5bcc <_ZN5spark13EthernetClass2onEv>:
    EthernetClass() :
            NetworkClass(NETWORK_INTERFACE_ETHERNET) {
    }

    void on() {
        network_on(*this, 0, 0, NULL);
   d5bcc:	2300      	movs	r3, #0
   d5bce:	461a      	mov	r2, r3
   d5bd0:	4619      	mov	r1, r3
   d5bd2:	6840      	ldr	r0, [r0, #4]
   d5bd4:	f7ff bf80 	b.w	d5ad8 <network_on>

000d5bd8 <_ZN5spark13EthernetClass5readyEv>:
    bool listening(void) {
        return network_listening(*this, 0, NULL);
    }

    bool ready() {
        return network_ready(*this, 0,  NULL);
   d5bd8:	2200      	movs	r2, #0
   d5bda:	4611      	mov	r1, r2
   d5bdc:	6840      	ldr	r0, [r0, #4]
   d5bde:	f7ff bf73 	b.w	d5ac8 <network_ready>

000d5be2 <_ZN5spark13EthernetClass10connectingEv>:
    void connect(unsigned flags=0) {
        network_connect(*this, flags, 0, NULL);
    }

    bool connecting(void) {
        return network_connecting(*this, 0, NULL);
   d5be2:	2200      	movs	r2, #0
   d5be4:	4611      	mov	r1, r2
   d5be6:	6840      	ldr	r0, [r0, #4]
   d5be8:	f7ff bf5e 	b.w	d5aa8 <network_connecting>

000d5bec <_ZN5spark13EthernetClass10disconnectEv>:
    }

    void disconnect() {
        network_disconnect(*this, NETWORK_DISCONNECT_REASON_USER, NULL);
   d5bec:	2200      	movs	r2, #0
   d5bee:	2102      	movs	r1, #2
   d5bf0:	6840      	ldr	r0, [r0, #4]
   d5bf2:	f7ff bf61 	b.w	d5ab8 <network_disconnect>

000d5bf6 <_ZN5spark13EthernetClass7connectEj>:
    void off() {
        network_off(*this, 0, 0, NULL);
    }

    void connect(unsigned flags=0) {
        network_connect(*this, flags, 0, NULL);
   d5bf6:	2300      	movs	r3, #0
   d5bf8:	461a      	mov	r2, r3
   d5bfa:	6840      	ldr	r0, [r0, #4]
   d5bfc:	f7ff bf4c 	b.w	d5a98 <network_connect>

000d5c00 <_GLOBAL__sub_I__ZN5spark8EthernetE>:
    static NetworkClass& from(network_interface_t nif);

    virtual IPAddress resolve(const char* name);

    explicit NetworkClass(network_interface_t iface)
            : iface_(iface) {
   d5c00:	4b02      	ldr	r3, [pc, #8]	; (d5c0c <_GLOBAL__sub_I__ZN5spark8EthernetE+0xc>)
   d5c02:	2203      	movs	r2, #3
   d5c04:	605a      	str	r2, [r3, #4]
    }

class EthernetClass : public NetworkClass {
public:
    EthernetClass() :
            NetworkClass(NETWORK_INTERFACE_ETHERNET) {
   d5c06:	4a02      	ldr	r2, [pc, #8]	; (d5c10 <_GLOBAL__sub_I__ZN5spark8EthernetE+0x10>)
   d5c08:	601a      	str	r2, [r3, #0]
   d5c0a:	4770      	bx	lr
   d5c0c:	2003e3bc 	.word	0x2003e3bc
   d5c10:	000d8468 	.word	0x000d8468

000d5c14 <_ZN8SPIClassC1E17HAL_SPI_Interface>:
    }
    return particle::__SPISettings(info->clock, info->bit_order, info->data_mode);
}
} // namespace

SPIClass::SPIClass(HAL_SPI_Interface spi)
   d5c14:	b510      	push	{r4, lr}
   d5c16:	4604      	mov	r4, r0
{
    _spi = spi;
   d5c18:	7001      	strb	r1, [r0, #0]
    HAL_SPI_Init(_spi);
   d5c1a:	4608      	mov	r0, r1
   d5c1c:	f7ff fd06 	bl	d562c <HAL_SPI_Init>
    _dividerReference = SPI_CLK_SYSTEM; // 0 indicates the system clock
   d5c20:	2300      	movs	r3, #0
   d5c22:	6063      	str	r3, [r4, #4]
}
   d5c24:	4620      	mov	r0, r4
   d5c26:	bd10      	pop	{r4, pc}

000d5c28 <_ZN8SPIClass9isEnabledEv>:
bool SPIClass::isEnabled()
{
    // XXX: pinAvailable() will call this method potentially even from
    // interrupt context. `enabled` flag in HAL is usually just a volatile
    // variable, so it's fine not to acquire the lock here.
    return HAL_SPI_Is_Enabled(_spi);
   d5c28:	7800      	ldrb	r0, [r0, #0]
   d5c2a:	f7ff bd07 	b.w	d563c <HAL_SPI_Is_Enabled>
	...

000d5c30 <_GLOBAL__sub_I_System>:
    return wokenUpByRtc();
}

system_error_t SleepResult::error() const {
    return err_;
   d5c30:	b510      	push	{r4, lr}

class SystemSleepResult {
public:
    SystemSleepResult()
            : wakeupSource_(nullptr),
              error_(SYSTEM_ERROR_NONE) {
   d5c32:	4c09      	ldr	r4, [pc, #36]	; (d5c58 <_GLOBAL__sub_I_System+0x28>)
   d5c34:	2000      	movs	r0, #0
    WAKEUP_REASON_PIN_OR_RTC = 3,
    WAKEUP_REASON_UNKNOWN = 4
};

struct SleepResult {
    SleepResult() {}
   d5c36:	f64f 73ff 	movw	r3, #65535	; 0xffff

class SystemSleepResult {
public:
    SystemSleepResult()
            : wakeupSource_(nullptr),
              error_(SYSTEM_ERROR_NONE) {
   d5c3a:	6020      	str	r0, [r4, #0]
   d5c3c:	80a0      	strh	r0, [r4, #4]
    WAKEUP_REASON_PIN_OR_RTC = 3,
    WAKEUP_REASON_UNKNOWN = 4
};

struct SleepResult {
    SleepResult() {}
   d5c3e:	71a0      	strb	r0, [r4, #6]
   d5c40:	8120      	strh	r0, [r4, #8]
   d5c42:	8163      	strh	r3, [r4, #10]

class SystemClass {
public:

    SystemClass(System_Mode_TypeDef mode = DEFAULT) {
        set_system_mode(mode);
   d5c44:	f7ff ff04 	bl	d5a50 <set_system_mode>

#if Wiring_LogConfig
extern void(*log_process_ctrl_request_callback)(ctrl_request* req);
#endif

SystemClass System;
   d5c48:	4620      	mov	r0, r4
   d5c4a:	4a04      	ldr	r2, [pc, #16]	; (d5c5c <_GLOBAL__sub_I_System+0x2c>)
   d5c4c:	4904      	ldr	r1, [pc, #16]	; (d5c60 <_GLOBAL__sub_I_System+0x30>)
    return wokenUpByRtc();
}

system_error_t SleepResult::error() const {
    return err_;
   d5c4e:	e8bd 4010 	ldmia.w	sp!, {r4, lr}

#if Wiring_LogConfig
extern void(*log_process_ctrl_request_callback)(ctrl_request* req);
#endif

SystemClass System;
   d5c52:	f001 bf2f 	b.w	d7ab4 <__aeabi_atexit>
   d5c56:	bf00      	nop
   d5c58:	2003e3c4 	.word	0x2003e3c4
   d5c5c:	2003e36c 	.word	0x2003e36c
   d5c60:	000d41d5 	.word	0x000d41d5

000d5c64 <_ZN6StringD1Ev>:
	init();
	char buf[33];
	dtoa(value, decimalPlaces, buf);
        *this = buf;
}
String::~String()
   d5c64:	b510      	push	{r4, lr}
   d5c66:	4604      	mov	r4, r0
{
	free(buffer);
   d5c68:	6800      	ldr	r0, [r0, #0]
   d5c6a:	f7ff ff75 	bl	d5b58 <free>
}
   d5c6e:	4620      	mov	r0, r4
   d5c70:	bd10      	pop	{r4, pc}

000d5c72 <_ZN6String10invalidateEv>:
	len = 0;
	flags = 0;
}

void String::invalidate(void)
{
   d5c72:	b510      	push	{r4, lr}
   d5c74:	4604      	mov	r4, r0
	if (buffer) free(buffer);
   d5c76:	6800      	ldr	r0, [r0, #0]
   d5c78:	b108      	cbz	r0, d5c7e <_ZN6String10invalidateEv+0xc>
   d5c7a:	f7ff ff6d 	bl	d5b58 <free>
	buffer = NULL;
   d5c7e:	2300      	movs	r3, #0
   d5c80:	6023      	str	r3, [r4, #0]
	capacity = len = 0;
   d5c82:	60a3      	str	r3, [r4, #8]
   d5c84:	6063      	str	r3, [r4, #4]
   d5c86:	bd10      	pop	{r4, pc}

000d5c88 <_ZN6String12changeBufferEj>:
	}
	return 0;
}

unsigned char String::changeBuffer(unsigned int maxStrLen)
{
   d5c88:	b538      	push	{r3, r4, r5, lr}
   d5c8a:	4604      	mov	r4, r0
   d5c8c:	460d      	mov	r5, r1
	char *newbuffer = (char *)realloc(buffer, maxStrLen + 1);
   d5c8e:	6800      	ldr	r0, [r0, #0]
   d5c90:	3101      	adds	r1, #1
   d5c92:	f7ff ff69 	bl	d5b68 <realloc>
	if (newbuffer) {
   d5c96:	b110      	cbz	r0, d5c9e <_ZN6String12changeBufferEj+0x16>
		buffer = newbuffer;
		capacity = maxStrLen;
   d5c98:	e884 0021 	stmia.w	r4, {r0, r5}
		return 1;
   d5c9c:	2001      	movs	r0, #1
	}
	return 0;
}
   d5c9e:	bd38      	pop	{r3, r4, r5, pc}

000d5ca0 <_ZN6String7reserveEj>:
	buffer = NULL;
	capacity = len = 0;
}

unsigned char String::reserve(unsigned int size)
{
   d5ca0:	b510      	push	{r4, lr}
	if (buffer && capacity >= size) return 1;
   d5ca2:	6803      	ldr	r3, [r0, #0]
	buffer = NULL;
	capacity = len = 0;
}

unsigned char String::reserve(unsigned int size)
{
   d5ca4:	4604      	mov	r4, r0
	if (buffer && capacity >= size) return 1;
   d5ca6:	b113      	cbz	r3, d5cae <_ZN6String7reserveEj+0xe>
   d5ca8:	6843      	ldr	r3, [r0, #4]
   d5caa:	428b      	cmp	r3, r1
   d5cac:	d207      	bcs.n	d5cbe <_ZN6String7reserveEj+0x1e>
	if (changeBuffer(size)) {
   d5cae:	4620      	mov	r0, r4
   d5cb0:	f7ff ffea 	bl	d5c88 <_ZN6String12changeBufferEj>
   d5cb4:	b120      	cbz	r0, d5cc0 <_ZN6String7reserveEj+0x20>
		if (len == 0) buffer[0] = 0;
   d5cb6:	68a3      	ldr	r3, [r4, #8]
   d5cb8:	b90b      	cbnz	r3, d5cbe <_ZN6String7reserveEj+0x1e>
   d5cba:	6822      	ldr	r2, [r4, #0]
   d5cbc:	7013      	strb	r3, [r2, #0]
   d5cbe:	2001      	movs	r0, #1
		return 1;
	}
	return 0;
}
   d5cc0:	bd10      	pop	{r4, pc}

000d5cc2 <_ZN6String4copyEPKcj>:
/*********************************************/
/*  Copy and Move                            */
/*********************************************/

String & String::copy(const char *cstr, unsigned int length)
{
   d5cc2:	b570      	push	{r4, r5, r6, lr}
   d5cc4:	460e      	mov	r6, r1
	if (!reserve(length)) {
   d5cc6:	4611      	mov	r1, r2
/*********************************************/
/*  Copy and Move                            */
/*********************************************/

String & String::copy(const char *cstr, unsigned int length)
{
   d5cc8:	4604      	mov	r4, r0
   d5cca:	4615      	mov	r5, r2
	if (!reserve(length)) {
   d5ccc:	f7ff ffe8 	bl	d5ca0 <_ZN6String7reserveEj>
   d5cd0:	b918      	cbnz	r0, d5cda <_ZN6String4copyEPKcj+0x18>
		invalidate();
   d5cd2:	4620      	mov	r0, r4
   d5cd4:	f7ff ffcd 	bl	d5c72 <_ZN6String10invalidateEv>
		return *this;
   d5cd8:	e009      	b.n	d5cee <_ZN6String4copyEPKcj+0x2c>
	}
	len = length;
	memcpy(buffer, cstr, length);
   d5cda:	462a      	mov	r2, r5
   d5cdc:	4631      	mov	r1, r6
{
	if (!reserve(length)) {
		invalidate();
		return *this;
	}
	len = length;
   d5cde:	60a5      	str	r5, [r4, #8]
	memcpy(buffer, cstr, length);
   d5ce0:	6820      	ldr	r0, [r4, #0]
   d5ce2:	f002 f86e 	bl	d7dc2 <memcpy>
	buffer[len] = 0;
   d5ce6:	6822      	ldr	r2, [r4, #0]
   d5ce8:	68a3      	ldr	r3, [r4, #8]
   d5cea:	2100      	movs	r1, #0
   d5cec:	54d1      	strb	r1, [r2, r3]
	return *this;
}
   d5cee:	4620      	mov	r0, r4
   d5cf0:	bd70      	pop	{r4, r5, r6, pc}

000d5cf2 <_ZN6StringC1EPK19__FlashStringHelper>:
{
	init();
	*this = value;
}

String::String(const __FlashStringHelper *pstr)
   d5cf2:	b538      	push	{r3, r4, r5, lr}
/*  Memory Management                        */
/*********************************************/

inline void String::init(void)
{
	buffer = NULL;
   d5cf4:	2300      	movs	r3, #0
{
	init();
	*this = value;
}

String::String(const __FlashStringHelper *pstr)
   d5cf6:	4604      	mov	r4, r0
/*  Memory Management                        */
/*********************************************/

inline void String::init(void)
{
	buffer = NULL;
   d5cf8:	6003      	str	r3, [r0, #0]
	capacity = 0;
   d5cfa:	6043      	str	r3, [r0, #4]
	len = 0;
   d5cfc:	6083      	str	r3, [r0, #8]
	flags = 0;
   d5cfe:	7303      	strb	r3, [r0, #12]

String::String(const __FlashStringHelper *pstr)
{
	init();
	const char* cstr = reinterpret_cast<const char*>(pstr);
	if (cstr) copy(cstr, strlen(cstr));
   d5d00:	460d      	mov	r5, r1
   d5d02:	b139      	cbz	r1, d5d14 <_ZN6StringC1EPK19__FlashStringHelper+0x22>
   d5d04:	4608      	mov	r0, r1
   d5d06:	f002 f8bb 	bl	d7e80 <strlen>
   d5d0a:	4629      	mov	r1, r5
   d5d0c:	4602      	mov	r2, r0
   d5d0e:	4620      	mov	r0, r4
   d5d10:	f7ff ffd7 	bl	d5cc2 <_ZN6String4copyEPKcj>
}
   d5d14:	4620      	mov	r0, r4
   d5d16:	bd38      	pop	{r3, r4, r5, pc}

000d5d18 <_ZN6StringaSERKS_>:
}
#endif

String & String::operator = (const String &rhs)
{
	if (this == &rhs) return *this;
   d5d18:	4288      	cmp	r0, r1
	rhs.len = 0;
}
#endif

String & String::operator = (const String &rhs)
{
   d5d1a:	b510      	push	{r4, lr}
   d5d1c:	460b      	mov	r3, r1
   d5d1e:	4604      	mov	r4, r0
	if (this == &rhs) return *this;
   d5d20:	d007      	beq.n	d5d32 <_ZN6StringaSERKS_+0x1a>

	if (rhs.buffer) copy(rhs.buffer, rhs.len);
   d5d22:	6809      	ldr	r1, [r1, #0]
   d5d24:	b119      	cbz	r1, d5d2e <_ZN6StringaSERKS_+0x16>
   d5d26:	689a      	ldr	r2, [r3, #8]
   d5d28:	f7ff ffcb 	bl	d5cc2 <_ZN6String4copyEPKcj>
   d5d2c:	e001      	b.n	d5d32 <_ZN6StringaSERKS_+0x1a>
	else invalidate();
   d5d2e:	f7ff ffa0 	bl	d5c72 <_ZN6String10invalidateEv>

	return *this;
}
   d5d32:	4620      	mov	r0, r4
   d5d34:	bd10      	pop	{r4, pc}

000d5d36 <_ZN6StringC1ERKS_>:
{
	init();
	if (cstr) copy(cstr, length);
}

String::String(const String &value)
   d5d36:	b510      	push	{r4, lr}
/*  Memory Management                        */
/*********************************************/

inline void String::init(void)
{
	buffer = NULL;
   d5d38:	2300      	movs	r3, #0
{
	init();
	if (cstr) copy(cstr, length);
}

String::String(const String &value)
   d5d3a:	4604      	mov	r4, r0
/*  Memory Management                        */
/*********************************************/

inline void String::init(void)
{
	buffer = NULL;
   d5d3c:	6003      	str	r3, [r0, #0]
	capacity = 0;
   d5d3e:	6043      	str	r3, [r0, #4]
	len = 0;
   d5d40:	6083      	str	r3, [r0, #8]
	flags = 0;
   d5d42:	7303      	strb	r3, [r0, #12]
}

String::String(const String &value)
{
	init();
	*this = value;
   d5d44:	f7ff ffe8 	bl	d5d18 <_ZN6StringaSERKS_>
}
   d5d48:	4620      	mov	r0, r4
   d5d4a:	bd10      	pop	{r4, pc}

000d5d4c <_ZN6StringaSEPKc>:
	return *this;
}
#endif

String & String::operator = (const char *cstr)
{
   d5d4c:	b538      	push	{r3, r4, r5, lr}
   d5d4e:	4605      	mov	r5, r0
	if (cstr) copy(cstr, strlen(cstr));
   d5d50:	460c      	mov	r4, r1
   d5d52:	b141      	cbz	r1, d5d66 <_ZN6StringaSEPKc+0x1a>
   d5d54:	4608      	mov	r0, r1
   d5d56:	f002 f893 	bl	d7e80 <strlen>
   d5d5a:	4621      	mov	r1, r4
   d5d5c:	4602      	mov	r2, r0
   d5d5e:	4628      	mov	r0, r5
   d5d60:	f7ff ffaf 	bl	d5cc2 <_ZN6String4copyEPKcj>
   d5d64:	e001      	b.n	d5d6a <_ZN6StringaSEPKc+0x1e>
	else invalidate();
   d5d66:	f7ff ff84 	bl	d5c72 <_ZN6String10invalidateEv>

	return *this;
}
   d5d6a:	4628      	mov	r0, r5
   d5d6c:	bd38      	pop	{r3, r4, r5, pc}

000d5d6e <_ZN6String6concatEPKcj>:
{
	return concat(s.buffer, s.len);
}

unsigned char String::concat(const char *cstr, unsigned int length)
{
   d5d6e:	b570      	push	{r4, r5, r6, lr}
   d5d70:	4604      	mov	r4, r0
	unsigned int newlen = len + length;
	if (!cstr) return 0;
   d5d72:	460e      	mov	r6, r1
   d5d74:	b909      	cbnz	r1, d5d7a <_ZN6String6concatEPKcj+0xc>
   d5d76:	2000      	movs	r0, #0
   d5d78:	bd70      	pop	{r4, r5, r6, pc}
	if (length == 0) return 1;
   d5d7a:	b16a      	cbz	r2, d5d98 <_ZN6String6concatEPKcj+0x2a>
	return concat(s.buffer, s.len);
}

unsigned char String::concat(const char *cstr, unsigned int length)
{
	unsigned int newlen = len + length;
   d5d7c:	6883      	ldr	r3, [r0, #8]
   d5d7e:	18d5      	adds	r5, r2, r3
	if (!cstr) return 0;
	if (length == 0) return 1;
	if (!reserve(newlen)) return 0;
   d5d80:	4629      	mov	r1, r5
   d5d82:	f7ff ff8d 	bl	d5ca0 <_ZN6String7reserveEj>
   d5d86:	2800      	cmp	r0, #0
   d5d88:	d0f5      	beq.n	d5d76 <_ZN6String6concatEPKcj+0x8>
	strcpy(buffer + len, cstr);
   d5d8a:	6820      	ldr	r0, [r4, #0]
   d5d8c:	68a3      	ldr	r3, [r4, #8]
   d5d8e:	4631      	mov	r1, r6
   d5d90:	4418      	add	r0, r3
   d5d92:	f002 f86d 	bl	d7e70 <strcpy>
	len = newlen;
   d5d96:	60a5      	str	r5, [r4, #8]

unsigned char String::concat(const char *cstr, unsigned int length)
{
	unsigned int newlen = len + length;
	if (!cstr) return 0;
	if (length == 0) return 1;
   d5d98:	2001      	movs	r0, #1
	if (!reserve(newlen)) return 0;
	strcpy(buffer + len, cstr);
	len = newlen;
	return 1;
}
   d5d9a:	bd70      	pop	{r4, r5, r6, pc}

000d5d9c <_ZN6String6concatEPKc>:

unsigned char String::concat(const char *cstr)
{
   d5d9c:	b538      	push	{r3, r4, r5, lr}
   d5d9e:	4605      	mov	r5, r0
	if (!cstr) return 0;
   d5da0:	460c      	mov	r4, r1
	return concat(cstr, strlen(cstr));
}
   d5da2:	4608      	mov	r0, r1
	return 1;
}

unsigned char String::concat(const char *cstr)
{
	if (!cstr) return 0;
   d5da4:	b141      	cbz	r1, d5db8 <_ZN6String6concatEPKc+0x1c>
	return concat(cstr, strlen(cstr));
   d5da6:	f002 f86b 	bl	d7e80 <strlen>
   d5daa:	4621      	mov	r1, r4
   d5dac:	4602      	mov	r2, r0
   d5dae:	4628      	mov	r0, r5
}
   d5db0:	e8bd 4038 	ldmia.w	sp!, {r3, r4, r5, lr}
}

unsigned char String::concat(const char *cstr)
{
	if (!cstr) return 0;
	return concat(cstr, strlen(cstr));
   d5db4:	f7ff bfdb 	b.w	d5d6e <_ZN6String6concatEPKcj>
}
   d5db8:	bd38      	pop	{r3, r4, r5, pc}

000d5dba <_ZN6String6removeEjj>:
String& String::remove(unsigned int index){
        int count = len - index;
        return remove(index, count);
}

String& String::remove(unsigned int index, unsigned int count){
   d5dba:	b538      	push	{r3, r4, r5, lr}
   d5dbc:	4604      	mov	r4, r0
   d5dbe:	4608      	mov	r0, r1
	if (index >= len) { return *this; }
   d5dc0:	68a3      	ldr	r3, [r4, #8]
   d5dc2:	428b      	cmp	r3, r1
   d5dc4:	d911      	bls.n	d5dea <_ZN6String6removeEjj+0x30>
	if (count <= 0) { return *this; }
   d5dc6:	b182      	cbz	r2, d5dea <_ZN6String6removeEjj+0x30>
	if (index + count > len) { count = len - index; }
   d5dc8:	4411      	add	r1, r2
   d5dca:	428b      	cmp	r3, r1
   d5dcc:	bf38      	it	cc
   d5dce:	1a1a      	subcc	r2, r3, r0
	char *writeTo = buffer + index;
   d5dd0:	6825      	ldr	r5, [r4, #0]
	len = len - count;
   d5dd2:	1a9b      	subs	r3, r3, r2
	memmove(writeTo, buffer + index + count,len - index);
   d5dd4:	1811      	adds	r1, r2, r0
String& String::remove(unsigned int index, unsigned int count){
	if (index >= len) { return *this; }
	if (count <= 0) { return *this; }
	if (index + count > len) { count = len - index; }
	char *writeTo = buffer + index;
	len = len - count;
   d5dd6:	60a3      	str	r3, [r4, #8]
	memmove(writeTo, buffer + index + count,len - index);
   d5dd8:	1a1a      	subs	r2, r3, r0
   d5dda:	4429      	add	r1, r5
   d5ddc:	4428      	add	r0, r5
   d5dde:	f001 fffb 	bl	d7dd8 <memmove>
	buffer[len] = 0;
   d5de2:	6822      	ldr	r2, [r4, #0]
   d5de4:	68a3      	ldr	r3, [r4, #8]
   d5de6:	2100      	movs	r1, #0
   d5de8:	54d1      	strb	r1, [r2, r3]
	return *this;
}
   d5dea:	4620      	mov	r0, r4
   d5dec:	bd38      	pop	{r3, r4, r5, pc}

000d5dee <_ZN6String6removeEj>:
        return *this;
}

String& String::remove(unsigned int index){
        int count = len - index;
        return remove(index, count);
   d5dee:	6882      	ldr	r2, [r0, #8]
   d5df0:	1a52      	subs	r2, r2, r1
   d5df2:	f7ff bfe2 	b.w	d5dba <_ZN6String6removeEjj>

000d5df6 <_ZNSt19_Sp_counted_deleterIPN8particle17BlePeerDeviceImplENSt12__shared_ptrIS1_LN9__gnu_cxx12_Lock_policyE0EE8_DeleterISaIS1_EEES8_LS5_0EED1Ev>:

      // __d(__p) must not throw.
      _Sp_counted_deleter(_Ptr __p, _Deleter __d, const _Alloc& __a) noexcept
      : _M_impl(__p, __d, __a) { }

      ~_Sp_counted_deleter() noexcept { }
   d5df6:	4770      	bx	lr

000d5df8 <_ZNSt19_Sp_counted_deleterIPN8particle17BlePeerDeviceImplENSt12__shared_ptrIS1_LN9__gnu_cxx12_Lock_policyE0EE8_DeleterISaIS1_EEES8_LS5_0EE14_M_get_deleterERKSt9type_info>:
	  ? std::__addressof(_M_impl._M_del())
	  : nullptr;
#else
        return nullptr;
#endif
      }
   d5df8:	2000      	movs	r0, #0
   d5dfa:	4770      	bx	lr

000d5dfc <_ZNSt19_Sp_counted_deleterIPN8particle14BleServiceImplENSt12__shared_ptrIS1_LN9__gnu_cxx12_Lock_policyE0EE8_DeleterISaIS1_EEES8_LS5_0EED1Ev>:

      // __d(__p) must not throw.
      _Sp_counted_deleter(_Ptr __p, _Deleter __d, const _Alloc& __a) noexcept
      : _M_impl(__p, __d, __a) { }

      ~_Sp_counted_deleter() noexcept { }
   d5dfc:	4770      	bx	lr

000d5dfe <_ZNSt19_Sp_counted_deleterIPN8particle14BleServiceImplENSt12__shared_ptrIS1_LN9__gnu_cxx12_Lock_policyE0EE8_DeleterISaIS1_EEES8_LS5_0EE14_M_get_deleterERKSt9type_info>:
	  ? std::__addressof(_M_impl._M_del())
	  : nullptr;
#else
        return nullptr;
#endif
      }
   d5dfe:	2000      	movs	r0, #0
   d5e00:	4770      	bx	lr

000d5e02 <_ZNSt19_Sp_counted_deleterIPN8particle21BleCharacteristicImplENSt12__shared_ptrIS1_LN9__gnu_cxx12_Lock_policyE0EE8_DeleterISaIS1_EEES8_LS5_0EED1Ev>:

      // __d(__p) must not throw.
      _Sp_counted_deleter(_Ptr __p, _Deleter __d, const _Alloc& __a) noexcept
      : _M_impl(__p, __d, __a) { }

      ~_Sp_counted_deleter() noexcept { }
   d5e02:	4770      	bx	lr

000d5e04 <_ZNSt19_Sp_counted_deleterIPN8particle21BleCharacteristicImplENSt12__shared_ptrIS1_LN9__gnu_cxx12_Lock_policyE0EE8_DeleterISaIS1_EEES8_LS5_0EE14_M_get_deleterERKSt9type_info>:
	  ? std::__addressof(_M_impl._M_del())
	  : nullptr;
#else
        return nullptr;
#endif
      }
   d5e04:	2000      	movs	r0, #0
   d5e06:	4770      	bx	lr

000d5e08 <_ZNSt19_Sp_counted_deleterIPN8particle21BleCharacteristicImplENSt12__shared_ptrIS1_LN9__gnu_cxx12_Lock_policyE0EE8_DeleterISaIS1_EEES8_LS5_0EED0Ev>:

      // __d(__p) must not throw.
      _Sp_counted_deleter(_Ptr __p, _Deleter __d, const _Alloc& __a) noexcept
      : _M_impl(__p, __d, __a) { }

      ~_Sp_counted_deleter() noexcept { }
   d5e08:	b510      	push	{r4, lr}
   d5e0a:	2114      	movs	r1, #20
   d5e0c:	4604      	mov	r4, r0
   d5e0e:	f001 fe5f 	bl	d7ad0 <_ZdlPvj>
   d5e12:	4620      	mov	r0, r4
   d5e14:	bd10      	pop	{r4, pc}

000d5e16 <_ZNSt19_Sp_counted_deleterIPN8particle14BleServiceImplENSt12__shared_ptrIS1_LN9__gnu_cxx12_Lock_policyE0EE8_DeleterISaIS1_EEES8_LS5_0EED0Ev>:
   d5e16:	b510      	push	{r4, lr}
   d5e18:	2114      	movs	r1, #20
   d5e1a:	4604      	mov	r4, r0
   d5e1c:	f001 fe58 	bl	d7ad0 <_ZdlPvj>
   d5e20:	4620      	mov	r0, r4
   d5e22:	bd10      	pop	{r4, pc}

000d5e24 <_ZNSt19_Sp_counted_deleterIPN8particle17BlePeerDeviceImplENSt12__shared_ptrIS1_LN9__gnu_cxx12_Lock_policyE0EE8_DeleterISaIS1_EEES8_LS5_0EED0Ev>:
   d5e24:	b510      	push	{r4, lr}
   d5e26:	2114      	movs	r1, #20
   d5e28:	4604      	mov	r4, r0
   d5e2a:	f001 fe51 	bl	d7ad0 <_ZdlPvj>
   d5e2e:	4620      	mov	r0, r4
   d5e30:	bd10      	pop	{r4, pc}

000d5e32 <_ZNSt19_Sp_counted_deleterIPN8particle21BleCharacteristicImplENSt12__shared_ptrIS1_LN9__gnu_cxx12_Lock_policyE0EE8_DeleterISaIS1_EEES8_LS5_0EE10_M_destroyEv>:
      }

      // __p is not permitted to be a null pointer.
      void
      deallocate(pointer __p, size_type)
      { ::operator delete(__p); }
   d5e32:	f7fe b934 	b.w	d409e <_ZdlPv>

000d5e36 <_ZNSt19_Sp_counted_deleterIPN8particle14BleServiceImplENSt12__shared_ptrIS1_LN9__gnu_cxx12_Lock_policyE0EE8_DeleterISaIS1_EEES8_LS5_0EE10_M_destroyEv>:
   d5e36:	f7fe b932 	b.w	d409e <_ZdlPv>

000d5e3a <_ZNSt19_Sp_counted_deleterIPN8particle17BlePeerDeviceImplENSt12__shared_ptrIS1_LN9__gnu_cxx12_Lock_policyE0EE8_DeleterISaIS1_EEES8_LS5_0EE10_M_destroyEv>:
   d5e3a:	f7fe b930 	b.w	d409e <_ZdlPv>

000d5e3e <_ZN14RecursiveMutexD1Ev>:
    RecursiveMutex() : handle_(nullptr)
    {
        os_mutex_recursive_create(&handle_);
    }

    ~RecursiveMutex() {
   d5e3e:	b510      	push	{r4, lr}
   d5e40:	4604      	mov	r4, r0
        dispose();
    }

    void dispose()
    {
        if (handle_) {
   d5e42:	6800      	ldr	r0, [r0, #0]
   d5e44:	b108      	cbz	r0, d5e4a <_ZN14RecursiveMutexD1Ev+0xc>
            os_mutex_recursive_destroy(handle_);
   d5e46:	f7ff fcdb 	bl	d5800 <os_mutex_recursive_destroy>
        os_mutex_recursive_create(&handle_);
    }

    ~RecursiveMutex() {
        dispose();
    }
   d5e4a:	4620      	mov	r0, r4
   d5e4c:	bd10      	pop	{r4, pc}
	...

000d5e50 <_ZN8particle10BleServiceC2ERKNS_7BleUuidE.part.102>:


/*******************************************************
 * BlePeerDevice class
 */
BlePeerDevice::BlePeerDevice()
   d5e50:	b508      	push	{r3, lr}
        : impl_(std::make_shared<BlePeerDeviceImpl>()) {
    if (!impl()) {
        SPARK_ASSERT(false);
   d5e52:	200a      	movs	r0, #10
   d5e54:	4a02      	ldr	r2, [pc, #8]	; (d5e60 <_ZN8particle10BleServiceC2ERKNS_7BleUuidE.part.102+0x10>)
   d5e56:	2100      	movs	r1, #0
   d5e58:	f7ff fdea 	bl	d5a30 <panic_>
    }
}
   d5e5c:	bd08      	pop	{r3, pc}
   d5e5e:	bf00      	nop
   d5e60:	000d565d 	.word	0x000d565d

000d5e64 <_ZNSt16_Sp_counted_baseILN9__gnu_cxx12_Lock_policyE0EE10_M_releaseEv.part.4.constprop.112>:
    _Sp_counted_base<_S_single>::_M_add_ref_copy()
    { ++_M_use_count; }

  template<>
    inline void
    _Sp_counted_base<_S_single>::_M_release() noexcept
   d5e64:	b510      	push	{r4, lr}
    {
      if (--_M_use_count == 0)
        {
          _M_dispose();
   d5e66:	6803      	ldr	r3, [r0, #0]
    _Sp_counted_base<_S_single>::_M_add_ref_copy()
    { ++_M_use_count; }

  template<>
    inline void
    _Sp_counted_base<_S_single>::_M_release() noexcept
   d5e68:	4604      	mov	r4, r0
    {
      if (--_M_use_count == 0)
        {
          _M_dispose();
   d5e6a:	689b      	ldr	r3, [r3, #8]
   d5e6c:	4798      	blx	r3
          if (--_M_weak_count == 0)
   d5e6e:	68a3      	ldr	r3, [r4, #8]
   d5e70:	3b01      	subs	r3, #1
   d5e72:	60a3      	str	r3, [r4, #8]
   d5e74:	b92b      	cbnz	r3, d5e82 <_ZNSt16_Sp_counted_baseILN9__gnu_cxx12_Lock_policyE0EE10_M_releaseEv.part.4.constprop.112+0x1e>
            _M_destroy();
   d5e76:	6823      	ldr	r3, [r4, #0]
   d5e78:	4620      	mov	r0, r4
   d5e7a:	68db      	ldr	r3, [r3, #12]
        }
    }
   d5e7c:	e8bd 4010 	ldmia.w	sp!, {r4, lr}
    {
      if (--_M_use_count == 0)
        {
          _M_dispose();
          if (--_M_weak_count == 0)
            _M_destroy();
   d5e80:	4718      	bx	r3
   d5e82:	bd10      	pop	{r4, pc}

000d5e84 <_ZN8particle11hexToNibbleEc>:
#include <cstdint>

namespace particle {

inline int hexToNibble(char c) {
    if (c >= '0' && c <= '9') {
   d5e84:	f1a0 0330 	sub.w	r3, r0, #48	; 0x30
   d5e88:	b2da      	uxtb	r2, r3
   d5e8a:	2a09      	cmp	r2, #9
   d5e8c:	d801      	bhi.n	d5e92 <_ZN8particle11hexToNibbleEc+0xe>
        return (c - '0');
   d5e8e:	4618      	mov	r0, r3
   d5e90:	4770      	bx	lr
    } else if (c >= 'a' && c <= 'f') {
   d5e92:	f1a0 0361 	sub.w	r3, r0, #97	; 0x61
   d5e96:	2b05      	cmp	r3, #5
   d5e98:	d801      	bhi.n	d5e9e <_ZN8particle11hexToNibbleEc+0x1a>
        return (c - 'a' + 0x0a);
   d5e9a:	3857      	subs	r0, #87	; 0x57
   d5e9c:	4770      	bx	lr
    } else if (c >= 'A' && c <= 'F') {
   d5e9e:	f1a0 0341 	sub.w	r3, r0, #65	; 0x41
   d5ea2:	2b05      	cmp	r3, #5
        return (c - 'A' + 0x0a);
   d5ea4:	bf94      	ite	ls
   d5ea6:	3837      	subls	r0, #55	; 0x37
    }
    return -1;
   d5ea8:	f04f 30ff 	movhi.w	r0, #4294967295
}
   d5eac:	4770      	bx	lr
	...

000d5eb0 <_ZN8particle3ble13WiringBleLockC1Ev>:

namespace ble {

class WiringBleLock {
public:
    WiringBleLock() :
   d5eb0:	b510      	push	{r4, lr}
            locked_(false) {
   d5eb2:	2300      	movs	r3, #0
   d5eb4:	7003      	strb	r3, [r0, #0]
            os_mutex_recursive_destroy(handle_);
            handle_ = nullptr;
        }
    }

    void lock() { os_mutex_recursive_lock(handle_); }
   d5eb6:	4b04      	ldr	r3, [pc, #16]	; (d5ec8 <_ZN8particle3ble13WiringBleLockC1Ev+0x18>)

namespace ble {

class WiringBleLock {
public:
    WiringBleLock() :
   d5eb8:	4604      	mov	r4, r0
   d5eba:	6818      	ldr	r0, [r3, #0]
   d5ebc:	f7ff fca8 	bl	d5810 <os_mutex_recursive_lock>
        lock.locked_ = false;
    }

    void lock() {
        mutex_.lock();
        locked_ = true;
   d5ec0:	2301      	movs	r3, #1
   d5ec2:	7023      	strb	r3, [r4, #0]
class WiringBleLock {
public:
    WiringBleLock() :
            locked_(false) {
        lock();
    }
   d5ec4:	4620      	mov	r0, r4
   d5ec6:	bd10      	pop	{r4, pc}
   d5ec8:	2003e3dc 	.word	0x2003e3dc

000d5ecc <_ZN8particle3ble13WiringBleLockD1Ev>:

    ~WiringBleLock() {
   d5ecc:	b510      	push	{r4, lr}
        if (locked_) {
   d5ece:	7803      	ldrb	r3, [r0, #0]
    WiringBleLock() :
            locked_(false) {
        lock();
    }

    ~WiringBleLock() {
   d5ed0:	4604      	mov	r4, r0
        if (locked_) {
   d5ed2:	b11b      	cbz	r3, d5edc <_ZN8particle3ble13WiringBleLockD1Ev+0x10>
    bool trylock() { return os_mutex_recursive_trylock(handle_)==0; }
    void unlock() { os_mutex_recursive_unlock(handle_); }
   d5ed4:	4b02      	ldr	r3, [pc, #8]	; (d5ee0 <_ZN8particle3ble13WiringBleLockD1Ev+0x14>)
   d5ed6:	6818      	ldr	r0, [r3, #0]
   d5ed8:	f7ff fca2 	bl	d5820 <os_mutex_recursive_unlock>
            unlock();
        }
    }
   d5edc:	4620      	mov	r0, r4
   d5ede:	bd10      	pop	{r4, pc}
   d5ee0:	2003e3dc 	.word	0x2003e3dc

000d5ee4 <_ZNK8particle10BleAddresseqERKS0_>:
BleAddress& BleAddress::operator=(const uint8_t addr[BLE_SIG_ADDR_LEN]) {
    memcpy(address_.addr, addr, BLE_SIG_ADDR_LEN);
    return *this;
}

bool BleAddress::operator==(const BleAddress& addr) const {
   d5ee4:	b508      	push	{r3, lr}
    if (address_.addr_type == addr.address_.addr_type && !memcmp(address_.addr, addr.address_.addr, BLE_SIG_ADDR_LEN)) {
   d5ee6:	7982      	ldrb	r2, [r0, #6]
   d5ee8:	798b      	ldrb	r3, [r1, #6]
   d5eea:	429a      	cmp	r2, r3
   d5eec:	d106      	bne.n	d5efc <_ZNK8particle10BleAddresseqERKS0_+0x18>
   d5eee:	2206      	movs	r2, #6
   d5ef0:	f001 ff58 	bl	d7da4 <memcmp>
   d5ef4:	fab0 f080 	clz	r0, r0
   d5ef8:	0940      	lsrs	r0, r0, #5
   d5efa:	bd08      	pop	{r3, pc}
        return true;
    }
    return false;
   d5efc:	2000      	movs	r0, #0
}
   d5efe:	bd08      	pop	{r3, pc}

000d5f00 <_ZN8particle7BleUuidC1Ev>:


/*******************************************************
 * BleUuid class
 */
BleUuid::BleUuid()
   d5f00:	b510      	push	{r4, lr}
        : type_(BleUuidType::LONG) {
   d5f02:	2301      	movs	r3, #1
   d5f04:	6103      	str	r3, [r0, #16]
    memcpy(uuid128_, BASE_UUID, BLE_SIG_UUID_128BIT_LEN);
   d5f06:	4b05      	ldr	r3, [pc, #20]	; (d5f1c <_ZN8particle7BleUuidC1Ev+0x1c>)
   d5f08:	4602      	mov	r2, r0
   d5f0a:	f103 0110 	add.w	r1, r3, #16
   d5f0e:	f853 4b04 	ldr.w	r4, [r3], #4
   d5f12:	f842 4b04 	str.w	r4, [r2], #4
   d5f16:	428b      	cmp	r3, r1
   d5f18:	d1f9      	bne.n	d5f0e <_ZN8particle7BleUuidC1Ev+0xe>
}
   d5f1a:	bd10      	pop	{r4, pc}
   d5f1c:	000d8698 	.word	0x000d8698

000d5f20 <_ZN8particle7BleUuidC1ERKS0_>:
        type_ = BleUuidType::LONG;
        memcpy(uuid128_, uuid.uuid128, BLE_SIG_UUID_128BIT_LEN);
    }
}

BleUuid::BleUuid(const BleUuid& uuid)
   d5f20:	b510      	push	{r4, lr}
        : type_(uuid.type_) {
   d5f22:	690b      	ldr	r3, [r1, #16]
   d5f24:	6103      	str	r3, [r0, #16]
    memcpy(uuid128_, uuid.uuid128_, BLE_SIG_UUID_128BIT_LEN);
   d5f26:	f101 0210 	add.w	r2, r1, #16
   d5f2a:	4603      	mov	r3, r0
   d5f2c:	f851 4b04 	ldr.w	r4, [r1], #4
   d5f30:	f843 4b04 	str.w	r4, [r3], #4
   d5f34:	4291      	cmp	r1, r2
   d5f36:	d1f9      	bne.n	d5f2c <_ZN8particle7BleUuidC1ERKS0_+0xc>
}
   d5f38:	bd10      	pop	{r4, pc}

000d5f3a <_ZN8particle7BleUuidC1EPKhNS_12BleUuidOrderE>:

BleUuid::BleUuid(const uint8_t* uuid128, BleUuidOrder order) {
   d5f3a:	b510      	push	{r4, lr}
    if (uuid128) {
   d5f3c:	460b      	mov	r3, r1
BleUuid::BleUuid(const BleUuid& uuid)
        : type_(uuid.type_) {
    memcpy(uuid128_, uuid.uuid128_, BLE_SIG_UUID_128BIT_LEN);
}

BleUuid::BleUuid(const uint8_t* uuid128, BleUuidOrder order) {
   d5f3e:	4604      	mov	r4, r0
    if (uuid128) {
   d5f40:	b1b9      	cbz	r1, d5f72 <_ZN8particle7BleUuidC1EPKhNS_12BleUuidOrderE+0x38>
        if (order == BleUuidOrder::LSB) {
   d5f42:	2a01      	cmp	r2, #1
   d5f44:	d109      	bne.n	d5f5a <_ZN8particle7BleUuidC1EPKhNS_12BleUuidOrderE+0x20>
            memcpy(uuid128_, uuid128, BLE_SIG_UUID_128BIT_LEN);
   d5f46:	4603      	mov	r3, r0
   d5f48:	f101 0210 	add.w	r2, r1, #16
   d5f4c:	f851 0b04 	ldr.w	r0, [r1], #4
   d5f50:	f843 0b04 	str.w	r0, [r3], #4
   d5f54:	4291      	cmp	r1, r2
   d5f56:	d1f9      	bne.n	d5f4c <_ZN8particle7BleUuidC1EPKhNS_12BleUuidOrderE+0x12>
   d5f58:	e008      	b.n	d5f6c <_ZN8particle7BleUuidC1EPKhNS_12BleUuidOrderE+0x32>
   d5f5a:	1e41      	subs	r1, r0, #1
    memcpy(uuid128_, uuid.uuid128_, BLE_SIG_UUID_128BIT_LEN);
}

BleUuid::BleUuid(const uint8_t* uuid128, BleUuidOrder order) {
    if (uuid128) {
        if (order == BleUuidOrder::LSB) {
   d5f5c:	220f      	movs	r2, #15
            memcpy(uuid128_, uuid128, BLE_SIG_UUID_128BIT_LEN);
        } else {
            for (uint8_t i = 0, j = BLE_SIG_UUID_128BIT_LEN - 1; i < BLE_SIG_UUID_128BIT_LEN; i++, j--) {
                uuid128_[i] = uuid128[j];
   d5f5e:	5c98      	ldrb	r0, [r3, r2]
   d5f60:	f801 0f01 	strb.w	r0, [r1, #1]!
BleUuid::BleUuid(const uint8_t* uuid128, BleUuidOrder order) {
    if (uuid128) {
        if (order == BleUuidOrder::LSB) {
            memcpy(uuid128_, uuid128, BLE_SIG_UUID_128BIT_LEN);
        } else {
            for (uint8_t i = 0, j = BLE_SIG_UUID_128BIT_LEN - 1; i < BLE_SIG_UUID_128BIT_LEN; i++, j--) {
   d5f64:	3a01      	subs	r2, #1
   d5f66:	b2d2      	uxtb	r2, r2
   d5f68:	2aff      	cmp	r2, #255	; 0xff
   d5f6a:	d1f8      	bne.n	d5f5e <_ZN8particle7BleUuidC1EPKhNS_12BleUuidOrderE+0x24>
                uuid128_[i] = uuid128[j];
            }
        }
        type_ = BleUuidType::LONG;
   d5f6c:	2301      	movs	r3, #1
   d5f6e:	6123      	str	r3, [r4, #16]
   d5f70:	e002      	b.n	d5f78 <_ZN8particle7BleUuidC1EPKhNS_12BleUuidOrderE+0x3e>
    } else {
        memset(uuid128_, 0x00, BLE_SIG_UUID_128BIT_LEN);
   d5f72:	2210      	movs	r2, #16
   d5f74:	f001 ff4b 	bl	d7e0e <memset>
    }
}
   d5f78:	4620      	mov	r0, r4
   d5f7a:	bd10      	pop	{r4, pc}

000d5f7c <_ZN8particle7BleUuidC1EPKhtNS_12BleUuidOrderE>:
    type_ = BleUuidType::SHORT;
    uuid128_[UUID16_LO] = (uint8_t)(uuid16 & 0x00FF);
    uuid128_[UUID16_HI] = (uint8_t)((uuid16 >> 8) & 0x00FF);
}

BleUuid::BleUuid(const uint8_t* uuid128, uint16_t uuid16, BleUuidOrder order)
   d5f7c:	b538      	push	{r3, r4, r5, lr}
   d5f7e:	4605      	mov	r5, r0
   d5f80:	4614      	mov	r4, r2
        : BleUuid(uuid128, order) {
   d5f82:	461a      	mov	r2, r3
   d5f84:	f7ff ffd9 	bl	d5f3a <_ZN8particle7BleUuidC1EPKhNS_12BleUuidOrderE>
    uuid128_[UUID16_LO] = (uint8_t)(uuid16 & 0x00FF);
   d5f88:	732c      	strb	r4, [r5, #12]
    uuid128_[UUID16_HI] = (uint8_t)((uuid16 >> 8) & 0x00FF);
   d5f8a:	0a24      	lsrs	r4, r4, #8
   d5f8c:	736c      	strb	r4, [r5, #13]
}
   d5f8e:	4628      	mov	r0, r5
   d5f90:	bd38      	pop	{r3, r4, r5, pc}
	...

000d5f94 <_ZNK8particle7BleUuid7isValidEv>:

BleUuid::BleUuid(const String& uuid)
        : BleUuid(uuid.c_str()) {
}

bool BleUuid::isValid() const {
   d5f94:	b508      	push	{r3, lr}
    if (type() == BleUuidType::SHORT) {
   d5f96:	6902      	ldr	r2, [r0, #16]
   d5f98:	b90a      	cbnz	r2, d5f9e <_ZNK8particle7BleUuid7isValidEv+0xa>
        return (uuid128_[UUID16_LO] != 0x00 || uuid128_[UUID16_HI] != 0x00);
   d5f9a:	8980      	ldrh	r0, [r0, #12]
   d5f9c:	e003      	b.n	d5fa6 <_ZNK8particle7BleUuid7isValidEv+0x12>
    } else {
        return memcmp(uuid128_, BASE_UUID, BLE_SIG_UUID_128BIT_LEN);
   d5f9e:	2210      	movs	r2, #16
   d5fa0:	4903      	ldr	r1, [pc, #12]	; (d5fb0 <_ZNK8particle7BleUuid7isValidEv+0x1c>)
   d5fa2:	f001 feff 	bl	d7da4 <memcmp>
   d5fa6:	3000      	adds	r0, #0
   d5fa8:	bf18      	it	ne
   d5faa:	2001      	movne	r0, #1
    }
}
   d5fac:	bd08      	pop	{r3, pc}
   d5fae:	bf00      	nop
   d5fb0:	000d8698 	.word	0x000d8698

000d5fb4 <_ZNK8particle7BleUuid4typeEv>:

BleUuidType BleUuid::type() const {
    return type_;
}
   d5fb4:	6900      	ldr	r0, [r0, #16]
   d5fb6:	4770      	bx	lr

000d5fb8 <_ZN8particle7BleUuid7halUUIDEv>:

hal_ble_uuid_t BleUuid::halUUID() {
   d5fb8:	b538      	push	{r3, r4, r5, lr}
   d5fba:	460c      	mov	r4, r1
    hal_ble_uuid_t uuid = {};
   d5fbc:	2214      	movs	r2, #20
   d5fbe:	2100      	movs	r1, #0

BleUuidType BleUuid::type() const {
    return type_;
}

hal_ble_uuid_t BleUuid::halUUID() {
   d5fc0:	4605      	mov	r5, r0
    hal_ble_uuid_t uuid = {};
   d5fc2:	f001 ff24 	bl	d7e0e <memset>
    if (type_ == BleUuidType::SHORT) {
   d5fc6:	6923      	ldr	r3, [r4, #16]
   d5fc8:	b92b      	cbnz	r3, d5fd6 <_ZN8particle7BleUuid7halUUIDEv+0x1e>
        uuid.type = BLE_UUID_TYPE_16BIT;
        uuid.uuid16 = (uint16_t)uuid128_[UUID16_LO] | ((uint16_t)uuid128_[UUID16_HI] << 8);
   d5fca:	7b62      	ldrb	r2, [r4, #13]
   d5fcc:	7b23      	ldrb	r3, [r4, #12]
   d5fce:	ea43 2302 	orr.w	r3, r3, r2, lsl #8
   d5fd2:	802b      	strh	r3, [r5, #0]
   d5fd4:	e00a      	b.n	d5fec <_ZN8particle7BleUuid7halUUIDEv+0x34>
    } else {
        uuid.type = BLE_UUID_TYPE_128BIT;
   d5fd6:	2301      	movs	r3, #1
   d5fd8:	742b      	strb	r3, [r5, #16]
        memcpy(uuid.uuid128, uuid128_, BLE_SIG_UUID_128BIT_LEN);
   d5fda:	f104 0210 	add.w	r2, r4, #16
   d5fde:	462b      	mov	r3, r5
   d5fe0:	f854 1b04 	ldr.w	r1, [r4], #4
   d5fe4:	f843 1b04 	str.w	r1, [r3], #4
   d5fe8:	4294      	cmp	r4, r2
   d5fea:	d1f9      	bne.n	d5fe0 <_ZN8particle7BleUuid7halUUIDEv+0x28>
    }
    return uuid;
}
   d5fec:	4628      	mov	r0, r5
   d5fee:	bd38      	pop	{r3, r4, r5, pc}

000d5ff0 <_ZNK8particle7BleUuid7shortedEv>:

uint16_t BleUuid::shorted() const {
    return ((uint16_t)uuid128_[UUID16_LO] | ((uint16_t)uuid128_[UUID16_HI] << 8));
   d5ff0:	7b42      	ldrb	r2, [r0, #13]
   d5ff2:	7b00      	ldrb	r0, [r0, #12]
}
   d5ff4:	ea40 2002 	orr.w	r0, r0, r2, lsl #8
   d5ff8:	4770      	bx	lr

000d5ffa <_ZNK8particle7BleUuid8rawBytesEv>:
    return BLE_SIG_UUID_128BIT_LEN;
}

const uint8_t* BleUuid::rawBytes() const {
    return uuid128_;
}
   d5ffa:	4770      	bx	lr

000d5ffc <_ZN8particle7BleUuidaSERKS0_>:
    memcpy(buf, cStr, len);
    buf[len++] = '\0';
    return len;
}

BleUuid& BleUuid::operator=(const BleUuid& uuid) {
   d5ffc:	b510      	push	{r4, lr}
    type_ = uuid.type_;
   d5ffe:	690b      	ldr	r3, [r1, #16]
   d6000:	6103      	str	r3, [r0, #16]
    memcpy(uuid128_, uuid.uuid128_, BLE_SIG_UUID_128BIT_LEN);
   d6002:	f101 0210 	add.w	r2, r1, #16
   d6006:	4603      	mov	r3, r0
   d6008:	f851 4b04 	ldr.w	r4, [r1], #4
   d600c:	f843 4b04 	str.w	r4, [r3], #4
   d6010:	4291      	cmp	r1, r2
   d6012:	d1f9      	bne.n	d6008 <_ZN8particle7BleUuidaSERKS0_+0xc>
    return *this;
}
   d6014:	bd10      	pop	{r4, pc}

000d6016 <_ZN8particle7BleUuidaSEPKh>:

BleUuid& BleUuid::operator=(const uint8_t* uuid128) {
   d6016:	b510      	push	{r4, lr}
   d6018:	b086      	sub	sp, #24
   d601a:	4604      	mov	r4, r0
    return *this = BleUuid(uuid128);
   d601c:	2201      	movs	r2, #1
   d601e:	a801      	add	r0, sp, #4
   d6020:	f7ff ff8b 	bl	d5f3a <_ZN8particle7BleUuidC1EPKhNS_12BleUuidOrderE>
   d6024:	a901      	add	r1, sp, #4
   d6026:	4620      	mov	r0, r4
   d6028:	f7ff ffe8 	bl	d5ffc <_ZN8particle7BleUuidaSERKS0_>
}
   d602c:	b006      	add	sp, #24
   d602e:	bd10      	pop	{r4, pc}

000d6030 <_ZNK8particle7BleUuideqERKS0_>:

BleUuid& BleUuid::operator=(const hal_ble_uuid_t& uuid) {
    return *this = BleUuid(uuid);
}

bool BleUuid::operator==(const BleUuid& uuid) const {
   d6030:	b508      	push	{r3, lr}
    return ((type_ == uuid.type_) && !memcmp(uuid128_, uuid.uuid128_, BLE_SIG_UUID_128BIT_LEN));
   d6032:	6902      	ldr	r2, [r0, #16]
   d6034:	690b      	ldr	r3, [r1, #16]
   d6036:	429a      	cmp	r2, r3
   d6038:	d106      	bne.n	d6048 <_ZNK8particle7BleUuideqERKS0_+0x18>
   d603a:	2210      	movs	r2, #16
   d603c:	f001 feb2 	bl	d7da4 <memcmp>
   d6040:	fab0 f080 	clz	r0, r0
   d6044:	0940      	lsrs	r0, r0, #5
   d6046:	bd08      	pop	{r3, pc}
   d6048:	2000      	movs	r0, #0
}
   d604a:	bd08      	pop	{r3, pc}

000d604c <_ZN8particle7BleUuid9constructEPKc>:
    BleUuid temp(uuid128);
    return *this == temp;
}

void BleUuid::construct(const char* uuid) {
    type_ = BleUuidType::LONG;
   d604c:	2301      	movs	r3, #1
bool BleUuid::operator==(const uint8_t* uuid128) const {
    BleUuid temp(uuid128);
    return *this == temp;
}

void BleUuid::construct(const char* uuid) {
   d604e:	b5f7      	push	{r0, r1, r2, r4, r5, r6, r7, lr}
    type_ = BleUuidType::LONG;
   d6050:	6103      	str	r3, [r0, #16]
    memcpy(uuid128_, BASE_UUID, BLE_SIG_UUID_128BIT_LEN);
   d6052:	4b31      	ldr	r3, [pc, #196]	; (d6118 <_ZN8particle7BleUuid9constructEPKc+0xcc>)
bool BleUuid::operator==(const uint8_t* uuid128) const {
    BleUuid temp(uuid128);
    return *this == temp;
}

void BleUuid::construct(const char* uuid) {
   d6054:	460e      	mov	r6, r1
   d6056:	4605      	mov	r5, r0
    type_ = BleUuidType::LONG;
    memcpy(uuid128_, BASE_UUID, BLE_SIG_UUID_128BIT_LEN);
   d6058:	4602      	mov	r2, r0
   d605a:	f103 0110 	add.w	r1, r3, #16
   d605e:	f853 0b04 	ldr.w	r0, [r3], #4
   d6062:	f842 0b04 	str.w	r0, [r2], #4
   d6066:	428b      	cmp	r3, r1
   d6068:	d1f9      	bne.n	d605e <_ZN8particle7BleUuid9constructEPKc+0x12>
    if (uuid == nullptr) {
   d606a:	2e00      	cmp	r6, #0
   d606c:	d051      	beq.n	d6112 <_ZN8particle7BleUuid9constructEPKc+0xc6>
        return;
    }
    if (strnlen(uuid, BLE_SIG_UUID_128BIT_LEN * 2 + 4) == (BLE_SIG_UUID_16BIT_LEN * 2)) {
   d606e:	2124      	movs	r1, #36	; 0x24
   d6070:	4630      	mov	r0, r6
   d6072:	f001 ff0d 	bl	d7e90 <strnlen>
   d6076:	2804      	cmp	r0, #4
   d6078:	d010      	beq.n	d609c <_ZN8particle7BleUuid9constructEPKc+0x50>
   d607a:	2700      	movs	r7, #0
   d607c:	2410      	movs	r4, #16
        }
        type_ = BleUuidType::SHORT;
        return;
    }
    size_t len = BLE_SIG_UUID_128BIT_LEN;
    for (size_t i = 0; i < strnlen(uuid, BLE_SIG_UUID_128BIT_LEN * 2 + 4) && len > 0; i++) {
   d607e:	2124      	movs	r1, #36	; 0x24
   d6080:	4630      	mov	r0, r6
   d6082:	f001 ff05 	bl	d7e90 <strnlen>
   d6086:	42b8      	cmp	r0, r7
   d6088:	d901      	bls.n	d608e <_ZN8particle7BleUuid9constructEPKc+0x42>
   d608a:	bb44      	cbnz	r4, d60de <_ZN8particle7BleUuid9constructEPKc+0x92>
   d608c:	e041      	b.n	d6112 <_ZN8particle7BleUuid9constructEPKc+0xc6>
   d608e:	442c      	add	r4, r5
            }
            len--;
        }
    }
    while (len > 0) {
        uuid128_[len - 1] = 0x00;
   d6090:	2300      	movs	r3, #0
                }
            }
            len--;
        }
    }
    while (len > 0) {
   d6092:	42a5      	cmp	r5, r4
   d6094:	d03d      	beq.n	d6112 <_ZN8particle7BleUuid9constructEPKc+0xc6>
        uuid128_[len - 1] = 0x00;
   d6096:	f804 3d01 	strb.w	r3, [r4, #-1]!
   d609a:	e7fa      	b.n	d6092 <_ZN8particle7BleUuid9constructEPKc+0x46>

inline size_t hexToBytes(const char* src, char* dest, size_t size) {
    size_t n = 0;
    while (n < size) {
        const int h = hexToNibble(*src++);
   d609c:	7830      	ldrb	r0, [r6, #0]
   d609e:	f7ff fef1 	bl	d5e84 <_ZN8particle11hexToNibbleEc>
        if (h < 0) {
   d60a2:	1e04      	subs	r4, r0, #0
   d60a4:	db18      	blt.n	d60d8 <_ZN8particle7BleUuid9constructEPKc+0x8c>
            break;
        }
        const int l = hexToNibble(*src++);
   d60a6:	7870      	ldrb	r0, [r6, #1]
   d60a8:	f7ff feec 	bl	d5e84 <_ZN8particle11hexToNibbleEc>
        if (l < 0) {
   d60ac:	2800      	cmp	r0, #0
   d60ae:	db13      	blt.n	d60d8 <_ZN8particle7BleUuid9constructEPKc+0x8c>
            break;
        }
        *dest++ = ((unsigned)h << 4) | (unsigned)l;
   d60b0:	ea40 1004 	orr.w	r0, r0, r4, lsl #4
   d60b4:	f88d 0004 	strb.w	r0, [sp, #4]
}

inline size_t hexToBytes(const char* src, char* dest, size_t size) {
    size_t n = 0;
    while (n < size) {
        const int h = hexToNibble(*src++);
   d60b8:	78b0      	ldrb	r0, [r6, #2]
   d60ba:	f7ff fee3 	bl	d5e84 <_ZN8particle11hexToNibbleEc>
        if (h < 0) {
   d60be:	1e04      	subs	r4, r0, #0
   d60c0:	db0a      	blt.n	d60d8 <_ZN8particle7BleUuid9constructEPKc+0x8c>
            break;
        }
        const int l = hexToNibble(*src++);
   d60c2:	78f0      	ldrb	r0, [r6, #3]
   d60c4:	f7ff fede 	bl	d5e84 <_ZN8particle11hexToNibbleEc>
        if (l < 0) {
   d60c8:	2800      	cmp	r0, #0
            break;
        }
        *dest++ = ((unsigned)h << 4) | (unsigned)l;
   d60ca:	bfa1      	itttt	ge
   d60cc:	ea40 1004 	orrge.w	r0, r0, r4, lsl #4
    }
    if (strnlen(uuid, BLE_SIG_UUID_128BIT_LEN * 2 + 4) == (BLE_SIG_UUID_16BIT_LEN * 2)) {
        char buf[2] = {};
        if (hexToBytes(uuid, buf, BLE_SIG_UUID_16BIT_LEN) == BLE_SIG_UUID_16BIT_LEN) {
            uuid128_[UUID16_LO] = buf[1];
            uuid128_[UUID16_HI] = buf[0];
   d60d0:	f89d 3004 	ldrbge.w	r3, [sp, #4]
        return;
    }
    if (strnlen(uuid, BLE_SIG_UUID_128BIT_LEN * 2 + 4) == (BLE_SIG_UUID_16BIT_LEN * 2)) {
        char buf[2] = {};
        if (hexToBytes(uuid, buf, BLE_SIG_UUID_16BIT_LEN) == BLE_SIG_UUID_16BIT_LEN) {
            uuid128_[UUID16_LO] = buf[1];
   d60d4:	7328      	strbge	r0, [r5, #12]
            uuid128_[UUID16_HI] = buf[0];
   d60d6:	736b      	strbge	r3, [r5, #13]
        }
        type_ = BleUuidType::SHORT;
   d60d8:	2300      	movs	r3, #0
   d60da:	612b      	str	r3, [r5, #16]
   d60dc:	e019      	b.n	d6112 <_ZN8particle7BleUuid9constructEPKc+0xc6>
        return;
    }
    size_t len = BLE_SIG_UUID_128BIT_LEN;
    for (size_t i = 0; i < strnlen(uuid, BLE_SIG_UUID_128BIT_LEN * 2 + 4) && len > 0; i++) {
        int8_t hi = hexToNibble(uuid[i]);
   d60de:	5df0      	ldrb	r0, [r6, r7]
   d60e0:	f7ff fed0 	bl	d5e84 <_ZN8particle11hexToNibbleEc>
        if (hi >= 0) {
   d60e4:	0603      	lsls	r3, r0, #24
   d60e6:	d412      	bmi.n	d610e <_ZN8particle7BleUuid9constructEPKc+0xc2>
            uuid128_[len - 1] = hi << 4;
   d60e8:	3c01      	subs	r4, #1
   d60ea:	0100      	lsls	r0, r0, #4
   d60ec:	5528      	strb	r0, [r5, r4]
            if (++i < strnlen(uuid, BLE_SIG_UUID_128BIT_LEN * 2 + 4)) {
   d60ee:	2124      	movs	r1, #36	; 0x24
   d60f0:	4630      	mov	r0, r6
   d60f2:	f001 fecd 	bl	d7e90 <strnlen>
   d60f6:	3701      	adds	r7, #1
   d60f8:	4287      	cmp	r7, r0
   d60fa:	d208      	bcs.n	d610e <_ZN8particle7BleUuid9constructEPKc+0xc2>
                int8_t lo = hexToNibble(uuid[i]);
   d60fc:	5df0      	ldrb	r0, [r6, r7]
   d60fe:	f7ff fec1 	bl	d5e84 <_ZN8particle11hexToNibbleEc>
   d6102:	b240      	sxtb	r0, r0
                if (lo >= 0) {
   d6104:	2800      	cmp	r0, #0
                    uuid128_[len - 1] |= lo;
   d6106:	bfa2      	ittt	ge
   d6108:	5d2b      	ldrbge	r3, [r5, r4]
   d610a:	4318      	orrge	r0, r3
   d610c:	5528      	strbge	r0, [r5, r4]
        }
        type_ = BleUuidType::SHORT;
        return;
    }
    size_t len = BLE_SIG_UUID_128BIT_LEN;
    for (size_t i = 0; i < strnlen(uuid, BLE_SIG_UUID_128BIT_LEN * 2 + 4) && len > 0; i++) {
   d610e:	3701      	adds	r7, #1
   d6110:	e7b5      	b.n	d607e <_ZN8particle7BleUuid9constructEPKc+0x32>
    }
    while (len > 0) {
        uuid128_[len - 1] = 0x00;
        len--;
    }
}
   d6112:	b003      	add	sp, #12
   d6114:	bdf0      	pop	{r4, r5, r6, r7, pc}
   d6116:	bf00      	nop
   d6118:	000d8698 	.word	0x000d8698

000d611c <_ZN8particle7BleUuidC1EPKc>:
        : BleUuid(uuid128, order) {
    uuid128_[UUID16_LO] = (uint8_t)(uuid16 & 0x00FF);
    uuid128_[UUID16_HI] = (uint8_t)((uuid16 >> 8) & 0x00FF);
}

BleUuid::BleUuid(const char* uuid)
   d611c:	b538      	push	{r3, r4, r5, lr}
   d611e:	4604      	mov	r4, r0
   d6120:	460d      	mov	r5, r1
        : BleUuid() {
   d6122:	f7ff feed 	bl	d5f00 <_ZN8particle7BleUuidC1Ev>
    construct(uuid);
   d6126:	4620      	mov	r0, r4
   d6128:	4629      	mov	r1, r5
   d612a:	f7ff ff8f 	bl	d604c <_ZN8particle7BleUuid9constructEPKc>
}
   d612e:	4620      	mov	r0, r4
   d6130:	bd38      	pop	{r3, r4, r5, pc}

000d6132 <_ZN8particle18BleAdvertisingData6locateEPKhjNS_22BleAdvertisingDataTypeEPj>:
        break;
    }
    return found;
}

size_t BleAdvertisingData::locate(const uint8_t* buf, size_t len, BleAdvertisingDataType type, size_t* offset) {
   d6132:	b5f0      	push	{r4, r5, r6, r7, lr}
    if (offset == nullptr) {
   d6134:	b18b      	cbz	r3, d615a <_ZN8particle18BleAdvertisingData6locateEPKhjNS_22BleAdvertisingDataTypeEPj+0x28>
   d6136:	2400      	movs	r4, #0
        return 0;
    }
    uint8_t adsType = static_cast<uint8_t>(type);
    size_t adsLen;
    for (size_t i = 0; (i + 3) <= len; i = i) {
   d6138:	1ce5      	adds	r5, r4, #3
   d613a:	428d      	cmp	r5, r1
   d613c:	d80f      	bhi.n	d615e <_ZN8particle18BleAdvertisingData6locateEPKhjNS_22BleAdvertisingDataTypeEPj+0x2c>
        adsLen = buf[i];
        if (buf[i + 1] == adsType) {
   d613e:	1c66      	adds	r6, r4, #1
        return 0;
    }
    uint8_t adsType = static_cast<uint8_t>(type);
    size_t adsLen;
    for (size_t i = 0; (i + 3) <= len; i = i) {
        adsLen = buf[i];
   d6140:	5d05      	ldrb	r5, [r0, r4]
        if (buf[i + 1] == adsType) {
   d6142:	5d87      	ldrb	r7, [r0, r6]
   d6144:	4297      	cmp	r7, r2
   d6146:	d105      	bne.n	d6154 <_ZN8particle18BleAdvertisingData6locateEPKhjNS_22BleAdvertisingDataTypeEPj+0x22>
            // The value of adsLen doesn't include the length field of an AD structure.
            if ((i + adsLen + 1) <= len) {
   d6148:	442e      	add	r6, r5
   d614a:	42b1      	cmp	r1, r6
   d614c:	d307      	bcc.n	d615e <_ZN8particle18BleAdvertisingData6locateEPKhjNS_22BleAdvertisingDataTypeEPj+0x2c>
                *offset = i;
   d614e:	601c      	str	r4, [r3, #0]
                adsLen += 1;
   d6150:	1c68      	adds	r0, r5, #1
                return adsLen;
   d6152:	bdf0      	pop	{r4, r5, r6, r7, pc}
            } else {
                return 0;
            }
        } else {
            // Navigate to the next AD structure.
            i += (adsLen + 1);
   d6154:	3501      	adds	r5, #1
   d6156:	442c      	add	r4, r5
    if (offset == nullptr) {
        return 0;
    }
    uint8_t adsType = static_cast<uint8_t>(type);
    size_t adsLen;
    for (size_t i = 0; (i + 3) <= len; i = i) {
   d6158:	e7ee      	b.n	d6138 <_ZN8particle18BleAdvertisingData6locateEPKhjNS_22BleAdvertisingDataTypeEPj+0x6>
    return found;
}

size_t BleAdvertisingData::locate(const uint8_t* buf, size_t len, BleAdvertisingDataType type, size_t* offset) {
    if (offset == nullptr) {
        return 0;
   d615a:	4618      	mov	r0, r3
   d615c:	bdf0      	pop	{r4, r5, r6, r7, pc}
   d615e:	2000      	movs	r0, #0
            // Navigate to the next AD structure.
            i += (adsLen + 1);
        }
    }
    return 0;
}
   d6160:	bdf0      	pop	{r4, r5, r6, r7, pc}

000d6162 <_ZN8particle18BleAdvertisingData6appendENS_22BleAdvertisingDataTypeEPKhjb>:
    selfData_[selfLen_++] = beacon.measurePower;

    return selfLen_;
}

size_t BleAdvertisingData::append(BleAdvertisingDataType type, const uint8_t* buf, size_t len, bool force) {
   d6162:	e92d 43f7 	stmdb	sp!, {r0, r1, r2, r4, r5, r6, r7, r8, r9, lr}
   d6166:	4604      	mov	r4, r0
   d6168:	460e      	mov	r6, r1
   d616a:	461d      	mov	r5, r3
    if (buf == nullptr) {
   d616c:	4617      	mov	r7, r2
   d616e:	2a00      	cmp	r2, #0
   d6170:	d03a      	beq.n	d61e8 <_ZN8particle18BleAdvertisingData6appendENS_22BleAdvertisingDataTypeEPKhjb+0x86>
        return selfLen_;
    }
    size_t offset;
    size_t adsLen = locate(selfData_, selfLen_, type, &offset);
   d6172:	460a      	mov	r2, r1
   d6174:	ab01      	add	r3, sp, #4
   d6176:	6a01      	ldr	r1, [r0, #32]
   d6178:	f7ff ffdb 	bl	d6132 <_ZN8particle18BleAdvertisingData6locateEPKhjNS_22BleAdvertisingDataTypeEPj>
    if (!force && adsLen > 0) {
   d617c:	f89d 3028 	ldrb.w	r3, [sp, #40]	; 0x28
   d6180:	6a22      	ldr	r2, [r4, #32]
   d6182:	bb03      	cbnz	r3, d61c6 <_ZN8particle18BleAdvertisingData6appendENS_22BleAdvertisingDataTypeEPKhjb+0x64>
   d6184:	b1f8      	cbz	r0, d61c6 <_ZN8particle18BleAdvertisingData6appendENS_22BleAdvertisingDataTypeEPKhjb+0x64>
        // Update the existing AD structure.
        size_t staLen = selfLen_ - adsLen;
        if ((staLen + len + 2) <= BLE_MAX_ADV_DATA_LEN) {
   d6186:	1c96      	adds	r6, r2, #2
   d6188:	442e      	add	r6, r5
   d618a:	1a36      	subs	r6, r6, r0
   d618c:	2e1f      	cmp	r6, #31
   d618e:	d82b      	bhi.n	d61e8 <_ZN8particle18BleAdvertisingData6appendENS_22BleAdvertisingDataTypeEPKhjb+0x86>
            // Firstly, move the last consistent block.
            uint16_t moveLen = selfLen_ - offset - adsLen;
   d6190:	f8dd 8004 	ldr.w	r8, [sp, #4]
   d6194:	f108 0902 	add.w	r9, r8, #2
            memmove(&selfData_[offset + len + 2], &selfData_[offset + adsLen], moveLen);
   d6198:	ebc8 0202 	rsb	r2, r8, r2
   d619c:	1a12      	subs	r2, r2, r0
   d619e:	eb00 0108 	add.w	r1, r0, r8
   d61a2:	eb05 0009 	add.w	r0, r5, r9
   d61a6:	b292      	uxth	r2, r2
   d61a8:	4421      	add	r1, r4
   d61aa:	4420      	add	r0, r4
   d61ac:	f001 fe14 	bl	d7dd8 <memmove>
            // Secondly, Update the AD structure.
            // The Length field is the total length of Type field and Data field.
            selfData_[offset] = len + 1;
   d61b0:	1c6b      	adds	r3, r5, #1
   d61b2:	f804 3008 	strb.w	r3, [r4, r8]
            memcpy(&selfData_[offset + 2], buf, len);
   d61b6:	462a      	mov	r2, r5
   d61b8:	4639      	mov	r1, r7
   d61ba:	eb04 0009 	add.w	r0, r4, r9
   d61be:	f001 fe00 	bl	d7dc2 <memcpy>
            // An AD structure is composed of one byte length field, one byte Type field and Data field.
            selfLen_ = staLen + len + 2;
   d61c2:	6226      	str	r6, [r4, #32]
   d61c4:	e010      	b.n	d61e8 <_ZN8particle18BleAdvertisingData6appendENS_22BleAdvertisingDataTypeEPKhjb+0x86>
   d61c6:	1c90      	adds	r0, r2, #2
        }
    }
    else if ((selfLen_ + len + 2) <= BLE_MAX_ADV_DATA_LEN) {
   d61c8:	182b      	adds	r3, r5, r0
   d61ca:	2b1f      	cmp	r3, #31
   d61cc:	d80c      	bhi.n	d61e8 <_ZN8particle18BleAdvertisingData6appendENS_22BleAdvertisingDataTypeEPKhjb+0x86>
        // Append the AD structure at the and of advertising data.
        selfData_[selfLen_++] = len + 1;
   d61ce:	1c6b      	adds	r3, r5, #1
   d61d0:	54a3      	strb	r3, [r4, r2]
        selfData_[selfLen_++] = static_cast<uint8_t>(type);
   d61d2:	4422      	add	r2, r4
   d61d4:	6220      	str	r0, [r4, #32]
        memcpy(&selfData_[selfLen_], buf, len);
   d61d6:	4639      	mov	r1, r7
        }
    }
    else if ((selfLen_ + len + 2) <= BLE_MAX_ADV_DATA_LEN) {
        // Append the AD structure at the and of advertising data.
        selfData_[selfLen_++] = len + 1;
        selfData_[selfLen_++] = static_cast<uint8_t>(type);
   d61d8:	7056      	strb	r6, [r2, #1]
        memcpy(&selfData_[selfLen_], buf, len);
   d61da:	4420      	add	r0, r4
   d61dc:	462a      	mov	r2, r5
   d61de:	f001 fdf0 	bl	d7dc2 <memcpy>
        selfLen_ += len;
   d61e2:	6a22      	ldr	r2, [r4, #32]
   d61e4:	442a      	add	r2, r5
   d61e6:	6222      	str	r2, [r4, #32]
    }
    return selfLen_;
   d61e8:	6a20      	ldr	r0, [r4, #32]
}
   d61ea:	b003      	add	sp, #12
   d61ec:	e8bd 83f0 	ldmia.w	sp!, {r4, r5, r6, r7, r8, r9, pc}

000d61f0 <_ZN8particle18BleAdvertisingDataC1Ev>:


/*******************************************************
 * BleAdvertisingData class
 */
BleAdvertisingData::BleAdvertisingData()
   d61f0:	b51f      	push	{r0, r1, r2, r3, r4, lr}
   d61f2:	4604      	mov	r4, r0
        : selfData_(),
          selfLen_(0) {
   d61f4:	4603      	mov	r3, r0
   d61f6:	f100 021f 	add.w	r2, r0, #31
   d61fa:	2000      	movs	r0, #0
   d61fc:	f803 0b01 	strb.w	r0, [r3], #1
   d6200:	4293      	cmp	r3, r2
   d6202:	f04f 0100 	mov.w	r1, #0
   d6206:	d1f9      	bne.n	d61fc <_ZN8particle18BleAdvertisingDataC1Ev+0xc>
    uint8_t flag = BLE_SIG_ADV_FLAGS_LE_ONLY_GENERAL_DISC_MODE;
   d6208:	aa04      	add	r2, sp, #16
   d620a:	2306      	movs	r3, #6
   d620c:	f802 3d01 	strb.w	r3, [r2, #-1]!
    append(BleAdvertisingDataType::FLAGS, &flag, sizeof(uint8_t));
   d6210:	2301      	movs	r3, #1
/*******************************************************
 * BleAdvertisingData class
 */
BleAdvertisingData::BleAdvertisingData()
        : selfData_(),
          selfLen_(0) {
   d6212:	6221      	str	r1, [r4, #32]
    uint8_t flag = BLE_SIG_ADV_FLAGS_LE_ONLY_GENERAL_DISC_MODE;
    append(BleAdvertisingDataType::FLAGS, &flag, sizeof(uint8_t));
   d6214:	9100      	str	r1, [sp, #0]
   d6216:	4620      	mov	r0, r4
   d6218:	4619      	mov	r1, r3
   d621a:	f7ff ffa2 	bl	d6162 <_ZN8particle18BleAdvertisingData6appendENS_22BleAdvertisingDataTypeEPKhjb>
}
   d621e:	4620      	mov	r0, r4
   d6220:	b004      	add	sp, #16
   d6222:	bd10      	pop	{r4, pc}

000d6224 <_ZN8particle18BleAdvertisingData6removeENS_22BleAdvertisingDataTypeE>:
void BleAdvertisingData::clear() {
    selfLen_ = 0;
    memset(selfData_, 0x00, sizeof(selfData_));
}

void BleAdvertisingData::remove(BleAdvertisingDataType type) {
   d6224:	b573      	push	{r0, r1, r4, r5, r6, lr}
    size_t offset, len;
    len = locate(selfData_, selfLen_, type, &offset);
   d6226:	460a      	mov	r2, r1
void BleAdvertisingData::clear() {
    selfLen_ = 0;
    memset(selfData_, 0x00, sizeof(selfData_));
}

void BleAdvertisingData::remove(BleAdvertisingDataType type) {
   d6228:	460e      	mov	r6, r1
    size_t offset, len;
    len = locate(selfData_, selfLen_, type, &offset);
   d622a:	ab01      	add	r3, sp, #4
   d622c:	6a01      	ldr	r1, [r0, #32]
void BleAdvertisingData::clear() {
    selfLen_ = 0;
    memset(selfData_, 0x00, sizeof(selfData_));
}

void BleAdvertisingData::remove(BleAdvertisingDataType type) {
   d622e:	4604      	mov	r4, r0
    size_t offset, len;
    len = locate(selfData_, selfLen_, type, &offset);
   d6230:	f7ff ff7f 	bl	d6132 <_ZN8particle18BleAdvertisingData6locateEPKhjNS_22BleAdvertisingDataTypeEPj>
    if (len > 0) {
   d6234:	4605      	mov	r5, r0
   d6236:	b178      	cbz	r0, d6258 <_ZN8particle18BleAdvertisingData6removeENS_22BleAdvertisingDataTypeE+0x34>
        size_t moveLen = selfLen_ - offset - len;
   d6238:	9801      	ldr	r0, [sp, #4]
        memcpy(&selfData_[offset], &selfData_[offset + len], moveLen);
   d623a:	6a22      	ldr	r2, [r4, #32]
   d623c:	1829      	adds	r1, r5, r0
   d623e:	1a12      	subs	r2, r2, r0
   d6240:	1b52      	subs	r2, r2, r5
   d6242:	4421      	add	r1, r4
   d6244:	4420      	add	r0, r4
   d6246:	f001 fdbc 	bl	d7dc2 <memcpy>
        selfLen_ -= len;
   d624a:	6a23      	ldr	r3, [r4, #32]
   d624c:	1b5d      	subs	r5, r3, r5
   d624e:	6225      	str	r5, [r4, #32]
        // Recursively remove duplicated type.
        remove(type);
   d6250:	4631      	mov	r1, r6
   d6252:	4620      	mov	r0, r4
   d6254:	f7ff ffe6 	bl	d6224 <_ZN8particle18BleAdvertisingData6removeENS_22BleAdvertisingDataTypeE>
    }
}
   d6258:	b002      	add	sp, #8
   d625a:	bd70      	pop	{r4, r5, r6, pc}

000d625c <_ZN8particle21BleCharacteristicImplC1Ev>:
/*******************************************************
 * BleCharacteristicImpl definition
 */
class BleCharacteristicImpl {
public:
    BleCharacteristicImpl()
   d625c:	b538      	push	{r3, r4, r5, lr}
              attrHandles_(),
              charUuid_(),
              svcUuid_(),
              description_(),
              callback_(nullptr),
              context_(nullptr) {
   d625e:	2500      	movs	r5, #0
   d6260:	f64f 73ff 	movw	r3, #65535	; 0xffff
/*******************************************************
 * BleCharacteristicImpl definition
 */
class BleCharacteristicImpl {
public:
    BleCharacteristicImpl()
   d6264:	4604      	mov	r4, r0
              attrHandles_(),
              charUuid_(),
              svcUuid_(),
              description_(),
              callback_(nullptr),
              context_(nullptr) {
   d6266:	8043      	strh	r3, [r0, #2]
   d6268:	220e      	movs	r2, #14
   d626a:	4629      	mov	r1, r5
   d626c:	7005      	strb	r5, [r0, #0]
        : value_(0) {
}

template<typename T>
inline particle::EnumFlags<T, typename std::enable_if_t<std::is_enum<T>::value>>::EnumFlags(const T& value) {
    value_ = static_cast<ValueType>(value);
   d626e:	7105      	strb	r5, [r0, #4]
   d6270:	3006      	adds	r0, #6
   d6272:	f001 fdcc 	bl	d7e0e <memset>
   d6276:	f104 0014 	add.w	r0, r4, #20
   d627a:	f7ff fe41 	bl	d5f00 <_ZN8particle7BleUuidC1Ev>
   d627e:	f104 0028 	add.w	r0, r4, #40	; 0x28
   d6282:	f7ff fe3d 	bl	d5f00 <_ZN8particle7BleUuidC1Ev>
   d6286:	4904      	ldr	r1, [pc, #16]	; (d6298 <_ZN8particle21BleCharacteristicImplC1Ev+0x3c>)
   d6288:	f104 003c 	add.w	r0, r4, #60	; 0x3c
   d628c:	f7ff fd31 	bl	d5cf2 <_ZN6StringC1EPK19__FlashStringHelper>
   d6290:	64e5      	str	r5, [r4, #76]	; 0x4c
   d6292:	6525      	str	r5, [r4, #80]	; 0x50
    }
   d6294:	4620      	mov	r0, r4
   d6296:	bd38      	pop	{r3, r4, r5, pc}
   d6298:	000d874c 	.word	0x000d874c

000d629c <_ZN8particle18BleLocalDeviceImpl14findPeerDeviceEt>:
    void onDisconnectedCallback(BleOnDisconnectedCallback callback, void* context) {
        disconnectedCb_ = callback;
        disconnectedContext_ = context;
    }

    BlePeerDevice* findPeerDevice(BleConnectionHandle connHandle) {
   d629c:	b510      	push	{r4, lr}
   d629e:	6983      	ldr	r3, [r0, #24]
    return data_;
}

template<typename T, typename AllocatorT>
T* spark::Vector<T, AllocatorT>::end() {
    return data_ + size_;
   d62a0:	69c2      	ldr	r2, [r0, #28]
   d62a2:	eb03 02c2 	add.w	r2, r3, r2, lsl #3
        for (auto& peer : peers_) {
   d62a6:	4293      	cmp	r3, r2
   d62a8:	4618      	mov	r0, r3
   d62aa:	d006      	beq.n	d62ba <_ZN8particle18BleLocalDeviceImpl14findPeerDeviceEt+0x1e>
            if (peer.impl()->connHandle() == connHandle) {
   d62ac:	6804      	ldr	r4, [r0, #0]
   d62ae:	8824      	ldrh	r4, [r4, #0]
   d62b0:	428c      	cmp	r4, r1
   d62b2:	f103 0308 	add.w	r3, r3, #8
   d62b6:	d1f6      	bne.n	d62a6 <_ZN8particle18BleLocalDeviceImpl14findPeerDeviceEt+0xa>
   d62b8:	bd10      	pop	{r4, pc}
                return &peer;
            }
        }
        return nullptr;
   d62ba:	2000      	movs	r0, #0
    }
   d62bc:	bd10      	pop	{r4, pc}
	...

000d62c0 <_ZN8particle17BleCharacteristic8setValueEPKhjNS_11BleTxRxTypeE>:
    len = std::min(len, desc.length());
    memcpy(buf, desc.c_str(), len);
    return len;
}

ssize_t BleCharacteristic::setValue(const uint8_t* buf, size_t len, BleTxRxType type) {
   d62c0:	e92d 41f3 	stmdb	sp!, {r0, r1, r4, r5, r6, r7, r8, lr}
   d62c4:	4680      	mov	r8, r0
   d62c6:	461f      	mov	r7, r3
    if (buf == nullptr || len == 0) {
   d62c8:	460e      	mov	r6, r1
   d62ca:	b369      	cbz	r1, d6328 <_ZN8particle17BleCharacteristic8setValueEPKhjNS_11BleTxRxTypeE+0x68>
   d62cc:	b362      	cbz	r2, d6328 <_ZN8particle17BleCharacteristic8setValueEPKhjNS_11BleTxRxTypeE+0x68>
   d62ce:	2af4      	cmp	r2, #244	; 0xf4
   d62d0:	6805      	ldr	r5, [r0, #0]
   d62d2:	bf28      	it	cs
   d62d4:	22f4      	movcs	r2, #244	; 0xf4
   d62d6:	4614      	mov	r4, r2
        return SYSTEM_ERROR_INVALID_ARGUMENT;
    }
    len = std::min(len, (size_t)BLE_MAX_ATTR_VALUE_PACKET_SIZE);
    if (impl()->local()) {
   d62d8:	782a      	ldrb	r2, [r5, #0]
   d62da:	b1a2      	cbz	r2, d6306 <_ZN8particle17BleCharacteristic8setValueEPKhjNS_11BleTxRxTypeE+0x46>
        int ret = SYSTEM_ERROR_NOT_SUPPORTED;
        // Updates the local characteristic value for peer to read.
        if (impl()->properties().isSet(BleCharacteristicProperty::READ)) {
   d62dc:	792b      	ldrb	r3, [r5, #4]
   d62de:	0798      	lsls	r0, r3, #30
   d62e0:	d507      	bpl.n	d62f2 <_ZN8particle17BleCharacteristic8setValueEPKhjNS_11BleTxRxTypeE+0x32>
            ret = CHECK(hal_ble_gatt_server_set_characteristic_value(impl()->attrHandles().value_handle, buf, len, nullptr));
   d62e2:	2300      	movs	r3, #0
   d62e4:	4622      	mov	r2, r4
   d62e6:	89a8      	ldrh	r0, [r5, #12]
   d62e8:	f7ff fa24 	bl	d5734 <hal_ble_gatt_server_set_characteristic_value>
   d62ec:	2800      	cmp	r0, #0
   d62ee:	da02      	bge.n	d62f6 <_ZN8particle17BleCharacteristic8setValueEPKhjNS_11BleTxRxTypeE+0x36>
   d62f0:	e043      	b.n	d637a <_ZN8particle17BleCharacteristic8setValueEPKhjNS_11BleTxRxTypeE+0xba>
    if (buf == nullptr || len == 0) {
        return SYSTEM_ERROR_INVALID_ARGUMENT;
    }
    len = std::min(len, (size_t)BLE_MAX_ATTR_VALUE_PACKET_SIZE);
    if (impl()->local()) {
        int ret = SYSTEM_ERROR_NOT_SUPPORTED;
   d62f2:	f06f 0077 	mvn.w	r0, #119	; 0x77
   d62f6:	f8d8 5000 	ldr.w	r5, [r8]
    return (value_ > 0);
}

template<typename T>
inline bool particle::EnumFlags<T, typename std::enable_if_t<std::is_enum<T>::value>>::isSet(const EnumFlags<T>& flags) const {
    return ((value_ & flags.value_) == flags.value_);
   d62fa:	792b      	ldrb	r3, [r5, #4]
        // Updates the local characteristic value for peer to read.
        if (impl()->properties().isSet(BleCharacteristicProperty::READ)) {
            ret = CHECK(hal_ble_gatt_server_set_characteristic_value(impl()->attrHandles().value_handle, buf, len, nullptr));
        }
        if (impl()->properties().isSet(BleCharacteristicProperty::NOTIFY) && type != BleTxRxType::ACK) {
   d62fc:	06da      	lsls	r2, r3, #27
   d62fe:	d518      	bpl.n	d6332 <_ZN8particle17BleCharacteristic8setValueEPKhjNS_11BleTxRxTypeE+0x72>
   d6300:	2f01      	cmp	r7, #1
   d6302:	d123      	bne.n	d634c <_ZN8particle17BleCharacteristic8setValueEPKhjNS_11BleTxRxTypeE+0x8c>
   d6304:	e015      	b.n	d6332 <_ZN8particle17BleCharacteristic8setValueEPKhjNS_11BleTxRxTypeE+0x72>
        if (impl()->properties().isSet(BleCharacteristicProperty::INDICATE) && type != BleTxRxType::NACK) {
            return hal_ble_gatt_server_indicate_characteristic_value(impl()->attrHandles().value_handle, buf, len, nullptr);
        }
        return ret;
    }
    if (impl()->connHandle() != BLE_INVALID_CONN_HANDLE) {
   d6306:	8868      	ldrh	r0, [r5, #2]
   d6308:	f64f 73ff 	movw	r3, #65535	; 0xffff
   d630c:	4298      	cmp	r0, r3
   d630e:	d00d      	beq.n	d632c <_ZN8particle17BleCharacteristic8setValueEPKhjNS_11BleTxRxTypeE+0x6c>
   d6310:	792b      	ldrb	r3, [r5, #4]
        if (impl()->properties().isSet(BleCharacteristicProperty::WRITE_WO_RSP) && type != BleTxRxType::ACK) {
   d6312:	0759      	lsls	r1, r3, #29
   d6314:	d523      	bpl.n	d635e <_ZN8particle17BleCharacteristic8setValueEPKhjNS_11BleTxRxTypeE+0x9e>
   d6316:	2f01      	cmp	r7, #1
   d6318:	d021      	beq.n	d635e <_ZN8particle17BleCharacteristic8setValueEPKhjNS_11BleTxRxTypeE+0x9e>
            return hal_ble_gatt_client_write_without_response(impl()->connHandle(), impl()->attrHandles().value_handle, buf, len, nullptr);
   d631a:	89a9      	ldrh	r1, [r5, #12]
   d631c:	9200      	str	r2, [sp, #0]
   d631e:	4623      	mov	r3, r4
   d6320:	4632      	mov	r2, r6
   d6322:	f7ff fa1b 	bl	d575c <hal_ble_gatt_client_write_without_response>
   d6326:	e028      	b.n	d637a <_ZN8particle17BleCharacteristic8setValueEPKhjNS_11BleTxRxTypeE+0xba>
    return len;
}

ssize_t BleCharacteristic::setValue(const uint8_t* buf, size_t len, BleTxRxType type) {
    if (buf == nullptr || len == 0) {
        return SYSTEM_ERROR_INVALID_ARGUMENT;
   d6328:	4815      	ldr	r0, [pc, #84]	; (d6380 <_ZN8particle17BleCharacteristic8setValueEPKhjNS_11BleTxRxTypeE+0xc0>)
   d632a:	e026      	b.n	d637a <_ZN8particle17BleCharacteristic8setValueEPKhjNS_11BleTxRxTypeE+0xba>
        if (impl()->properties().isSet(BleCharacteristicProperty::WRITE) && type != BleTxRxType::NACK) {
            return hal_ble_gatt_client_write_with_response(impl()->connHandle(), impl()->attrHandles().value_handle, buf, len, nullptr);
        }
        return SYSTEM_ERROR_NOT_SUPPORTED;
    }
    return SYSTEM_ERROR_INVALID_STATE;
   d632c:	f06f 00d1 	mvn.w	r0, #209	; 0xd1
   d6330:	e023      	b.n	d637a <_ZN8particle17BleCharacteristic8setValueEPKhjNS_11BleTxRxTypeE+0xba>
            ret = CHECK(hal_ble_gatt_server_set_characteristic_value(impl()->attrHandles().value_handle, buf, len, nullptr));
        }
        if (impl()->properties().isSet(BleCharacteristicProperty::NOTIFY) && type != BleTxRxType::ACK) {
            return hal_ble_gatt_server_notify_characteristic_value(impl()->attrHandles().value_handle, buf, len, nullptr);
        }
        if (impl()->properties().isSet(BleCharacteristicProperty::INDICATE) && type != BleTxRxType::NACK) {
   d6332:	069a      	lsls	r2, r3, #26
   d6334:	d521      	bpl.n	d637a <_ZN8particle17BleCharacteristic8setValueEPKhjNS_11BleTxRxTypeE+0xba>
   d6336:	2f02      	cmp	r7, #2
   d6338:	d01f      	beq.n	d637a <_ZN8particle17BleCharacteristic8setValueEPKhjNS_11BleTxRxTypeE+0xba>
            return hal_ble_gatt_server_indicate_characteristic_value(impl()->attrHandles().value_handle, buf, len, nullptr);
   d633a:	89a8      	ldrh	r0, [r5, #12]
   d633c:	2300      	movs	r3, #0
   d633e:	4622      	mov	r2, r4
   d6340:	4631      	mov	r1, r6
            return hal_ble_gatt_client_write_with_response(impl()->connHandle(), impl()->attrHandles().value_handle, buf, len, nullptr);
        }
        return SYSTEM_ERROR_NOT_SUPPORTED;
    }
    return SYSTEM_ERROR_INVALID_STATE;
}
   d6342:	b002      	add	sp, #8
   d6344:	e8bd 41f0 	ldmia.w	sp!, {r4, r5, r6, r7, r8, lr}
        }
        if (impl()->properties().isSet(BleCharacteristicProperty::NOTIFY) && type != BleTxRxType::ACK) {
            return hal_ble_gatt_server_notify_characteristic_value(impl()->attrHandles().value_handle, buf, len, nullptr);
        }
        if (impl()->properties().isSet(BleCharacteristicProperty::INDICATE) && type != BleTxRxType::NACK) {
            return hal_ble_gatt_server_indicate_characteristic_value(impl()->attrHandles().value_handle, buf, len, nullptr);
   d6348:	f7ff ba30 	b.w	d57ac <hal_ble_gatt_server_indicate_characteristic_value>
        // Updates the local characteristic value for peer to read.
        if (impl()->properties().isSet(BleCharacteristicProperty::READ)) {
            ret = CHECK(hal_ble_gatt_server_set_characteristic_value(impl()->attrHandles().value_handle, buf, len, nullptr));
        }
        if (impl()->properties().isSet(BleCharacteristicProperty::NOTIFY) && type != BleTxRxType::ACK) {
            return hal_ble_gatt_server_notify_characteristic_value(impl()->attrHandles().value_handle, buf, len, nullptr);
   d634c:	89a8      	ldrh	r0, [r5, #12]
   d634e:	2300      	movs	r3, #0
   d6350:	4622      	mov	r2, r4
   d6352:	4631      	mov	r1, r6
            return hal_ble_gatt_client_write_with_response(impl()->connHandle(), impl()->attrHandles().value_handle, buf, len, nullptr);
        }
        return SYSTEM_ERROR_NOT_SUPPORTED;
    }
    return SYSTEM_ERROR_INVALID_STATE;
}
   d6354:	b002      	add	sp, #8
   d6356:	e8bd 41f0 	ldmia.w	sp!, {r4, r5, r6, r7, r8, lr}
        // Updates the local characteristic value for peer to read.
        if (impl()->properties().isSet(BleCharacteristicProperty::READ)) {
            ret = CHECK(hal_ble_gatt_server_set_characteristic_value(impl()->attrHandles().value_handle, buf, len, nullptr));
        }
        if (impl()->properties().isSet(BleCharacteristicProperty::NOTIFY) && type != BleTxRxType::ACK) {
            return hal_ble_gatt_server_notify_characteristic_value(impl()->attrHandles().value_handle, buf, len, nullptr);
   d635a:	f7ff ba1d 	b.w	d5798 <hal_ble_gatt_server_notify_characteristic_value>
    }
    if (impl()->connHandle() != BLE_INVALID_CONN_HANDLE) {
        if (impl()->properties().isSet(BleCharacteristicProperty::WRITE_WO_RSP) && type != BleTxRxType::ACK) {
            return hal_ble_gatt_client_write_without_response(impl()->connHandle(), impl()->attrHandles().value_handle, buf, len, nullptr);
        }
        if (impl()->properties().isSet(BleCharacteristicProperty::WRITE) && type != BleTxRxType::NACK) {
   d635e:	071b      	lsls	r3, r3, #28
   d6360:	d501      	bpl.n	d6366 <_ZN8particle17BleCharacteristic8setValueEPKhjNS_11BleTxRxTypeE+0xa6>
   d6362:	2f02      	cmp	r7, #2
   d6364:	d102      	bne.n	d636c <_ZN8particle17BleCharacteristic8setValueEPKhjNS_11BleTxRxTypeE+0xac>
            return hal_ble_gatt_client_write_with_response(impl()->connHandle(), impl()->attrHandles().value_handle, buf, len, nullptr);
        }
        return SYSTEM_ERROR_NOT_SUPPORTED;
   d6366:	f06f 0077 	mvn.w	r0, #119	; 0x77
   d636a:	e006      	b.n	d637a <_ZN8particle17BleCharacteristic8setValueEPKhjNS_11BleTxRxTypeE+0xba>
    if (impl()->connHandle() != BLE_INVALID_CONN_HANDLE) {
        if (impl()->properties().isSet(BleCharacteristicProperty::WRITE_WO_RSP) && type != BleTxRxType::ACK) {
            return hal_ble_gatt_client_write_without_response(impl()->connHandle(), impl()->attrHandles().value_handle, buf, len, nullptr);
        }
        if (impl()->properties().isSet(BleCharacteristicProperty::WRITE) && type != BleTxRxType::NACK) {
            return hal_ble_gatt_client_write_with_response(impl()->connHandle(), impl()->attrHandles().value_handle, buf, len, nullptr);
   d636c:	2300      	movs	r3, #0
   d636e:	89a9      	ldrh	r1, [r5, #12]
   d6370:	9300      	str	r3, [sp, #0]
   d6372:	4632      	mov	r2, r6
   d6374:	4623      	mov	r3, r4
   d6376:	f7ff f9e7 	bl	d5748 <hal_ble_gatt_client_write_with_response>
        }
        return SYSTEM_ERROR_NOT_SUPPORTED;
    }
    return SYSTEM_ERROR_INVALID_STATE;
}
   d637a:	b002      	add	sp, #8
   d637c:	e8bd 81f0 	ldmia.w	sp!, {r4, r5, r6, r7, r8, pc}
   d6380:	fffffef2 	.word	0xfffffef2

000d6384 <_ZN8particle17BleCharacteristic14onDataReceivedEPFvPKhjRKNS_13BlePeerDeviceEPvES6_>:
        }
    }
    return hal_ble_gatt_client_configure_cccd(&config, nullptr);
}

void BleCharacteristic::onDataReceived(BleOnDataReceivedCallback callback, void* context) {
   d6384:	6803      	ldr	r3, [r0, #0]
    String& description() {
        return description_;
    }

    void setCallback(BleOnDataReceivedCallback callback, void* context) {
        callback_ = callback;
   d6386:	64d9      	str	r1, [r3, #76]	; 0x4c
        context_ = context;
   d6388:	651a      	str	r2, [r3, #80]	; 0x50
   d638a:	4770      	bx	lr

000d638c <_ZNK8particle13BlePeerDevice7addressEv>:

void BlePeerDevice::bind(const BleAddress& address) const {
    impl()->address() = address;
}

BleAddress BlePeerDevice::address() const {
   d638c:	b510      	push	{r4, lr}
    return impl()->address();
   d638e:	680a      	ldr	r2, [r1, #0]
   d6390:	f852 3f02 	ldr.w	r3, [r2, #2]!
   d6394:	6003      	str	r3, [r0, #0]
   d6396:	6853      	ldr	r3, [r2, #4]
   d6398:	6043      	str	r3, [r0, #4]
}
   d639a:	bd10      	pop	{r4, pc}

000d639c <_ZNK8particle13BlePeerDeviceeqERKS0_>:

bool BlePeerDevice::operator==(const BlePeerDevice& device) const {
   d639c:	b51f      	push	{r0, r1, r2, r3, r4, lr}
    if (impl()->connHandle() == device.impl()->connHandle() && address() == device.address()) {
   d639e:	6802      	ldr	r2, [r0, #0]
   d63a0:	680b      	ldr	r3, [r1, #0]
   d63a2:	8812      	ldrh	r2, [r2, #0]
   d63a4:	881b      	ldrh	r3, [r3, #0]
   d63a6:	429a      	cmp	r2, r3

BleAddress BlePeerDevice::address() const {
    return impl()->address();
}

bool BlePeerDevice::operator==(const BlePeerDevice& device) const {
   d63a8:	460c      	mov	r4, r1
    if (impl()->connHandle() == device.impl()->connHandle() && address() == device.address()) {
   d63aa:	d10c      	bne.n	d63c6 <_ZNK8particle13BlePeerDeviceeqERKS0_+0x2a>
   d63ac:	4601      	mov	r1, r0
   d63ae:	4668      	mov	r0, sp
   d63b0:	f7ff ffec 	bl	d638c <_ZNK8particle13BlePeerDevice7addressEv>
   d63b4:	4621      	mov	r1, r4
   d63b6:	a802      	add	r0, sp, #8
   d63b8:	f7ff ffe8 	bl	d638c <_ZNK8particle13BlePeerDevice7addressEv>
   d63bc:	a902      	add	r1, sp, #8
   d63be:	4668      	mov	r0, sp
   d63c0:	f7ff fd90 	bl	d5ee4 <_ZNK8particle10BleAddresseqERKS0_>
   d63c4:	b900      	cbnz	r0, d63c8 <_ZNK8particle13BlePeerDeviceeqERKS0_+0x2c>
        return true;
    }
    return false;
   d63c6:	2000      	movs	r0, #0
}
   d63c8:	b004      	add	sp, #16
   d63ca:	bd10      	pop	{r4, pc}

000d63cc <_ZN8particle14BleLocalDeviceC1Ev>:


/*******************************************************
 * BleLocalDevice class
 */
BleLocalDevice::BleLocalDevice()
   d63cc:	b510      	push	{r4, lr}
   d63ce:	4604      	mov	r4, r0

  /// std::make_unique for single objects
  template<typename _Tp, typename... _Args>
    inline typename _MakeUniq<_Tp>::__single_object
    make_unique(_Args&&... __args)
    { return unique_ptr<_Tp>(new _Tp(std::forward<_Args>(__args)...)); }
   d63d0:	2034      	movs	r0, #52	; 0x34
   d63d2:	f7fd fe60 	bl	d4096 <_Znwj>
   d63d6:	4601      	mov	r1, r0
   d63d8:	b168      	cbz	r0, d63f6 <_ZN8particle14BleLocalDeviceC1Ev+0x2a>
// spark::Vector
template<typename T, typename AllocatorT>
inline spark::Vector<T, AllocatorT>::Vector() :
        data_(nullptr),
        size_(0),
        capacity_(0) {
   d63da:	2300      	movs	r3, #0
   d63dc:	6003      	str	r3, [r0, #0]
   d63de:	6043      	str	r3, [r0, #4]
   d63e0:	6083      	str	r3, [r0, #8]
   d63e2:	60c3      	str	r3, [r0, #12]
   d63e4:	6103      	str	r3, [r0, #16]
   d63e6:	6143      	str	r3, [r0, #20]
   d63e8:	6183      	str	r3, [r0, #24]
   d63ea:	61c3      	str	r3, [r0, #28]
   d63ec:	6203      	str	r3, [r0, #32]
public:
    BleLocalDeviceImpl()
            : connectedCb_(nullptr),
              disconnectedCb_(nullptr),
              connectedContext_(nullptr),
              disconnectedContext_(nullptr) {
   d63ee:	6243      	str	r3, [r0, #36]	; 0x24
   d63f0:	6283      	str	r3, [r0, #40]	; 0x28
   d63f2:	62c3      	str	r3, [r0, #44]	; 0x2c
   d63f4:	6303      	str	r3, [r0, #48]	; 0x30
      constexpr _Head_base(const _Head_base&) = default;
      constexpr _Head_base(_Head_base&&) = default;

      template<typename _UHead>
        constexpr _Head_base(_UHead&& __h)
	: _M_head_impl(std::forward<_UHead>(__h)) { }
   d63f6:	6021      	str	r1, [r4, #0]
/*******************************************************
 * BleLocalDevice class
 */
BleLocalDevice::BleLocalDevice()
        : impl_(std::make_unique<BleLocalDeviceImpl>()) {
    if (!impl()) {
   d63f8:	b919      	cbnz	r1, d6402 <_ZN8particle14BleLocalDeviceC1Ev+0x36>
        SPARK_ASSERT(false);
   d63fa:	4a0a      	ldr	r2, [pc, #40]	; (d6424 <_ZN8particle14BleLocalDeviceC1Ev+0x58>)
   d63fc:	200a      	movs	r0, #10
   d63fe:	f7ff fb17 	bl	d5a30 <panic_>
    }
    SPARK_ASSERT(hal_ble_stack_init(nullptr) == SYSTEM_ERROR_NONE);
   d6402:	2000      	movs	r0, #0
   d6404:	f7ff f962 	bl	d56cc <hal_ble_stack_init>
   d6408:	b120      	cbz	r0, d6414 <_ZN8particle14BleLocalDeviceC1Ev+0x48>
   d640a:	4a06      	ldr	r2, [pc, #24]	; (d6424 <_ZN8particle14BleLocalDeviceC1Ev+0x58>)
   d640c:	2100      	movs	r1, #0
   d640e:	200a      	movs	r0, #10
   d6410:	f7ff fb0e 	bl	d5a30 <panic_>
    hal_ble_set_callback_on_periph_link_events(impl()->onBleLinkEvents, impl(), nullptr);
   d6414:	2200      	movs	r2, #0
   d6416:	6821      	ldr	r1, [r4, #0]
   d6418:	4803      	ldr	r0, [pc, #12]	; (d6428 <_ZN8particle14BleLocalDeviceC1Ev+0x5c>)
   d641a:	f7ff f9b3 	bl	d5784 <hal_ble_set_callback_on_periph_link_events>
}
   d641e:	4620      	mov	r0, r4
   d6420:	bd10      	pop	{r4, pc}
   d6422:	bf00      	nop
   d6424:	000d565d 	.word	0x000d565d
   d6428:	000d6805 	.word	0x000d6805

000d642c <_ZN8particle14BleLocalDevice11getInstanceEv>:

BleLocalDevice& BleLocalDevice::getInstance() {
   d642c:	b510      	push	{r4, lr}
    static BleLocalDevice instance;
   d642e:	4c0a      	ldr	r4, [pc, #40]	; (d6458 <_ZN8particle14BleLocalDevice11getInstanceEv+0x2c>)
   d6430:	6823      	ldr	r3, [r4, #0]
   d6432:	07db      	lsls	r3, r3, #31
   d6434:	d40e      	bmi.n	d6454 <_ZN8particle14BleLocalDevice11getInstanceEv+0x28>
   d6436:	4620      	mov	r0, r4
   d6438:	f7fd fe35 	bl	d40a6 <__cxa_guard_acquire>
   d643c:	b150      	cbz	r0, d6454 <_ZN8particle14BleLocalDevice11getInstanceEv+0x28>
   d643e:	4807      	ldr	r0, [pc, #28]	; (d645c <_ZN8particle14BleLocalDevice11getInstanceEv+0x30>)
   d6440:	f7ff ffc4 	bl	d63cc <_ZN8particle14BleLocalDeviceC1Ev>
   d6444:	4620      	mov	r0, r4
   d6446:	f7fd fe33 	bl	d40b0 <__cxa_guard_release>
   d644a:	4a05      	ldr	r2, [pc, #20]	; (d6460 <_ZN8particle14BleLocalDevice11getInstanceEv+0x34>)
   d644c:	4905      	ldr	r1, [pc, #20]	; (d6464 <_ZN8particle14BleLocalDevice11getInstanceEv+0x38>)
   d644e:	4803      	ldr	r0, [pc, #12]	; (d645c <_ZN8particle14BleLocalDevice11getInstanceEv+0x30>)
   d6450:	f001 fb30 	bl	d7ab4 <__aeabi_atexit>
    return instance;
}
   d6454:	4801      	ldr	r0, [pc, #4]	; (d645c <_ZN8particle14BleLocalDevice11getInstanceEv+0x30>)
   d6456:	bd10      	pop	{r4, pc}
   d6458:	2003e3d4 	.word	0x2003e3d4
   d645c:	2003e3d0 	.word	0x2003e3d0
   d6460:	2003e36c 	.word	0x2003e36c
   d6464:	000d6619 	.word	0x000d6619

000d6468 <_ZN8particle21BleCharacteristicImpl15onBleCharEventsEPK18hal_ble_char_evt_tPv>:
/*
 * WARN: This is executed from HAL ble thread. If the BLE wiring lock is acquired by a thread,
 * calling wiring APIs those acquiring the BLE wiring lock from the callback will suspend the
 * the execution of the callback, until the BLE wiring lock is released.
 */
void BleCharacteristicImpl::onBleCharEvents(const hal_ble_char_evt_t *event, void* context) {
   d6468:	b570      	push	{r4, r5, r6, lr}
    auto impl = static_cast<BleCharacteristicImpl*>(context);
    // This callback won't modified any data in wiring.
    //WiringBleLock lk;
    switch (event->type) {
   d646a:	6803      	ldr	r3, [r0, #0]
   d646c:	3b09      	subs	r3, #9
   d646e:	2b01      	cmp	r3, #1
/*
 * WARN: This is executed from HAL ble thread. If the BLE wiring lock is acquired by a thread,
 * calling wiring APIs those acquiring the BLE wiring lock from the callback will suspend the
 * the execution of the callback, until the BLE wiring lock is released.
 */
void BleCharacteristicImpl::onBleCharEvents(const hal_ble_char_evt_t *event, void* context) {
   d6470:	b08a      	sub	sp, #40	; 0x28
   d6472:	4604      	mov	r4, r0
   d6474:	460e      	mov	r6, r1
    auto impl = static_cast<BleCharacteristicImpl*>(context);
    // This callback won't modified any data in wiring.
    //WiringBleLock lk;
    switch (event->type) {
   d6476:	d819      	bhi.n	d64ac <_ZN8particle21BleCharacteristicImpl15onBleCharEventsEPK18hal_ble_char_evt_tPv+0x44>
        case BLE_EVT_DATA_NOTIFIED:
        case BLE_EVT_DATA_WRITTEN: {
            auto peer = BleLocalDevice::getInstance().impl()->findPeerDevice(event->conn_handle);
   d6478:	f7ff ffd8 	bl	d642c <_ZN8particle14BleLocalDevice11getInstanceEv>
   d647c:	88a1      	ldrh	r1, [r4, #4]
   d647e:	6800      	ldr	r0, [r0, #0]
   d6480:	f7ff ff0c 	bl	d629c <_ZN8particle18BleLocalDeviceImpl14findPeerDeviceEt>
            if (!peer) {
   d6484:	4602      	mov	r2, r0
   d6486:	b958      	cbnz	r0, d64a0 <_ZN8particle21BleCharacteristicImpl15onBleCharEventsEPK18hal_ble_char_evt_tPv+0x38>
                LOG(ERROR, "Peer device is missing!");
   d6488:	2320      	movs	r3, #32
   d648a:	9302      	str	r3, [sp, #8]
   d648c:	4b08      	ldr	r3, [pc, #32]	; (d64b0 <_ZN8particle21BleCharacteristicImpl15onBleCharEventsEPK18hal_ble_char_evt_tPv+0x48>)
   d648e:	9003      	str	r0, [sp, #12]
   d6490:	9300      	str	r3, [sp, #0]
   d6492:	aa02      	add	r2, sp, #8
   d6494:	4603      	mov	r3, r0
   d6496:	4907      	ldr	r1, [pc, #28]	; (d64b4 <_ZN8particle21BleCharacteristicImpl15onBleCharEventsEPK18hal_ble_char_evt_tPv+0x4c>)
   d6498:	2032      	movs	r0, #50	; 0x32
   d649a:	f7ff fad1 	bl	d5a40 <log_message>
   d649e:	e005      	b.n	d64ac <_ZN8particle21BleCharacteristicImpl15onBleCharEventsEPK18hal_ble_char_evt_tPv+0x44>
                break;
            }
            if (impl->callback_) {
   d64a0:	6cf5      	ldr	r5, [r6, #76]	; 0x4c
   d64a2:	b11d      	cbz	r5, d64ac <_ZN8particle21BleCharacteristicImpl15onBleCharEventsEPK18hal_ble_char_evt_tPv+0x44>
                impl->callback_(event->params.data_written.data, event->params.data_written.len, *peer, impl->context_);
   d64a4:	6d33      	ldr	r3, [r6, #80]	; 0x50
   d64a6:	68e1      	ldr	r1, [r4, #12]
   d64a8:	6920      	ldr	r0, [r4, #16]
   d64aa:	47a8      	blx	r5
        }
        default: {
            break;
        }
    }
}
   d64ac:	b00a      	add	sp, #40	; 0x28
   d64ae:	bd70      	pop	{r4, r5, r6, pc}
   d64b0:	000d8542 	.word	0x000d8542
   d64b4:	000d84f8 	.word	0x000d84f8

000d64b8 <_ZNK8particle14BleLocalDevice18setAdvertisingDataEPNS_18BleAdvertisingDataE>:
int BleLocalDevice::getAdvertisingParameters(BleAdvertisingParams* params) const {
    return hal_ble_gap_get_advertising_parameters(params, nullptr);
}

int BleLocalDevice::setAdvertisingData(BleAdvertisingData* advertisingData) const {
    if (advertisingData == nullptr) {
   d64b8:	4608      	mov	r0, r1
   d64ba:	b909      	cbnz	r1, d64c0 <_ZNK8particle14BleLocalDevice18setAdvertisingDataEPNS_18BleAdvertisingDataE+0x8>
        return hal_ble_gap_set_advertising_data(nullptr, 0, nullptr);
   d64bc:	460a      	mov	r2, r1
   d64be:	e001      	b.n	d64c4 <_ZNK8particle14BleLocalDevice18setAdvertisingDataEPNS_18BleAdvertisingDataE+0xc>
    } else {
        return hal_ble_gap_set_advertising_data(advertisingData->data(), advertisingData->length(), nullptr);
   d64c0:	6a09      	ldr	r1, [r1, #32]
   d64c2:	2200      	movs	r2, #0
   d64c4:	f7ff b90a 	b.w	d56dc <hal_ble_gap_set_advertising_data>

000d64c8 <_ZNK8particle14BleLocalDevice19setScanResponseDataEPNS_18BleAdvertisingDataE>:
    }
}

int BleLocalDevice::setScanResponseData(BleAdvertisingData* scanResponse) const {
   d64c8:	b510      	push	{r4, lr}
    if (scanResponse == nullptr) {
   d64ca:	460c      	mov	r4, r1
   d64cc:	b911      	cbnz	r1, d64d4 <_ZNK8particle14BleLocalDevice19setScanResponseDataEPNS_18BleAdvertisingDataE+0xc>
        return hal_ble_gap_set_scan_response_data(nullptr, 0, nullptr);
   d64ce:	460a      	mov	r2, r1
   d64d0:	4608      	mov	r0, r1
   d64d2:	e006      	b.n	d64e2 <_ZNK8particle14BleLocalDevice19setScanResponseDataEPNS_18BleAdvertisingDataE+0x1a>
    } else {
        scanResponse->remove(BleAdvertisingDataType::FLAGS);
   d64d4:	2101      	movs	r1, #1
   d64d6:	4620      	mov	r0, r4
   d64d8:	f7ff fea4 	bl	d6224 <_ZN8particle18BleAdvertisingData6removeENS_22BleAdvertisingDataTypeE>
        return hal_ble_gap_set_scan_response_data(scanResponse->data(), scanResponse->length(), nullptr);
   d64dc:	6a21      	ldr	r1, [r4, #32]
   d64de:	2200      	movs	r2, #0
   d64e0:	4620      	mov	r0, r4
    }
}
   d64e2:	e8bd 4010 	ldmia.w	sp!, {r4, lr}
int BleLocalDevice::setScanResponseData(BleAdvertisingData* scanResponse) const {
    if (scanResponse == nullptr) {
        return hal_ble_gap_set_scan_response_data(nullptr, 0, nullptr);
    } else {
        scanResponse->remove(BleAdvertisingDataType::FLAGS);
        return hal_ble_gap_set_scan_response_data(scanResponse->data(), scanResponse->length(), nullptr);
   d64e6:	f7ff b901 	b.w	d56ec <hal_ble_gap_set_scan_response_data>

000d64ea <_ZNK8particle14BleLocalDevice9advertiseEv>:
    size_t len = CHECK(hal_ble_gap_get_scan_response_data(scanResponse->data(), BLE_MAX_ADV_DATA_LEN, nullptr));
    scanResponse->resize(len);
    return len;
}

int BleLocalDevice::advertise() const {
   d64ea:	b513      	push	{r0, r1, r4, lr}
    WiringBleLock lk;
   d64ec:	a801      	add	r0, sp, #4
   d64ee:	f7ff fcdf 	bl	d5eb0 <_ZN8particle3ble13WiringBleLockC1Ev>
    return hal_ble_gap_start_advertising(nullptr);
   d64f2:	2000      	movs	r0, #0
   d64f4:	f7ff f902 	bl	d56fc <hal_ble_gap_start_advertising>
   d64f8:	4604      	mov	r4, r0
    scanResponse->resize(len);
    return len;
}

int BleLocalDevice::advertise() const {
    WiringBleLock lk;
   d64fa:	a801      	add	r0, sp, #4
   d64fc:	f7ff fce6 	bl	d5ecc <_ZN8particle3ble13WiringBleLockD1Ev>
    return hal_ble_gap_start_advertising(nullptr);
}
   d6500:	4620      	mov	r0, r4
   d6502:	b002      	add	sp, #8
   d6504:	bd10      	pop	{r4, pc}

000d6506 <_ZNK8particle14BleLocalDevice9advertiseEPNS_18BleAdvertisingDataES2_>:

int BleLocalDevice::advertise(BleAdvertisingData* advertisingData, BleAdvertisingData* scanResponse) const {
   d6506:	b573      	push	{r0, r1, r4, r5, r6, lr}
   d6508:	4605      	mov	r5, r0
   d650a:	460c      	mov	r4, r1
    WiringBleLock lk;
   d650c:	a801      	add	r0, sp, #4
int BleLocalDevice::advertise() const {
    WiringBleLock lk;
    return hal_ble_gap_start_advertising(nullptr);
}

int BleLocalDevice::advertise(BleAdvertisingData* advertisingData, BleAdvertisingData* scanResponse) const {
   d650e:	4616      	mov	r6, r2
    WiringBleLock lk;
   d6510:	f7ff fcce 	bl	d5eb0 <_ZN8particle3ble13WiringBleLockC1Ev>
    CHECK(setAdvertisingData(advertisingData));
   d6514:	4621      	mov	r1, r4
   d6516:	4628      	mov	r0, r5
   d6518:	f7ff ffce 	bl	d64b8 <_ZNK8particle14BleLocalDevice18setAdvertisingDataEPNS_18BleAdvertisingDataE>
   d651c:	2800      	cmp	r0, #0
   d651e:	db08      	blt.n	d6532 <_ZNK8particle14BleLocalDevice9advertiseEPNS_18BleAdvertisingDataES2_+0x2c>
    CHECK(setScanResponseData(scanResponse));
   d6520:	4631      	mov	r1, r6
   d6522:	4628      	mov	r0, r5
   d6524:	f7ff ffd0 	bl	d64c8 <_ZNK8particle14BleLocalDevice19setScanResponseDataEPNS_18BleAdvertisingDataE>
   d6528:	2800      	cmp	r0, #0
   d652a:	db02      	blt.n	d6532 <_ZNK8particle14BleLocalDevice9advertiseEPNS_18BleAdvertisingDataES2_+0x2c>
    return advertise();
   d652c:	4628      	mov	r0, r5
   d652e:	f7ff ffdc 	bl	d64ea <_ZNK8particle14BleLocalDevice9advertiseEv>
   d6532:	4604      	mov	r4, r0
    WiringBleLock lk;
    return hal_ble_gap_start_advertising(nullptr);
}

int BleLocalDevice::advertise(BleAdvertisingData* advertisingData, BleAdvertisingData* scanResponse) const {
    WiringBleLock lk;
   d6534:	a801      	add	r0, sp, #4
   d6536:	f7ff fcc9 	bl	d5ecc <_ZN8particle3ble13WiringBleLockD1Ev>
    CHECK(setAdvertisingData(advertisingData));
    CHECK(setScanResponseData(scanResponse));
    return advertise();
}
   d653a:	4620      	mov	r0, r4
   d653c:	b002      	add	sp, #8
   d653e:	bd70      	pop	{r4, r5, r6, pc}

000d6540 <_ZNK8particle14BleLocalDevice9connectedEv>:
    ppcp.slave_latency = latency;
    ppcp.conn_sup_timeout = timeout;
    return hal_ble_gap_set_ppcp(&ppcp, nullptr);
}

bool BleLocalDevice::connected() const {
   d6540:	6803      	ldr	r3, [r0, #0]
    return (impl()->peers().size() > 0);
   d6542:	69d8      	ldr	r0, [r3, #28]
}
   d6544:	2800      	cmp	r0, #0
   d6546:	bfd4      	ite	le
   d6548:	2000      	movle	r0, #0
   d654a:	2001      	movgt	r0, #1
   d654c:	4770      	bx	lr

000d654e <_ZNSt14__shared_countILN9__gnu_cxx12_Lock_policyE0EEC1ERKS2_>:
	if (_M_pi != nullptr)
	  _M_pi->_M_release();
      }

      __shared_count(const __shared_count& __r) noexcept
      : _M_pi(__r._M_pi)
   d654e:	680b      	ldr	r3, [r1, #0]
   d6550:	6003      	str	r3, [r0, #0]
      {
	if (_M_pi != 0)
   d6552:	b113      	cbz	r3, d655a <_ZNSt14__shared_countILN9__gnu_cxx12_Lock_policyE0EEC1ERKS2_+0xc>
    }

  template<>
    inline void
    _Sp_counted_base<_S_single>::_M_add_ref_copy()
    { ++_M_use_count; }
   d6554:	685a      	ldr	r2, [r3, #4]
   d6556:	3201      	adds	r2, #1
   d6558:	605a      	str	r2, [r3, #4]
      __shared_count(const __shared_count& __r) noexcept
      : _M_pi(__r._M_pi)
      {
	if (_M_pi != 0)
	  _M_pi->_M_add_ref_copy();
      }
   d655a:	4770      	bx	lr

000d655c <_ZN8particle17BleCharacteristicC1ERKS0_>:
        SPARK_ASSERT(false);
    }
    DEBUG("BleCharacteristic(), 0x%08X -> 0x%08X, count: %d", this, impl(), impl_.use_count());
}

BleCharacteristic::BleCharacteristic(const BleCharacteristic& characteristic)
   d655c:	b510      	push	{r4, lr}
      template<typename _Tp1>
	__shared_ptr(const __shared_ptr<_Tp1, _Lp>& __r, _Tp* __p) noexcept
	: _M_ptr(__p), _M_refcount(__r._M_refcount) // never throws
	{ }

      __shared_ptr(const __shared_ptr&) noexcept = default;
   d655e:	f851 3b04 	ldr.w	r3, [r1], #4
   d6562:	4604      	mov	r4, r0
   d6564:	f840 3b04 	str.w	r3, [r0], #4
   d6568:	f7ff fff1 	bl	d654e <_ZNSt14__shared_countILN9__gnu_cxx12_Lock_policyE0EEC1ERKS2_>
        : impl_(characteristic.impl_) {
    if (!impl()) {
   d656c:	6823      	ldr	r3, [r4, #0]
   d656e:	b90b      	cbnz	r3, d6574 <_ZN8particle17BleCharacteristicC1ERKS0_+0x18>
   d6570:	f7ff fc6e 	bl	d5e50 <_ZN8particle10BleServiceC2ERKNS_7BleUuidE.part.102>
        SPARK_ASSERT(false);
    }
    DEBUG("BleCharacteristic(copy), 0x%08X => 0x%08X -> 0x%08X, count: %d", &characteristic, this, impl(), impl_.use_count());
}
   d6574:	4620      	mov	r0, r4
   d6576:	bd10      	pop	{r4, pc}

000d6578 <_ZNSt12__shared_ptrIN8particle14BleServiceImplELN9__gnu_cxx12_Lock_policyE0EEC1ERKS4_>:
   d6578:	b510      	push	{r4, lr}
   d657a:	f851 3b04 	ldr.w	r3, [r1], #4
   d657e:	4604      	mov	r4, r0
   d6580:	f840 3b04 	str.w	r3, [r0], #4
   d6584:	f7ff ffe3 	bl	d654e <_ZNSt14__shared_countILN9__gnu_cxx12_Lock_policyE0EEC1ERKS2_>
   d6588:	4620      	mov	r0, r4
   d658a:	bd10      	pop	{r4, pc}

000d658c <_ZNSt14__shared_countILN9__gnu_cxx12_Lock_policyE0EED1Ev>:
      explicit __shared_count(const __weak_count<_Lp>& __r);

      // Does not throw if __r._M_get_use_count() == 0, caller must check.
      explicit __shared_count(const __weak_count<_Lp>& __r, std::nothrow_t);

      ~__shared_count() noexcept
   d658c:	b510      	push	{r4, lr}
   d658e:	4604      	mov	r4, r0
      {
	if (_M_pi != nullptr)
   d6590:	6800      	ldr	r0, [r0, #0]
   d6592:	b128      	cbz	r0, d65a0 <_ZNSt14__shared_countILN9__gnu_cxx12_Lock_policyE0EED1Ev+0x14>

  template<>
    inline void
    _Sp_counted_base<_S_single>::_M_release() noexcept
    {
      if (--_M_use_count == 0)
   d6594:	6843      	ldr	r3, [r0, #4]
   d6596:	3b01      	subs	r3, #1
   d6598:	6043      	str	r3, [r0, #4]
   d659a:	b90b      	cbnz	r3, d65a0 <_ZNSt14__shared_countILN9__gnu_cxx12_Lock_policyE0EED1Ev+0x14>
   d659c:	f7ff fc62 	bl	d5e64 <_ZNSt16_Sp_counted_baseILN9__gnu_cxx12_Lock_policyE0EE10_M_releaseEv.part.4.constprop.112>

      ~__shared_count() noexcept
      {
	if (_M_pi != nullptr)
	  _M_pi->_M_release();
      }
   d65a0:	4620      	mov	r0, r4
   d65a2:	bd10      	pop	{r4, pc}

000d65a4 <_ZN8particle17BleCharacteristicD1Ev>:
    impl_ = characteristic.impl_;
    DEBUG("now:0x%08X -> 0x%08X, count: %d", this, impl(), impl_.use_count());
    return *this;
}

BleCharacteristic::~BleCharacteristic() {
   d65a4:	b510      	push	{r4, lr}
   d65a6:	4604      	mov	r4, r0
	: _M_ptr(__p), _M_refcount(__r._M_refcount) // never throws
	{ }

      __shared_ptr(const __shared_ptr&) noexcept = default;
      __shared_ptr& operator=(const __shared_ptr&) noexcept = default;
      ~__shared_ptr() = default;
   d65a8:	3004      	adds	r0, #4
   d65aa:	f7ff ffef 	bl	d658c <_ZNSt14__shared_countILN9__gnu_cxx12_Lock_policyE0EED1Ev>
    DEBUG("~BleCharacteristic(), 0x%08X -> 0x%08X, count: %d", this, impl(), impl_.use_count() - 1);
}
   d65ae:	4620      	mov	r0, r4
   d65b0:	bd10      	pop	{r4, pc}

000d65b2 <_ZN5spark6VectorIN8particle10BleServiceENS_16DefaultAllocatorEED1Ev>:
inline spark::Vector<T, AllocatorT>::Vector(Vector<T, AllocatorT>&& vector) : Vector() {
    swap(*this, vector);
}

template<typename T, typename AllocatorT>
inline spark::Vector<T, AllocatorT>::~Vector() {
   d65b2:	b570      	push	{r4, r5, r6, lr}
    destruct(data_, data_ + size_);
   d65b4:	6804      	ldr	r4, [r0, #0]
   d65b6:	6843      	ldr	r3, [r0, #4]
inline spark::Vector<T, AllocatorT>::Vector(Vector<T, AllocatorT>&& vector) : Vector() {
    swap(*this, vector);
}

template<typename T, typename AllocatorT>
inline spark::Vector<T, AllocatorT>::~Vector() {
   d65b8:	4605      	mov	r5, r0
    destruct(data_, data_ + size_);
   d65ba:	eb04 06c3 	add.w	r6, r4, r3, lsl #3
            new(p) T(std::forward<ArgsT>(args)...);
        }
    }

    static void destruct(T* p, const T* end) {
        for (; p != end; ++p) {
   d65be:	42a6      	cmp	r6, r4
   d65c0:	d004      	beq.n	d65cc <_ZN5spark6VectorIN8particle10BleServiceENS_16DefaultAllocatorEED1Ev+0x1a>
   d65c2:	1d20      	adds	r0, r4, #4
   d65c4:	f7ff ffe2 	bl	d658c <_ZNSt14__shared_countILN9__gnu_cxx12_Lock_policyE0EED1Ev>
   d65c8:	3408      	adds	r4, #8
   d65ca:	e7f8      	b.n	d65be <_ZN5spark6VectorIN8particle10BleServiceENS_16DefaultAllocatorEED1Ev+0xc>
inline void* spark::DefaultAllocator::realloc(void* ptr, size_t size) {
    return ::realloc(ptr, size);
}

inline void spark::DefaultAllocator::free(void* ptr) {
    ::free(ptr);
   d65cc:	6828      	ldr	r0, [r5, #0]
   d65ce:	f7ff fac3 	bl	d5b58 <free>

template<typename T, typename AllocatorT>
inline spark::Vector<T, AllocatorT>::~Vector() {
    destruct(data_, data_ + size_);
    AllocatorT::free(data_);
}
   d65d2:	4628      	mov	r0, r5
   d65d4:	bd70      	pop	{r4, r5, r6, pc}

000d65d6 <_ZN5spark6VectorIN8particle17BleCharacteristicENS_16DefaultAllocatorEED1Ev>:
inline spark::Vector<T, AllocatorT>::Vector(Vector<T, AllocatorT>&& vector) : Vector() {
    swap(*this, vector);
}

template<typename T, typename AllocatorT>
inline spark::Vector<T, AllocatorT>::~Vector() {
   d65d6:	b570      	push	{r4, r5, r6, lr}
    destruct(data_, data_ + size_);
   d65d8:	6804      	ldr	r4, [r0, #0]
   d65da:	6843      	ldr	r3, [r0, #4]
inline spark::Vector<T, AllocatorT>::Vector(Vector<T, AllocatorT>&& vector) : Vector() {
    swap(*this, vector);
}

template<typename T, typename AllocatorT>
inline spark::Vector<T, AllocatorT>::~Vector() {
   d65dc:	4605      	mov	r5, r0
    destruct(data_, data_ + size_);
   d65de:	eb04 06c3 	add.w	r6, r4, r3, lsl #3
            new(p) T(std::forward<ArgsT>(args)...);
        }
    }

    static void destruct(T* p, const T* end) {
        for (; p != end; ++p) {
   d65e2:	42a6      	cmp	r6, r4
   d65e4:	d004      	beq.n	d65f0 <_ZN5spark6VectorIN8particle17BleCharacteristicENS_16DefaultAllocatorEED1Ev+0x1a>
   d65e6:	1d20      	adds	r0, r4, #4
   d65e8:	f7ff ffd0 	bl	d658c <_ZNSt14__shared_countILN9__gnu_cxx12_Lock_policyE0EED1Ev>
   d65ec:	3408      	adds	r4, #8
   d65ee:	e7f8      	b.n	d65e2 <_ZN5spark6VectorIN8particle17BleCharacteristicENS_16DefaultAllocatorEED1Ev+0xc>
inline void* spark::DefaultAllocator::realloc(void* ptr, size_t size) {
    return ::realloc(ptr, size);
}

inline void spark::DefaultAllocator::free(void* ptr) {
    ::free(ptr);
   d65f0:	6828      	ldr	r0, [r5, #0]
   d65f2:	f7ff fab1 	bl	d5b58 <free>

template<typename T, typename AllocatorT>
inline spark::Vector<T, AllocatorT>::~Vector() {
    destruct(data_, data_ + size_);
    AllocatorT::free(data_);
}
   d65f6:	4628      	mov	r0, r5
   d65f8:	bd70      	pop	{r4, r5, r6, pc}

000d65fa <_ZNSt19_Sp_counted_deleterIPN8particle17BlePeerDeviceImplENSt12__shared_ptrIS1_LN9__gnu_cxx12_Lock_policyE0EE8_DeleterISaIS1_EEES8_LS5_0EE10_M_disposeEv>:
      : _M_impl(__p, __d, __a) { }

      ~_Sp_counted_deleter() noexcept { }

      virtual void
      _M_dispose() noexcept
   d65fa:	b510      	push	{r4, lr}
      { _M_impl._M_del()(_M_impl._M_ptr); }
   d65fc:	6904      	ldr	r4, [r0, #16]
              address_(),
              servicesDiscovered_(false),
              characteristicsDiscovered_(false) {
    }

    ~BlePeerDeviceImpl() = default;
   d65fe:	f104 0018 	add.w	r0, r4, #24
   d6602:	f7ff ffe8 	bl	d65d6 <_ZN5spark6VectorIN8particle17BleCharacteristicENS_16DefaultAllocatorEED1Ev>
   d6606:	f104 000c 	add.w	r0, r4, #12
   d660a:	f7ff ffd2 	bl	d65b2 <_ZN5spark6VectorIN8particle10BleServiceENS_16DefaultAllocatorEED1Ev>
   d660e:	4620      	mov	r0, r4
   d6610:	e8bd 4010 	ldmia.w	sp!, {r4, lr}
   d6614:	f7fd bd43 	b.w	d409e <_ZdlPv>

000d6618 <_ZN8particle14BleLocalDeviceD1Ev>:
        return impl_.get();
    }

private:
    BleLocalDevice();
    ~BleLocalDevice() = default;
   d6618:	b5f8      	push	{r3, r4, r5, r6, r7, lr}

      /// Destructor, invokes the deleter if the stored pointer is not null.
      ~unique_ptr() noexcept
      {
	auto& __ptr = std::get<0>(_M_t);
	if (__ptr != nullptr)
   d661a:	6804      	ldr	r4, [r0, #0]
   d661c:	4607      	mov	r7, r0
   d661e:	b1c4      	cbz	r4, d6652 <_ZN8particle14BleLocalDeviceD1Ev+0x3a>
    swap(*this, vector);
}

template<typename T, typename AllocatorT>
inline spark::Vector<T, AllocatorT>::~Vector() {
    destruct(data_, data_ + size_);
   d6620:	69a5      	ldr	r5, [r4, #24]
   d6622:	69e3      	ldr	r3, [r4, #28]
   d6624:	eb05 06c3 	add.w	r6, r5, r3, lsl #3
            new(p) T(std::forward<ArgsT>(args)...);
        }
    }

    static void destruct(T* p, const T* end) {
        for (; p != end; ++p) {
   d6628:	42ae      	cmp	r6, r5
   d662a:	d004      	beq.n	d6636 <_ZN8particle14BleLocalDeviceD1Ev+0x1e>
	: _M_ptr(__p), _M_refcount(__r._M_refcount) // never throws
	{ }

      __shared_ptr(const __shared_ptr&) noexcept = default;
      __shared_ptr& operator=(const __shared_ptr&) noexcept = default;
      ~__shared_ptr() = default;
   d662c:	1d28      	adds	r0, r5, #4
   d662e:	f7ff ffad 	bl	d658c <_ZNSt14__shared_countILN9__gnu_cxx12_Lock_policyE0EED1Ev>
   d6632:	3508      	adds	r5, #8
   d6634:	e7f8      	b.n	d6628 <_ZN8particle14BleLocalDeviceD1Ev+0x10>
inline void* spark::DefaultAllocator::realloc(void* ptr, size_t size) {
    return ::realloc(ptr, size);
}

inline void spark::DefaultAllocator::free(void* ptr) {
    ::free(ptr);
   d6636:	69a0      	ldr	r0, [r4, #24]
   d6638:	f7ff fa8e 	bl	d5b58 <free>
              disconnectedCb_(nullptr),
              connectedContext_(nullptr),
              disconnectedContext_(nullptr) {
    }

    ~BleLocalDeviceImpl() = default;
   d663c:	f104 000c 	add.w	r0, r4, #12
   d6640:	f7ff ffc9 	bl	d65d6 <_ZN5spark6VectorIN8particle17BleCharacteristicENS_16DefaultAllocatorEED1Ev>
   d6644:	4620      	mov	r0, r4
   d6646:	f7ff ffb4 	bl	d65b2 <_ZN5spark6VectorIN8particle10BleServiceENS_16DefaultAllocatorEED1Ev>
      {
	static_assert(!is_void<_Tp>::value,
		      "can't delete pointer to incomplete type");
	static_assert(sizeof(_Tp)>0,
		      "can't delete pointer to incomplete type");
	delete __ptr;
   d664a:	2134      	movs	r1, #52	; 0x34
   d664c:	4620      	mov	r0, r4
   d664e:	f001 fa3f 	bl	d7ad0 <_ZdlPvj>
   d6652:	4638      	mov	r0, r7
   d6654:	bdf8      	pop	{r3, r4, r5, r6, r7, pc}
	...

000d6658 <_ZN8particle13BlePeerDeviceC1Ev>:


/*******************************************************
 * BlePeerDevice class
 */
BlePeerDevice::BlePeerDevice()
   d6658:	b573      	push	{r0, r1, r4, r5, r6, lr}
        };

      template<typename _Alloc, typename... _Args>
	__shared_ptr(_Sp_make_shared_tag __tag, const _Alloc& __a,
		     _Args&&... __args)
	: _M_ptr(), _M_refcount()
   d665a:	2500      	movs	r5, #0
   d665c:	6005      	str	r5, [r0, #0]

  template<_Lock_policy _Lp>
    class __shared_count
    {
    public:
      constexpr __shared_count() noexcept : _M_pi(0)
   d665e:	6045      	str	r5, [r0, #4]
   d6660:	4606      	mov	r6, r0
      allocate(size_type __n, const void* = 0)
      { 
	if (__n > this->max_size())
	  std::__throw_bad_alloc();

	return static_cast<_Tp*>(::operator new(__n * sizeof(_Tp)));
   d6662:	2024      	movs	r0, #36	; 0x24
   d6664:	f7fd fd17 	bl	d4096 <_Znwj>

#if __cplusplus >= 201103L
      template<typename _Up, typename... _Args>
        void
        construct(_Up* __p, _Args&&... __args)
	{ ::new((void *)__p) _Up(std::forward<_Args>(__args)...); }
   d6668:	4604      	mov	r4, r0
   d666a:	b178      	cbz	r0, d668c <_ZN8particle13BlePeerDeviceC1Ev+0x34>
public:
    BlePeerDeviceImpl()
            : connHandle_(BLE_INVALID_CONN_HANDLE),
              address_(),
              servicesDiscovered_(false),
              characteristicsDiscovered_(false) {
   d666c:	4603      	mov	r3, r0
   d666e:	f64f 72ff 	movw	r2, #65535	; 0xffff
   d6672:	f823 2b02 	strh.w	r2, [r3], #2

/*******************************************************
 * BleAddress class
 */
BleAddress::BleAddress()
        : address_{} {
   d6676:	f8c0 5002 	str.w	r5, [r0, #2]
   d667a:	605d      	str	r5, [r3, #4]
public:
    BlePeerDeviceImpl()
            : connHandle_(BLE_INVALID_CONN_HANDLE),
              address_(),
              servicesDiscovered_(false),
              characteristicsDiscovered_(false) {
   d667c:	7285      	strb	r5, [r0, #10]
   d667e:	72c5      	strb	r5, [r0, #11]
// spark::Vector
template<typename T, typename AllocatorT>
inline spark::Vector<T, AllocatorT>::Vector() :
        data_(nullptr),
        size_(0),
        capacity_(0) {
   d6680:	60c5      	str	r5, [r0, #12]
   d6682:	6105      	str	r5, [r0, #16]
   d6684:	6145      	str	r5, [r0, #20]
   d6686:	6185      	str	r5, [r0, #24]
   d6688:	61c5      	str	r5, [r0, #28]
   d668a:	6205      	str	r5, [r0, #32]
	__shared_count(_Ptr __p, _Deleter __d)
	: __shared_count(__p, std::move(__d), allocator<void>())
	{ }

      template<typename _Ptr, typename _Deleter, typename _Alloc>
	__shared_count(_Ptr __p, _Deleter __d, _Alloc __a) : _M_pi(0)
   d668c:	2300      	movs	r3, #0
      allocate(size_type __n, const void* = 0)
      { 
	if (__n > this->max_size())
	  std::__throw_bad_alloc();

	return static_cast<_Tp*>(::operator new(__n * sizeof(_Tp)));
   d668e:	2014      	movs	r0, #20
   d6690:	9301      	str	r3, [sp, #4]
   d6692:	f7fd fd00 	bl	d4096 <_Znwj>
	  __try
	    {
	      typename _Sp_cd_type::__allocator_type __a2(__a);
	      auto __guard = std::__allocate_guarded(__a2);
	      _Sp_cd_type* __mem = __guard.get();
	      ::new (__mem) _Sp_cd_type(__p, std::move(__d), std::move(__a));
   d6696:	4603      	mov	r3, r0
   d6698:	b128      	cbz	r0, d66a6 <_ZN8particle13BlePeerDeviceC1Ev+0x4e>
    class _Sp_counted_base
    : public _Mutex_base<_Lp>
    {
    public:  
      _Sp_counted_base() noexcept
      : _M_use_count(1), _M_weak_count(1) { }
   d669a:	2201      	movs	r2, #1
   d669c:	6042      	str	r2, [r0, #4]
   d669e:	6082      	str	r2, [r0, #8]
      _Sp_counted_deleter(_Ptr __p, _Deleter __d) noexcept
      : _M_impl(__p, __d, _Alloc()) { }

      // __d(__p) must not throw.
      _Sp_counted_deleter(_Ptr __p, _Deleter __d, const _Alloc& __a) noexcept
      : _M_impl(__p, __d, __a) { }
   d66a0:	4a08      	ldr	r2, [pc, #32]	; (d66c4 <_ZN8particle13BlePeerDeviceC1Ev+0x6c>)
   d66a2:	6002      	str	r2, [r0, #0]
	typedef _Sp_ebo_helper<0, _Deleter>	_Del_base;
	typedef _Sp_ebo_helper<1, _Alloc>	_Alloc_base;

      public:
	_Impl(_Ptr __p, _Deleter __d, const _Alloc& __a) noexcept
	: _M_ptr(__p), _Del_base(__d), _Alloc_base(__a)
   d66a4:	6104      	str	r4, [r0, #16]

      void
      _M_swap(__shared_count& __r) noexcept
      {
	_Sp_counted_base<_Lp>* __tmp = __r._M_pi;
	__r._M_pi = _M_pi;
   d66a6:	a802      	add	r0, sp, #8
   d66a8:	6872      	ldr	r2, [r6, #4]
   d66aa:	f840 2d04 	str.w	r2, [r0, #-4]!
	_M_pi = __tmp;
   d66ae:	6073      	str	r3, [r6, #4]
	  __traits::construct(__del._M_alloc, __ptr,
			      std::forward<_Args>(__args)...);
	  __guard = nullptr;
	  __shared_count<_Lp> __count(__ptr, __del, __del._M_alloc);
	  _M_refcount._M_swap(__count);
	  _M_ptr = __ptr;
   d66b0:	6034      	str	r4, [r6, #0]
	  // _GLIBCXX_RESOLVE_LIB_DEFECTS
	  // 2070. allocate_shared should use allocator_traits<A>::construct
	  __traits::construct(__del._M_alloc, __ptr,
			      std::forward<_Args>(__args)...);
	  __guard = nullptr;
	  __shared_count<_Lp> __count(__ptr, __del, __del._M_alloc);
   d66b2:	f7ff ff6b 	bl	d658c <_ZNSt14__shared_countILN9__gnu_cxx12_Lock_policyE0EED1Ev>
/*******************************************************
 * BlePeerDevice class
 */
BlePeerDevice::BlePeerDevice()
        : impl_(std::make_shared<BlePeerDeviceImpl>()) {
    if (!impl()) {
   d66b6:	6833      	ldr	r3, [r6, #0]
   d66b8:	b90b      	cbnz	r3, d66be <_ZN8particle13BlePeerDeviceC1Ev+0x66>
   d66ba:	f7ff fbc9 	bl	d5e50 <_ZN8particle10BleServiceC2ERKNS_7BleUuidE.part.102>
        SPARK_ASSERT(false);
    }
}
   d66be:	4630      	mov	r0, r6
   d66c0:	b002      	add	sp, #8
   d66c2:	bd70      	pop	{r4, r5, r6, pc}
   d66c4:	000d84d4 	.word	0x000d84d4

000d66c8 <_ZN5spark6VectorIN8particle13BlePeerDeviceENS_16DefaultAllocatorEE4moveIS2_Li0EEEvPS2_S6_S6_>:
        ::memmove(dest, p, (end - p) * sizeof(T));
    }

    template<PARTICLE_VECTOR_ENABLE_IF_NOT_TRIVIALLY_COPYABLE(T)>
    static void move(T* dest, T* p, T* end) {
        if (dest > p && dest < end) {
   d66c8:	4288      	cmp	r0, r1
    static void move(T* dest, const T* p, const T* end) {
        ::memmove(dest, p, (end - p) * sizeof(T));
    }

    template<PARTICLE_VECTOR_ENABLE_IF_NOT_TRIVIALLY_COPYABLE(T)>
    static void move(T* dest, T* p, T* end) {
   d66ca:	b570      	push	{r4, r5, r6, lr}
   d66cc:	4615      	mov	r5, r2
        if (dest > p && dest < end) {
   d66ce:	d91a      	bls.n	d6706 <_ZN5spark6VectorIN8particle13BlePeerDeviceENS_16DefaultAllocatorEE4moveIS2_Li0EEEvPS2_S6_S6_+0x3e>
   d66d0:	4290      	cmp	r0, r2
   d66d2:	d219      	bcs.n	d6708 <_ZN5spark6VectorIN8particle13BlePeerDeviceENS_16DefaultAllocatorEE4moveIS2_Li0EEEvPS2_S6_S6_+0x40>
            // Move elements in reverse order
            --p;
            --end;
            dest += end - p - 1;
   d66d4:	f1a1 0608 	sub.w	r6, r1, #8
   d66d8:	1a51      	subs	r1, r2, r1
   d66da:	3904      	subs	r1, #4
   d66dc:	1f15      	subs	r5, r2, #4
   d66de:	1844      	adds	r4, r0, r1
            for (; end != p; --end, --dest) {
   d66e0:	1f2b      	subs	r3, r5, #4
   d66e2:	429e      	cmp	r6, r3
   d66e4:	d025      	beq.n	d6732 <_ZN5spark6VectorIN8particle13BlePeerDeviceENS_16DefaultAllocatorEE4moveIS2_Li0EEEvPS2_S6_S6_+0x6a>
                new(dest) T(std::move(*end));
   d66e6:	2c04      	cmp	r4, #4
   d66e8:	d007      	beq.n	d66fa <_ZN5spark6VectorIN8particle13BlePeerDeviceENS_16DefaultAllocatorEE4moveIS2_Li0EEEvPS2_S6_S6_+0x32>
      template<typename _Tp1>
	__shared_ptr(const __shared_ptr<_Tp1, _Lp>& __r, _Tp* __p) noexcept
	: _M_ptr(__p), _M_refcount(__r._M_refcount) // never throws
	{ }

      __shared_ptr(const __shared_ptr&) noexcept = default;
   d66ea:	f855 3c04 	ldr.w	r3, [r5, #-4]
   d66ee:	f844 3c04 	str.w	r3, [r4, #-4]
   d66f2:	4629      	mov	r1, r5
   d66f4:	4620      	mov	r0, r4
   d66f6:	f7ff ff2a 	bl	d654e <_ZNSt14__shared_countILN9__gnu_cxx12_Lock_policyE0EEC1ERKS2_>
      __shared_ptr& operator=(const __shared_ptr&) noexcept = default;
      ~__shared_ptr() = default;
   d66fa:	4628      	mov	r0, r5
   d66fc:	f7ff ff46 	bl	d658c <_ZNSt14__shared_countILN9__gnu_cxx12_Lock_policyE0EED1Ev>
   d6700:	3d08      	subs	r5, #8
   d6702:	3c08      	subs	r4, #8
   d6704:	e7ec      	b.n	d66e0 <_ZN5spark6VectorIN8particle13BlePeerDeviceENS_16DefaultAllocatorEE4moveIS2_Li0EEEvPS2_S6_S6_+0x18>
                end->~T();
            }
        } else if (dest != p) {
   d6706:	d014      	beq.n	d6732 <_ZN5spark6VectorIN8particle13BlePeerDeviceENS_16DefaultAllocatorEE4moveIS2_Li0EEEvPS2_S6_S6_+0x6a>
   d6708:	1d0c      	adds	r4, r1, #4
   d670a:	1d06      	adds	r6, r0, #4
            for (; p != end; ++p, ++dest) {
   d670c:	1f23      	subs	r3, r4, #4
   d670e:	429d      	cmp	r5, r3
   d6710:	d00f      	beq.n	d6732 <_ZN5spark6VectorIN8particle13BlePeerDeviceENS_16DefaultAllocatorEE4moveIS2_Li0EEEvPS2_S6_S6_+0x6a>
                new(dest) T(std::move(*p));
   d6712:	2e04      	cmp	r6, #4
   d6714:	d007      	beq.n	d6726 <_ZN5spark6VectorIN8particle13BlePeerDeviceENS_16DefaultAllocatorEE4moveIS2_Li0EEEvPS2_S6_S6_+0x5e>
      template<typename _Tp1>
	__shared_ptr(const __shared_ptr<_Tp1, _Lp>& __r, _Tp* __p) noexcept
	: _M_ptr(__p), _M_refcount(__r._M_refcount) // never throws
	{ }

      __shared_ptr(const __shared_ptr&) noexcept = default;
   d6716:	f854 3c04 	ldr.w	r3, [r4, #-4]
   d671a:	f846 3c04 	str.w	r3, [r6, #-4]
   d671e:	4621      	mov	r1, r4
   d6720:	4630      	mov	r0, r6
   d6722:	f7ff ff14 	bl	d654e <_ZNSt14__shared_countILN9__gnu_cxx12_Lock_policyE0EEC1ERKS2_>
      __shared_ptr& operator=(const __shared_ptr&) noexcept = default;
      ~__shared_ptr() = default;
   d6726:	4620      	mov	r0, r4
   d6728:	f7ff ff30 	bl	d658c <_ZNSt14__shared_countILN9__gnu_cxx12_Lock_policyE0EED1Ev>
   d672c:	3408      	adds	r4, #8
   d672e:	3608      	adds	r6, #8
            for (; end != p; --end, --dest) {
                new(dest) T(std::move(*end));
                end->~T();
            }
        } else if (dest != p) {
            for (; p != end; ++p, ++dest) {
   d6730:	e7ec      	b.n	d670c <_ZN5spark6VectorIN8particle13BlePeerDeviceENS_16DefaultAllocatorEE4moveIS2_Li0EEEvPS2_S6_S6_+0x44>
   d6732:	bd70      	pop	{r4, r5, r6, pc}

000d6734 <_ZN5spark6VectorIN8particle13BlePeerDeviceENS_16DefaultAllocatorEE9removeOneERKS2_>:
    move(p, p + n, data_ + size_);
    size_ -= n;
}

template<typename T, typename AllocatorT>
inline bool spark::Vector<T, AllocatorT>::removeOne(const T &value) {
   d6734:	e92d 41f0 	stmdb	sp!, {r4, r5, r6, r7, r8, lr}
    T* const p = find(data_, data_ + size_, value);
   d6738:	6804      	ldr	r4, [r0, #0]
   d673a:	6843      	ldr	r3, [r0, #4]
    move(p, p + n, data_ + size_);
    size_ -= n;
}

template<typename T, typename AllocatorT>
inline bool spark::Vector<T, AllocatorT>::removeOne(const T &value) {
   d673c:	4605      	mov	r5, r0
   d673e:	4688      	mov	r8, r1
    T* const p = find(data_, data_ + size_, value);
   d6740:	eb04 07c3 	add.w	r7, r4, r3, lsl #3
            }
        }
    }

    static T* find(T* p, const T* end, const T& value) {
        for (; p != end; ++p) {
   d6744:	42a7      	cmp	r7, r4
   d6746:	d018      	beq.n	d677a <_ZN5spark6VectorIN8particle13BlePeerDeviceENS_16DefaultAllocatorEE9removeOneERKS2_+0x46>
            if (*p == value) {
   d6748:	4641      	mov	r1, r8
   d674a:	4620      	mov	r0, r4
   d674c:	f7ff fe26 	bl	d639c <_ZNK8particle13BlePeerDeviceeqERKS0_>
   d6750:	4606      	mov	r6, r0
   d6752:	b908      	cbnz	r0, d6758 <_ZN5spark6VectorIN8particle13BlePeerDeviceENS_16DefaultAllocatorEE9removeOneERKS2_+0x24>
            }
        }
    }

    static T* find(T* p, const T* end, const T& value) {
        for (; p != end; ++p) {
   d6754:	3408      	adds	r4, #8
   d6756:	e7f5      	b.n	d6744 <_ZN5spark6VectorIN8particle13BlePeerDeviceENS_16DefaultAllocatorEE9removeOneERKS2_+0x10>
}

template<typename T, typename AllocatorT>
inline bool spark::Vector<T, AllocatorT>::removeOne(const T &value) {
    T* const p = find(data_, data_ + size_, value);
    if (!p) {
   d6758:	b18c      	cbz	r4, d677e <_ZN5spark6VectorIN8particle13BlePeerDeviceENS_16DefaultAllocatorEE9removeOneERKS2_+0x4a>
   d675a:	1d20      	adds	r0, r4, #4
   d675c:	f7ff ff16 	bl	d658c <_ZNSt14__shared_countILN9__gnu_cxx12_Lock_policyE0EED1Ev>
        return false;
    }
    p->~T();
    move(p, p + 1, data_ + size_);
   d6760:	682b      	ldr	r3, [r5, #0]
   d6762:	686a      	ldr	r2, [r5, #4]
   d6764:	f104 0108 	add.w	r1, r4, #8
   d6768:	eb03 02c2 	add.w	r2, r3, r2, lsl #3
   d676c:	4620      	mov	r0, r4
   d676e:	f7ff ffab 	bl	d66c8 <_ZN5spark6VectorIN8particle13BlePeerDeviceENS_16DefaultAllocatorEE4moveIS2_Li0EEEvPS2_S6_S6_>
    --size_;
   d6772:	686b      	ldr	r3, [r5, #4]
   d6774:	3b01      	subs	r3, #1
   d6776:	606b      	str	r3, [r5, #4]
    return true;
   d6778:	e002      	b.n	d6780 <_ZN5spark6VectorIN8particle13BlePeerDeviceENS_16DefaultAllocatorEE9removeOneERKS2_+0x4c>

template<typename T, typename AllocatorT>
inline bool spark::Vector<T, AllocatorT>::removeOne(const T &value) {
    T* const p = find(data_, data_ + size_, value);
    if (!p) {
        return false;
   d677a:	2600      	movs	r6, #0
   d677c:	e000      	b.n	d6780 <_ZN5spark6VectorIN8particle13BlePeerDeviceENS_16DefaultAllocatorEE9removeOneERKS2_+0x4c>
   d677e:	4626      	mov	r6, r4
    }
    p->~T();
    move(p, p + 1, data_ + size_);
    --size_;
    return true;
}
   d6780:	4630      	mov	r0, r6
   d6782:	e8bd 81f0 	ldmia.w	sp!, {r4, r5, r6, r7, r8, pc}

000d6786 <_ZN5spark6VectorIN8particle13BlePeerDeviceENS_16DefaultAllocatorEE6appendES2_>:
    destruct(data_, data_ + size_);
    AllocatorT::free(data_);
}

template<typename T, typename AllocatorT>
inline bool spark::Vector<T, AllocatorT>::append(T value) {
   d6786:	b5f7      	push	{r0, r1, r2, r4, r5, r6, r7, lr}
   d6788:	4604      	mov	r4, r0
      template<typename _Tp1>
	__shared_ptr(const __shared_ptr<_Tp1, _Lp>& __r, _Tp* __p) noexcept
	: _M_ptr(__p), _M_refcount(__r._M_refcount) // never throws
	{ }

      __shared_ptr(const __shared_ptr&) noexcept = default;
   d678a:	f851 3b04 	ldr.w	r3, [r1], #4
    return insert(size_, std::move(value));
   d678e:	6847      	ldr	r7, [r0, #4]
   d6790:	9300      	str	r3, [sp, #0]
   d6792:	a801      	add	r0, sp, #4
   d6794:	f7ff fedb 	bl	d654e <_ZNSt14__shared_countILN9__gnu_cxx12_Lock_policyE0EEC1ERKS2_>
    return insert(0, vector);
}

template<typename T, typename AllocatorT>
inline bool spark::Vector<T, AllocatorT>::insert(int i, T value) {
    if (size_ + 1 > capacity_ && !realloc(size_ + 1)) {
   d6798:	6866      	ldr	r6, [r4, #4]
   d679a:	68a3      	ldr	r3, [r4, #8]
   d679c:	429e      	cmp	r6, r3
   d679e:	db14      	blt.n	d67ca <_ZN5spark6VectorIN8particle13BlePeerDeviceENS_16DefaultAllocatorEE6appendES2_+0x44>
   d67a0:	3601      	adds	r6, #1
    }

    template<PARTICLE_VECTOR_ENABLE_IF_NOT_TRIVIALLY_COPYABLE(T)>
    bool realloc(int n) {
        T* d = nullptr;
        if (n > 0) {
   d67a2:	2e00      	cmp	r6, #0
   d67a4:	dd0b      	ble.n	d67be <_ZN5spark6VectorIN8particle13BlePeerDeviceENS_16DefaultAllocatorEE6appendES2_+0x38>

} // particle

// spark::DefaultAllocator
inline void* spark::DefaultAllocator::malloc(size_t size) {
    return ::malloc(size);
   d67a6:	00f0      	lsls	r0, r6, #3
   d67a8:	f7ff f9ce 	bl	d5b48 <malloc>
    template<PARTICLE_VECTOR_ENABLE_IF_NOT_TRIVIALLY_COPYABLE(T)>
    bool realloc(int n) {
        T* d = nullptr;
        if (n > 0) {
            d = (T*)AllocatorT::malloc(n * sizeof(T));
            if (!d) {
   d67ac:	4605      	mov	r5, r0
   d67ae:	b318      	cbz	r0, d67f8 <_ZN5spark6VectorIN8particle13BlePeerDeviceENS_16DefaultAllocatorEE6appendES2_+0x72>
                return false;
            }
            move(d, data_, data_ + size_);
   d67b0:	e894 0006 	ldmia.w	r4, {r1, r2}
   d67b4:	eb01 02c2 	add.w	r2, r1, r2, lsl #3
   d67b8:	f7ff ff86 	bl	d66c8 <_ZN5spark6VectorIN8particle13BlePeerDeviceENS_16DefaultAllocatorEE4moveIS2_Li0EEEvPS2_S6_S6_>
   d67bc:	e000      	b.n	d67c0 <_ZN5spark6VectorIN8particle13BlePeerDeviceENS_16DefaultAllocatorEE6appendES2_+0x3a>
        return true;
    }

    template<PARTICLE_VECTOR_ENABLE_IF_NOT_TRIVIALLY_COPYABLE(T)>
    bool realloc(int n) {
        T* d = nullptr;
   d67be:	2500      	movs	r5, #0
inline void* spark::DefaultAllocator::realloc(void* ptr, size_t size) {
    return ::realloc(ptr, size);
}

inline void spark::DefaultAllocator::free(void* ptr) {
    ::free(ptr);
   d67c0:	6820      	ldr	r0, [r4, #0]
   d67c2:	f7ff f9c9 	bl	d5b58 <free>
                return false;
            }
            move(d, data_, data_ + size_);
        }
        AllocatorT::free(data_);
        data_ = d;
   d67c6:	6025      	str	r5, [r4, #0]
        capacity_ = n;
   d67c8:	60a6      	str	r6, [r4, #8]
template<typename T, typename AllocatorT>
inline bool spark::Vector<T, AllocatorT>::insert(int i, T value) {
    if (size_ + 1 > capacity_ && !realloc(size_ + 1)) {
        return false;
    }
    T* const p = data_ + i;
   d67ca:	6826      	ldr	r6, [r4, #0]
    move(p + 1, p, data_ + size_);
   d67cc:	6862      	ldr	r2, [r4, #4]
template<typename T, typename AllocatorT>
inline bool spark::Vector<T, AllocatorT>::insert(int i, T value) {
    if (size_ + 1 > capacity_ && !realloc(size_ + 1)) {
        return false;
    }
    T* const p = data_ + i;
   d67ce:	eb06 05c7 	add.w	r5, r6, r7, lsl #3
    move(p + 1, p, data_ + size_);
   d67d2:	eb06 02c2 	add.w	r2, r6, r2, lsl #3
   d67d6:	4629      	mov	r1, r5
   d67d8:	f105 0008 	add.w	r0, r5, #8
   d67dc:	f7ff ff74 	bl	d66c8 <_ZN5spark6VectorIN8particle13BlePeerDeviceENS_16DefaultAllocatorEE4moveIS2_Li0EEEvPS2_S6_S6_>
    new(p) T(std::move(value));
   d67e0:	b135      	cbz	r5, d67f0 <_ZN5spark6VectorIN8particle13BlePeerDeviceENS_16DefaultAllocatorEE6appendES2_+0x6a>
   d67e2:	9b00      	ldr	r3, [sp, #0]
   d67e4:	f846 3037 	str.w	r3, [r6, r7, lsl #3]
   d67e8:	a901      	add	r1, sp, #4
   d67ea:	1d28      	adds	r0, r5, #4
   d67ec:	f7ff feaf 	bl	d654e <_ZNSt14__shared_countILN9__gnu_cxx12_Lock_policyE0EEC1ERKS2_>
    ++size_;
   d67f0:	6863      	ldr	r3, [r4, #4]
   d67f2:	3301      	adds	r3, #1
   d67f4:	6063      	str	r3, [r4, #4]
   d67f6:	2501      	movs	r5, #1
      __shared_ptr& operator=(const __shared_ptr&) noexcept = default;
      ~__shared_ptr() = default;
   d67f8:	a801      	add	r0, sp, #4
   d67fa:	f7ff fec7 	bl	d658c <_ZNSt14__shared_countILN9__gnu_cxx12_Lock_policyE0EED1Ev>
}

template<typename T, typename AllocatorT>
inline bool spark::Vector<T, AllocatorT>::append(T value) {
    return insert(size_, std::move(value));
}
   d67fe:	4628      	mov	r0, r5
   d6800:	b003      	add	sp, #12
   d6802:	bdf0      	pop	{r4, r5, r6, r7, pc}

000d6804 <_ZN8particle18BleLocalDeviceImpl15onBleLinkEventsEPK18hal_ble_link_evt_tPv>:
            }
        }
        return nullptr;
    }

    static void onBleLinkEvents(const hal_ble_link_evt_t* event, void* context) {
   d6804:	e92d 41f0 	stmdb	sp!, {r4, r5, r6, r7, r8, lr}
   d6808:	4604      	mov	r4, r0
   d680a:	b08e      	sub	sp, #56	; 0x38
        auto impl = static_cast<BleLocalDeviceImpl*>(context);
        WiringBleLock lk;
   d680c:	a803      	add	r0, sp, #12
            }
        }
        return nullptr;
    }

    static void onBleLinkEvents(const hal_ble_link_evt_t* event, void* context) {
   d680e:	460d      	mov	r5, r1
        auto impl = static_cast<BleLocalDeviceImpl*>(context);
        WiringBleLock lk;
   d6810:	f7ff fb4e 	bl	d5eb0 <_ZN8particle3ble13WiringBleLockC1Ev>
        switch (event->type) {
   d6814:	6823      	ldr	r3, [r4, #0]
   d6816:	2b03      	cmp	r3, #3
   d6818:	d002      	beq.n	d6820 <_ZN8particle18BleLocalDeviceImpl15onBleLinkEventsEPK18hal_ble_link_evt_tPv+0x1c>
   d681a:	2b04      	cmp	r3, #4
   d681c:	d042      	beq.n	d68a4 <_ZN8particle18BleLocalDeviceImpl15onBleLinkEventsEPK18hal_ble_link_evt_tPv+0xa0>
   d681e:	e087      	b.n	d6930 <_ZN8particle18BleLocalDeviceImpl15onBleLinkEventsEPK18hal_ble_link_evt_tPv+0x12c>
            case BLE_EVT_CONNECTED: {
                BlePeerDevice peer;
   d6820:	a804      	add	r0, sp, #16
   d6822:	f7ff ff19 	bl	d6658 <_ZN8particle13BlePeerDeviceC1Ev>
                peer.impl()->connHandle() = event->conn_handle;
   d6826:	9b04      	ldr	r3, [sp, #16]
   d6828:	8922      	ldrh	r2, [r4, #8]
   d682a:	801a      	strh	r2, [r3, #0]
    }
    return address_.addr[i];
}

BleAddress& BleAddress::operator=(const hal_ble_addr_t& addr) {
    address_ = addr;
   d682c:	6862      	ldr	r2, [r4, #4]
   d682e:	9904      	ldr	r1, [sp, #16]
   d6830:	f852 3f08 	ldr.w	r3, [r2, #8]!
   d6834:	f8c1 3002 	str.w	r3, [r1, #2]
   d6838:	6853      	ldr	r3, [r2, #4]
   d683a:	f8c1 3006 	str.w	r3, [r1, #6]
      template<typename _Tp1>
	__shared_ptr(const __shared_ptr<_Tp1, _Lp>& __r, _Tp* __p) noexcept
	: _M_ptr(__p), _M_refcount(__r._M_refcount) // never throws
	{ }

      __shared_ptr(const __shared_ptr&) noexcept = default;
   d683e:	a807      	add	r0, sp, #28
   d6840:	9b04      	ldr	r3, [sp, #16]
   d6842:	9306      	str	r3, [sp, #24]
   d6844:	a905      	add	r1, sp, #20
   d6846:	f7ff fe82 	bl	d654e <_ZNSt14__shared_countILN9__gnu_cxx12_Lock_policyE0EEC1ERKS2_>
        switch (event->type) {
            case BLE_EVT_CONNECTED: {
                BlePeerDevice peer;
                peer.impl()->connHandle() = event->conn_handle;
                peer.impl()->address() = event->params.connected.info->address;
                if (!impl->peers_.append(peer)) {
   d684a:	a906      	add	r1, sp, #24
   d684c:	f105 0018 	add.w	r0, r5, #24
   d6850:	f7ff ff99 	bl	d6786 <_ZN5spark6VectorIN8particle13BlePeerDeviceENS_16DefaultAllocatorEE6appendES2_>
   d6854:	4604      	mov	r4, r0
      __shared_ptr& operator=(const __shared_ptr&) noexcept = default;
      ~__shared_ptr() = default;
   d6856:	a807      	add	r0, sp, #28
   d6858:	f7ff fe98 	bl	d658c <_ZNSt14__shared_countILN9__gnu_cxx12_Lock_policyE0EED1Ev>
   d685c:	2320      	movs	r3, #32
                    LOG(ERROR, "Failed to append peer Central device.");
   d685e:	9306      	str	r3, [sp, #24]
        switch (event->type) {
            case BLE_EVT_CONNECTED: {
                BlePeerDevice peer;
                peer.impl()->connHandle() = event->conn_handle;
                peer.impl()->address() = event->params.connected.info->address;
                if (!impl->peers_.append(peer)) {
   d6860:	b974      	cbnz	r4, d6880 <_ZN8particle18BleLocalDeviceImpl15onBleLinkEventsEPK18hal_ble_link_evt_tPv+0x7c>
                    LOG(ERROR, "Failed to append peer Central device.");
   d6862:	4b36      	ldr	r3, [pc, #216]	; (d693c <_ZN8particle18BleLocalDeviceImpl15onBleLinkEventsEPK18hal_ble_link_evt_tPv+0x138>)
   d6864:	9300      	str	r3, [sp, #0]
   d6866:	aa06      	add	r2, sp, #24
   d6868:	4623      	mov	r3, r4
   d686a:	4935      	ldr	r1, [pc, #212]	; (d6940 <_ZN8particle18BleLocalDeviceImpl15onBleLinkEventsEPK18hal_ble_link_evt_tPv+0x13c>)
   d686c:	9407      	str	r4, [sp, #28]
   d686e:	2032      	movs	r0, #50	; 0x32
   d6870:	f7ff f8e6 	bl	d5a40 <log_message>
                    hal_ble_gap_disconnect(peer.impl()->connHandle(), nullptr);
   d6874:	9b04      	ldr	r3, [sp, #16]
   d6876:	4621      	mov	r1, r4
   d6878:	8818      	ldrh	r0, [r3, #0]
   d687a:	f7fe ff47 	bl	d570c <hal_ble_gap_disconnect>
   d687e:	e00d      	b.n	d689c <_ZN8particle18BleLocalDeviceImpl15onBleLinkEventsEPK18hal_ble_link_evt_tPv+0x98>
                    return;
                }
                LOG(TRACE, "Connected by Central device.");
   d6880:	4a30      	ldr	r2, [pc, #192]	; (d6944 <_ZN8particle18BleLocalDeviceImpl15onBleLinkEventsEPK18hal_ble_link_evt_tPv+0x140>)
   d6882:	9200      	str	r2, [sp, #0]
   d6884:	2300      	movs	r3, #0
   d6886:	aa06      	add	r2, sp, #24
   d6888:	492d      	ldr	r1, [pc, #180]	; (d6940 <_ZN8particle18BleLocalDeviceImpl15onBleLinkEventsEPK18hal_ble_link_evt_tPv+0x13c>)
   d688a:	9307      	str	r3, [sp, #28]
   d688c:	2001      	movs	r0, #1
   d688e:	f7ff f8d7 	bl	d5a40 <log_message>
                if (impl->connectedCb_) {
   d6892:	6a6b      	ldr	r3, [r5, #36]	; 0x24
   d6894:	b113      	cbz	r3, d689c <_ZN8particle18BleLocalDeviceImpl15onBleLinkEventsEPK18hal_ble_link_evt_tPv+0x98>
                    impl->connectedCb_(peer, impl->connectedContext_);
   d6896:	6ae9      	ldr	r1, [r5, #44]	; 0x2c
   d6898:	a804      	add	r0, sp, #16
   d689a:	4798      	blx	r3
   d689c:	a805      	add	r0, sp, #20
   d689e:	f7ff fe75 	bl	d658c <_ZNSt14__shared_countILN9__gnu_cxx12_Lock_policyE0EED1Ev>
   d68a2:	e045      	b.n	d6930 <_ZN8particle18BleLocalDeviceImpl15onBleLinkEventsEPK18hal_ble_link_evt_tPv+0x12c>
                }
                break;
            }
            case BLE_EVT_DISCONNECTED: {
                BlePeerDevice* peer = impl->findPeerDevice(event->conn_handle);
   d68a4:	8921      	ldrh	r1, [r4, #8]
   d68a6:	4628      	mov	r0, r5
   d68a8:	f7ff fcf8 	bl	d629c <_ZN8particle18BleLocalDeviceImpl14findPeerDeviceEt>
                if (peer) {
   d68ac:	4607      	mov	r7, r0
   d68ae:	2800      	cmp	r0, #0
   d68b0:	d03e      	beq.n	d6930 <_ZN8particle18BleLocalDeviceImpl15onBleLinkEventsEPK18hal_ble_link_evt_tPv+0x12c>
   d68b2:	6804      	ldr	r4, [r0, #0]
   d68b4:	69a3      	ldr	r3, [r4, #24]
    return data_;
}

template<typename T, typename AllocatorT>
T* spark::Vector<T, AllocatorT>::end() {
    return data_ + size_;
   d68b6:	69e1      	ldr	r1, [r4, #28]
    Vector<BleCharacteristic>& characteristics() {
        return characteristics_;
    }

    void onDisconnected() {
        connHandle_ = BLE_INVALID_CONN_HANDLE;
   d68b8:	f64f 72ff 	movw	r2, #65535	; 0xffff
   d68bc:	8022      	strh	r2, [r4, #0]
   d68be:	eb03 01c1 	add.w	r1, r3, r1, lsl #3
        for (auto& characteristic : characteristics_) {
   d68c2:	4299      	cmp	r1, r3
   d68c4:	d003      	beq.n	d68ce <_ZN8particle18BleLocalDeviceImpl15onBleLinkEventsEPK18hal_ble_link_evt_tPv+0xca>
   d68c6:	f853 0b08 	ldr.w	r0, [r3], #8
            characteristic.impl()->connHandle() = BLE_INVALID_CONN_HANDLE;
   d68ca:	8042      	strh	r2, [r0, #2]
   d68cc:	e7f9      	b.n	d68c2 <_ZN8particle18BleLocalDeviceImpl15onBleLinkEventsEPK18hal_ble_link_evt_tPv+0xbe>
    return true;
}

template<typename T, typename AllocatorT>
inline void spark::Vector<T, AllocatorT>::clear() {
    destruct(data_, data_ + size_);
   d68ce:	68e6      	ldr	r6, [r4, #12]
   d68d0:	6923      	ldr	r3, [r4, #16]
   d68d2:	eb06 08c3 	add.w	r8, r6, r3, lsl #3
            new(p) T(std::forward<ArgsT>(args)...);
        }
    }

    static void destruct(T* p, const T* end) {
        for (; p != end; ++p) {
   d68d6:	45b0      	cmp	r8, r6
   d68d8:	d004      	beq.n	d68e4 <_ZN8particle18BleLocalDeviceImpl15onBleLinkEventsEPK18hal_ble_link_evt_tPv+0xe0>
   d68da:	1d30      	adds	r0, r6, #4
   d68dc:	f7ff fe56 	bl	d658c <_ZNSt14__shared_countILN9__gnu_cxx12_Lock_policyE0EED1Ev>
   d68e0:	3608      	adds	r6, #8
   d68e2:	e7f8      	b.n	d68d6 <_ZN8particle18BleLocalDeviceImpl15onBleLinkEventsEPK18hal_ble_link_evt_tPv+0xd2>
}

template<typename T, typename AllocatorT>
inline void spark::Vector<T, AllocatorT>::clear() {
    destruct(data_, data_ + size_);
    size_ = 0;
   d68e4:	2300      	movs	r3, #0
   d68e6:	6123      	str	r3, [r4, #16]
    return true;
}

template<typename T, typename AllocatorT>
inline void spark::Vector<T, AllocatorT>::clear() {
    destruct(data_, data_ + size_);
   d68e8:	69a6      	ldr	r6, [r4, #24]
   d68ea:	69e3      	ldr	r3, [r4, #28]
   d68ec:	eb06 08c3 	add.w	r8, r6, r3, lsl #3
            new(p) T(std::forward<ArgsT>(args)...);
        }
    }

    static void destruct(T* p, const T* end) {
        for (; p != end; ++p) {
   d68f0:	45b0      	cmp	r8, r6
   d68f2:	d004      	beq.n	d68fe <_ZN8particle18BleLocalDeviceImpl15onBleLinkEventsEPK18hal_ble_link_evt_tPv+0xfa>
   d68f4:	1d30      	adds	r0, r6, #4
   d68f6:	f7ff fe49 	bl	d658c <_ZNSt14__shared_countILN9__gnu_cxx12_Lock_policyE0EED1Ev>
   d68fa:	3608      	adds	r6, #8
   d68fc:	e7f8      	b.n	d68f0 <_ZN8particle18BleLocalDeviceImpl15onBleLinkEventsEPK18hal_ble_link_evt_tPv+0xec>
}

template<typename T, typename AllocatorT>
inline void spark::Vector<T, AllocatorT>::clear() {
    destruct(data_, data_ + size_);
    size_ = 0;
   d68fe:	2300      	movs	r3, #0
   d6900:	61e3      	str	r3, [r4, #28]
        }
        services_.clear();
        characteristics_.clear();
        servicesDiscovered_ = false;
   d6902:	72a3      	strb	r3, [r4, #10]
        characteristicsDiscovered_ = false;
   d6904:	72e3      	strb	r3, [r4, #11]
            }
            case BLE_EVT_DISCONNECTED: {
                BlePeerDevice* peer = impl->findPeerDevice(event->conn_handle);
                if (peer) {
                    peer->impl()->onDisconnected();
                    if (impl->disconnectedCb_) {
   d6906:	6aab      	ldr	r3, [r5, #40]	; 0x28
   d6908:	b113      	cbz	r3, d6910 <_ZN8particle18BleLocalDeviceImpl15onBleLinkEventsEPK18hal_ble_link_evt_tPv+0x10c>
                        impl->disconnectedCb_(*peer, impl->disconnectedContext_);
   d690a:	6b29      	ldr	r1, [r5, #48]	; 0x30
   d690c:	4638      	mov	r0, r7
   d690e:	4798      	blx	r3
                    }
                    LOG(TRACE, "Disconnected by remote device.");
   d6910:	2320      	movs	r3, #32
   d6912:	4a0d      	ldr	r2, [pc, #52]	; (d6948 <_ZN8particle18BleLocalDeviceImpl15onBleLinkEventsEPK18hal_ble_link_evt_tPv+0x144>)
   d6914:	9306      	str	r3, [sp, #24]
   d6916:	9200      	str	r2, [sp, #0]
   d6918:	2300      	movs	r3, #0
   d691a:	4909      	ldr	r1, [pc, #36]	; (d6940 <_ZN8particle18BleLocalDeviceImpl15onBleLinkEventsEPK18hal_ble_link_evt_tPv+0x13c>)
   d691c:	9307      	str	r3, [sp, #28]
   d691e:	2001      	movs	r0, #1
   d6920:	aa06      	add	r2, sp, #24
   d6922:	f7ff f88d 	bl	d5a40 <log_message>
                    impl->peers_.removeOne(*peer);
   d6926:	4639      	mov	r1, r7
   d6928:	f105 0018 	add.w	r0, r5, #24
   d692c:	f7ff ff02 	bl	d6734 <_ZN5spark6VectorIN8particle13BlePeerDeviceENS_16DefaultAllocatorEE9removeOneERKS2_>
        return nullptr;
    }

    static void onBleLinkEvents(const hal_ble_link_evt_t* event, void* context) {
        auto impl = static_cast<BleLocalDeviceImpl*>(context);
        WiringBleLock lk;
   d6930:	a803      	add	r0, sp, #12
   d6932:	f7ff facb 	bl	d5ecc <_ZN8particle3ble13WiringBleLockD1Ev>
            }
            default: {
                break;
            }
        }
    }
   d6936:	b00e      	add	sp, #56	; 0x38
   d6938:	e8bd 81f0 	ldmia.w	sp!, {r4, r5, r6, r7, r8, pc}
   d693c:	000d855a 	.word	0x000d855a
   d6940:	000d84f8 	.word	0x000d84f8
   d6944:	000d8580 	.word	0x000d8580
   d6948:	000d859d 	.word	0x000d859d

000d694c <_ZN5spark6VectorIN8particle10BleServiceENS_16DefaultAllocatorEE4moveIS2_Li0EEEvPS2_S6_S6_>:
        ::memmove(dest, p, (end - p) * sizeof(T));
    }

    template<PARTICLE_VECTOR_ENABLE_IF_NOT_TRIVIALLY_COPYABLE(T)>
    static void move(T* dest, T* p, T* end) {
        if (dest > p && dest < end) {
   d694c:	4288      	cmp	r0, r1
    static void move(T* dest, const T* p, const T* end) {
        ::memmove(dest, p, (end - p) * sizeof(T));
    }

    template<PARTICLE_VECTOR_ENABLE_IF_NOT_TRIVIALLY_COPYABLE(T)>
    static void move(T* dest, T* p, T* end) {
   d694e:	b5f8      	push	{r3, r4, r5, r6, r7, lr}
   d6950:	4606      	mov	r6, r0
   d6952:	460c      	mov	r4, r1
   d6954:	4615      	mov	r5, r2
        if (dest > p && dest < end) {
   d6956:	d914      	bls.n	d6982 <_ZN5spark6VectorIN8particle10BleServiceENS_16DefaultAllocatorEE4moveIS2_Li0EEEvPS2_S6_S6_+0x36>
   d6958:	4290      	cmp	r0, r2
   d695a:	d213      	bcs.n	d6984 <_ZN5spark6VectorIN8particle10BleServiceENS_16DefaultAllocatorEE4moveIS2_Li0EEEvPS2_S6_S6_+0x38>
            // Move elements in reverse order
            --p;
            --end;
   d695c:	f1a2 0508 	sub.w	r5, r2, #8
            dest += end - p - 1;
   d6960:	1a6c      	subs	r4, r5, r1
   d6962:	f1a1 0708 	sub.w	r7, r1, #8
   d6966:	4404      	add	r4, r0
            for (; end != p; --end, --dest) {
   d6968:	42af      	cmp	r7, r5
   d696a:	d018      	beq.n	d699e <_ZN5spark6VectorIN8particle10BleServiceENS_16DefaultAllocatorEE4moveIS2_Li0EEEvPS2_S6_S6_+0x52>
                new(dest) T(std::move(*end));
   d696c:	b11c      	cbz	r4, d6976 <_ZN5spark6VectorIN8particle10BleServiceENS_16DefaultAllocatorEE4moveIS2_Li0EEEvPS2_S6_S6_+0x2a>
       *  @post   use_count()==0 && get()==0
       */
      constexpr shared_ptr() noexcept
      : __shared_ptr<_Tp>() { }

      shared_ptr(const shared_ptr&) noexcept = default;
   d696e:	4629      	mov	r1, r5
   d6970:	4620      	mov	r0, r4
   d6972:	f7ff fe01 	bl	d6578 <_ZNSt12__shared_ptrIN8particle14BleServiceImplELN9__gnu_cxx12_Lock_policyE0EEC1ERKS4_>
   d6976:	1d28      	adds	r0, r5, #4
   d6978:	f7ff fe08 	bl	d658c <_ZNSt14__shared_countILN9__gnu_cxx12_Lock_policyE0EED1Ev>
        if (dest > p && dest < end) {
            // Move elements in reverse order
            --p;
            --end;
            dest += end - p - 1;
            for (; end != p; --end, --dest) {
   d697c:	3d08      	subs	r5, #8
   d697e:	3c08      	subs	r4, #8
   d6980:	e7f2      	b.n	d6968 <_ZN5spark6VectorIN8particle10BleServiceENS_16DefaultAllocatorEE4moveIS2_Li0EEEvPS2_S6_S6_+0x1c>
                new(dest) T(std::move(*end));
                end->~T();
            }
        } else if (dest != p) {
   d6982:	d00c      	beq.n	d699e <_ZN5spark6VectorIN8particle10BleServiceENS_16DefaultAllocatorEE4moveIS2_Li0EEEvPS2_S6_S6_+0x52>
            for (; p != end; ++p, ++dest) {
   d6984:	42ac      	cmp	r4, r5
   d6986:	d00a      	beq.n	d699e <_ZN5spark6VectorIN8particle10BleServiceENS_16DefaultAllocatorEE4moveIS2_Li0EEEvPS2_S6_S6_+0x52>
                new(dest) T(std::move(*p));
   d6988:	b11e      	cbz	r6, d6992 <_ZN5spark6VectorIN8particle10BleServiceENS_16DefaultAllocatorEE4moveIS2_Li0EEEvPS2_S6_S6_+0x46>
   d698a:	4621      	mov	r1, r4
   d698c:	4630      	mov	r0, r6
   d698e:	f7ff fdf3 	bl	d6578 <_ZNSt12__shared_ptrIN8particle14BleServiceImplELN9__gnu_cxx12_Lock_policyE0EEC1ERKS4_>
   d6992:	1d20      	adds	r0, r4, #4
   d6994:	f7ff fdfa 	bl	d658c <_ZNSt14__shared_countILN9__gnu_cxx12_Lock_policyE0EED1Ev>
            for (; end != p; --end, --dest) {
                new(dest) T(std::move(*end));
                end->~T();
            }
        } else if (dest != p) {
            for (; p != end; ++p, ++dest) {
   d6998:	3408      	adds	r4, #8
   d699a:	3608      	adds	r6, #8
   d699c:	e7f2      	b.n	d6984 <_ZN5spark6VectorIN8particle10BleServiceENS_16DefaultAllocatorEE4moveIS2_Li0EEEvPS2_S6_S6_+0x38>
   d699e:	bdf8      	pop	{r3, r4, r5, r6, r7, pc}

000d69a0 <_ZN5spark6VectorIN8particle10BleServiceENS_16DefaultAllocatorEE7reallocIS2_Li0EEEbi>:
        capacity_ = n;
        return true;
    }

    template<PARTICLE_VECTOR_ENABLE_IF_NOT_TRIVIALLY_COPYABLE(T)>
    bool realloc(int n) {
   d69a0:	b570      	push	{r4, r5, r6, lr}
        T* d = nullptr;
        if (n > 0) {
   d69a2:	1e0e      	subs	r6, r1, #0
        capacity_ = n;
        return true;
    }

    template<PARTICLE_VECTOR_ENABLE_IF_NOT_TRIVIALLY_COPYABLE(T)>
    bool realloc(int n) {
   d69a4:	4605      	mov	r5, r0
        T* d = nullptr;
        if (n > 0) {
   d69a6:	dd0b      	ble.n	d69c0 <_ZN5spark6VectorIN8particle10BleServiceENS_16DefaultAllocatorEE7reallocIS2_Li0EEEbi+0x20>

} // particle

// spark::DefaultAllocator
inline void* spark::DefaultAllocator::malloc(size_t size) {
    return ::malloc(size);
   d69a8:	00f0      	lsls	r0, r6, #3
   d69aa:	f7ff f8cd 	bl	d5b48 <malloc>
    template<PARTICLE_VECTOR_ENABLE_IF_NOT_TRIVIALLY_COPYABLE(T)>
    bool realloc(int n) {
        T* d = nullptr;
        if (n > 0) {
            d = (T*)AllocatorT::malloc(n * sizeof(T));
            if (!d) {
   d69ae:	4604      	mov	r4, r0
   d69b0:	b170      	cbz	r0, d69d0 <_ZN5spark6VectorIN8particle10BleServiceENS_16DefaultAllocatorEE7reallocIS2_Li0EEEbi+0x30>
                return false;
            }
            move(d, data_, data_ + size_);
   d69b2:	e895 0006 	ldmia.w	r5, {r1, r2}
   d69b6:	eb01 02c2 	add.w	r2, r1, r2, lsl #3
   d69ba:	f7ff ffc7 	bl	d694c <_ZN5spark6VectorIN8particle10BleServiceENS_16DefaultAllocatorEE4moveIS2_Li0EEEvPS2_S6_S6_>
   d69be:	e000      	b.n	d69c2 <_ZN5spark6VectorIN8particle10BleServiceENS_16DefaultAllocatorEE7reallocIS2_Li0EEEbi+0x22>
        return true;
    }

    template<PARTICLE_VECTOR_ENABLE_IF_NOT_TRIVIALLY_COPYABLE(T)>
    bool realloc(int n) {
        T* d = nullptr;
   d69c0:	2400      	movs	r4, #0
inline void* spark::DefaultAllocator::realloc(void* ptr, size_t size) {
    return ::realloc(ptr, size);
}

inline void spark::DefaultAllocator::free(void* ptr) {
    ::free(ptr);
   d69c2:	6828      	ldr	r0, [r5, #0]
   d69c4:	f7ff f8c8 	bl	d5b58 <free>
                return false;
            }
            move(d, data_, data_ + size_);
        }
        AllocatorT::free(data_);
        data_ = d;
   d69c8:	602c      	str	r4, [r5, #0]
        capacity_ = n;
   d69ca:	60ae      	str	r6, [r5, #8]
        return true;
   d69cc:	2001      	movs	r0, #1
   d69ce:	bd70      	pop	{r4, r5, r6, pc}
    }
   d69d0:	bd70      	pop	{r4, r5, r6, pc}

000d69d2 <_ZN5spark6VectorIN8particle10BleServiceENS_16DefaultAllocatorEE6appendES2_>:
    destruct(data_, data_ + size_);
    AllocatorT::free(data_);
}

template<typename T, typename AllocatorT>
inline bool spark::Vector<T, AllocatorT>::append(T value) {
   d69d2:	b573      	push	{r0, r1, r4, r5, r6, lr}
   d69d4:	4604      	mov	r4, r0
    return insert(size_, std::move(value));
   d69d6:	6845      	ldr	r5, [r0, #4]
   d69d8:	4668      	mov	r0, sp
   d69da:	f7ff fdcd 	bl	d6578 <_ZNSt12__shared_ptrIN8particle14BleServiceImplELN9__gnu_cxx12_Lock_policyE0EEC1ERKS4_>
    return insert(0, vector);
}

template<typename T, typename AllocatorT>
inline bool spark::Vector<T, AllocatorT>::insert(int i, T value) {
    if (size_ + 1 > capacity_ && !realloc(size_ + 1)) {
   d69de:	6861      	ldr	r1, [r4, #4]
   d69e0:	68a3      	ldr	r3, [r4, #8]
   d69e2:	4299      	cmp	r1, r3
   d69e4:	db05      	blt.n	d69f2 <_ZN5spark6VectorIN8particle10BleServiceENS_16DefaultAllocatorEE6appendES2_+0x20>
   d69e6:	3101      	adds	r1, #1
   d69e8:	4620      	mov	r0, r4
   d69ea:	f7ff ffd9 	bl	d69a0 <_ZN5spark6VectorIN8particle10BleServiceENS_16DefaultAllocatorEE7reallocIS2_Li0EEEbi>
   d69ee:	4606      	mov	r6, r0
   d69f0:	b198      	cbz	r0, d6a1a <_ZN5spark6VectorIN8particle10BleServiceENS_16DefaultAllocatorEE6appendES2_+0x48>
        return false;
    }
    T* const p = data_ + i;
   d69f2:	6823      	ldr	r3, [r4, #0]
    move(p + 1, p, data_ + size_);
   d69f4:	6862      	ldr	r2, [r4, #4]
template<typename T, typename AllocatorT>
inline bool spark::Vector<T, AllocatorT>::insert(int i, T value) {
    if (size_ + 1 > capacity_ && !realloc(size_ + 1)) {
        return false;
    }
    T* const p = data_ + i;
   d69f6:	eb03 05c5 	add.w	r5, r3, r5, lsl #3
    move(p + 1, p, data_ + size_);
   d69fa:	eb03 02c2 	add.w	r2, r3, r2, lsl #3
   d69fe:	4629      	mov	r1, r5
   d6a00:	f105 0008 	add.w	r0, r5, #8
   d6a04:	f7ff ffa2 	bl	d694c <_ZN5spark6VectorIN8particle10BleServiceENS_16DefaultAllocatorEE4moveIS2_Li0EEEvPS2_S6_S6_>
    new(p) T(std::move(value));
   d6a08:	b11d      	cbz	r5, d6a12 <_ZN5spark6VectorIN8particle10BleServiceENS_16DefaultAllocatorEE6appendES2_+0x40>
   d6a0a:	4669      	mov	r1, sp
   d6a0c:	4628      	mov	r0, r5
   d6a0e:	f7ff fdb3 	bl	d6578 <_ZNSt12__shared_ptrIN8particle14BleServiceImplELN9__gnu_cxx12_Lock_policyE0EEC1ERKS4_>
    ++size_;
   d6a12:	6863      	ldr	r3, [r4, #4]
   d6a14:	3301      	adds	r3, #1
   d6a16:	6063      	str	r3, [r4, #4]
   d6a18:	2601      	movs	r6, #1
   d6a1a:	a801      	add	r0, sp, #4
   d6a1c:	f7ff fdb6 	bl	d658c <_ZNSt14__shared_countILN9__gnu_cxx12_Lock_policyE0EED1Ev>
}

template<typename T, typename AllocatorT>
inline bool spark::Vector<T, AllocatorT>::append(T value) {
    return insert(size_, std::move(value));
}
   d6a20:	4630      	mov	r0, r6
   d6a22:	b002      	add	sp, #8
   d6a24:	bd70      	pop	{r4, r5, r6, pc}

000d6a26 <_ZN5spark6VectorIN8particle17BleCharacteristicENS_16DefaultAllocatorEE4moveIS2_Li0EEEvPS2_S6_S6_>:
        ::memmove(dest, p, (end - p) * sizeof(T));
    }

    template<PARTICLE_VECTOR_ENABLE_IF_NOT_TRIVIALLY_COPYABLE(T)>
    static void move(T* dest, T* p, T* end) {
        if (dest > p && dest < end) {
   d6a26:	4288      	cmp	r0, r1
    static void move(T* dest, const T* p, const T* end) {
        ::memmove(dest, p, (end - p) * sizeof(T));
    }

    template<PARTICLE_VECTOR_ENABLE_IF_NOT_TRIVIALLY_COPYABLE(T)>
    static void move(T* dest, T* p, T* end) {
   d6a28:	b5f8      	push	{r3, r4, r5, r6, r7, lr}
   d6a2a:	4606      	mov	r6, r0
   d6a2c:	460c      	mov	r4, r1
   d6a2e:	4615      	mov	r5, r2
        if (dest > p && dest < end) {
   d6a30:	d914      	bls.n	d6a5c <_ZN5spark6VectorIN8particle17BleCharacteristicENS_16DefaultAllocatorEE4moveIS2_Li0EEEvPS2_S6_S6_+0x36>
   d6a32:	4290      	cmp	r0, r2
   d6a34:	d213      	bcs.n	d6a5e <_ZN5spark6VectorIN8particle17BleCharacteristicENS_16DefaultAllocatorEE4moveIS2_Li0EEEvPS2_S6_S6_+0x38>
            // Move elements in reverse order
            --p;
            --end;
   d6a36:	f1a2 0508 	sub.w	r5, r2, #8
            dest += end - p - 1;
   d6a3a:	1a6c      	subs	r4, r5, r1
   d6a3c:	f1a1 0708 	sub.w	r7, r1, #8
   d6a40:	4404      	add	r4, r0
            for (; end != p; --end, --dest) {
   d6a42:	42af      	cmp	r7, r5
   d6a44:	d018      	beq.n	d6a78 <_ZN5spark6VectorIN8particle17BleCharacteristicENS_16DefaultAllocatorEE4moveIS2_Li0EEEvPS2_S6_S6_+0x52>
                new(dest) T(std::move(*end));
   d6a46:	b11c      	cbz	r4, d6a50 <_ZN5spark6VectorIN8particle17BleCharacteristicENS_16DefaultAllocatorEE4moveIS2_Li0EEEvPS2_S6_S6_+0x2a>
   d6a48:	4629      	mov	r1, r5
   d6a4a:	4620      	mov	r0, r4
   d6a4c:	f7ff fd86 	bl	d655c <_ZN8particle17BleCharacteristicC1ERKS0_>
   d6a50:	1d28      	adds	r0, r5, #4
   d6a52:	f7ff fd9b 	bl	d658c <_ZNSt14__shared_countILN9__gnu_cxx12_Lock_policyE0EED1Ev>
        if (dest > p && dest < end) {
            // Move elements in reverse order
            --p;
            --end;
            dest += end - p - 1;
            for (; end != p; --end, --dest) {
   d6a56:	3d08      	subs	r5, #8
   d6a58:	3c08      	subs	r4, #8
   d6a5a:	e7f2      	b.n	d6a42 <_ZN5spark6VectorIN8particle17BleCharacteristicENS_16DefaultAllocatorEE4moveIS2_Li0EEEvPS2_S6_S6_+0x1c>
                new(dest) T(std::move(*end));
                end->~T();
            }
        } else if (dest != p) {
   d6a5c:	d00c      	beq.n	d6a78 <_ZN5spark6VectorIN8particle17BleCharacteristicENS_16DefaultAllocatorEE4moveIS2_Li0EEEvPS2_S6_S6_+0x52>
            for (; p != end; ++p, ++dest) {
   d6a5e:	42ac      	cmp	r4, r5
   d6a60:	d00a      	beq.n	d6a78 <_ZN5spark6VectorIN8particle17BleCharacteristicENS_16DefaultAllocatorEE4moveIS2_Li0EEEvPS2_S6_S6_+0x52>
                new(dest) T(std::move(*p));
   d6a62:	b11e      	cbz	r6, d6a6c <_ZN5spark6VectorIN8particle17BleCharacteristicENS_16DefaultAllocatorEE4moveIS2_Li0EEEvPS2_S6_S6_+0x46>
   d6a64:	4621      	mov	r1, r4
   d6a66:	4630      	mov	r0, r6
   d6a68:	f7ff fd78 	bl	d655c <_ZN8particle17BleCharacteristicC1ERKS0_>
   d6a6c:	1d20      	adds	r0, r4, #4
   d6a6e:	f7ff fd8d 	bl	d658c <_ZNSt14__shared_countILN9__gnu_cxx12_Lock_policyE0EED1Ev>
            for (; end != p; --end, --dest) {
                new(dest) T(std::move(*end));
                end->~T();
            }
        } else if (dest != p) {
            for (; p != end; ++p, ++dest) {
   d6a72:	3408      	adds	r4, #8
   d6a74:	3608      	adds	r6, #8
   d6a76:	e7f2      	b.n	d6a5e <_ZN5spark6VectorIN8particle17BleCharacteristicENS_16DefaultAllocatorEE4moveIS2_Li0EEEvPS2_S6_S6_+0x38>
   d6a78:	bdf8      	pop	{r3, r4, r5, r6, r7, pc}

000d6a7a <_ZN5spark6VectorIN8particle17BleCharacteristicENS_16DefaultAllocatorEE7reallocIS2_Li0EEEbi>:
        capacity_ = n;
        return true;
    }

    template<PARTICLE_VECTOR_ENABLE_IF_NOT_TRIVIALLY_COPYABLE(T)>
    bool realloc(int n) {
   d6a7a:	b570      	push	{r4, r5, r6, lr}
        T* d = nullptr;
        if (n > 0) {
   d6a7c:	1e0e      	subs	r6, r1, #0
        capacity_ = n;
        return true;
    }

    template<PARTICLE_VECTOR_ENABLE_IF_NOT_TRIVIALLY_COPYABLE(T)>
    bool realloc(int n) {
   d6a7e:	4605      	mov	r5, r0
        T* d = nullptr;
        if (n > 0) {
   d6a80:	dd0b      	ble.n	d6a9a <_ZN5spark6VectorIN8particle17BleCharacteristicENS_16DefaultAllocatorEE7reallocIS2_Li0EEEbi+0x20>

} // particle

// spark::DefaultAllocator
inline void* spark::DefaultAllocator::malloc(size_t size) {
    return ::malloc(size);
   d6a82:	00f0      	lsls	r0, r6, #3
   d6a84:	f7ff f860 	bl	d5b48 <malloc>
    template<PARTICLE_VECTOR_ENABLE_IF_NOT_TRIVIALLY_COPYABLE(T)>
    bool realloc(int n) {
        T* d = nullptr;
        if (n > 0) {
            d = (T*)AllocatorT::malloc(n * sizeof(T));
            if (!d) {
   d6a88:	4604      	mov	r4, r0
   d6a8a:	b170      	cbz	r0, d6aaa <_ZN5spark6VectorIN8particle17BleCharacteristicENS_16DefaultAllocatorEE7reallocIS2_Li0EEEbi+0x30>
                return false;
            }
            move(d, data_, data_ + size_);
   d6a8c:	e895 0006 	ldmia.w	r5, {r1, r2}
   d6a90:	eb01 02c2 	add.w	r2, r1, r2, lsl #3
   d6a94:	f7ff ffc7 	bl	d6a26 <_ZN5spark6VectorIN8particle17BleCharacteristicENS_16DefaultAllocatorEE4moveIS2_Li0EEEvPS2_S6_S6_>
   d6a98:	e000      	b.n	d6a9c <_ZN5spark6VectorIN8particle17BleCharacteristicENS_16DefaultAllocatorEE7reallocIS2_Li0EEEbi+0x22>
        return true;
    }

    template<PARTICLE_VECTOR_ENABLE_IF_NOT_TRIVIALLY_COPYABLE(T)>
    bool realloc(int n) {
        T* d = nullptr;
   d6a9a:	2400      	movs	r4, #0
inline void* spark::DefaultAllocator::realloc(void* ptr, size_t size) {
    return ::realloc(ptr, size);
}

inline void spark::DefaultAllocator::free(void* ptr) {
    ::free(ptr);
   d6a9c:	6828      	ldr	r0, [r5, #0]
   d6a9e:	f7ff f85b 	bl	d5b58 <free>
                return false;
            }
            move(d, data_, data_ + size_);
        }
        AllocatorT::free(data_);
        data_ = d;
   d6aa2:	602c      	str	r4, [r5, #0]
        capacity_ = n;
   d6aa4:	60ae      	str	r6, [r5, #8]
        return true;
   d6aa6:	2001      	movs	r0, #1
   d6aa8:	bd70      	pop	{r4, r5, r6, pc}
    }
   d6aaa:	bd70      	pop	{r4, r5, r6, pc}

000d6aac <_ZN5spark6VectorIN8particle17BleCharacteristicENS_16DefaultAllocatorEE6appendES2_>:
    destruct(data_, data_ + size_);
    AllocatorT::free(data_);
}

template<typename T, typename AllocatorT>
inline bool spark::Vector<T, AllocatorT>::append(T value) {
   d6aac:	b573      	push	{r0, r1, r4, r5, r6, lr}
   d6aae:	4604      	mov	r4, r0
    return insert(size_, std::move(value));
   d6ab0:	6845      	ldr	r5, [r0, #4]
   d6ab2:	4668      	mov	r0, sp
   d6ab4:	f7ff fd52 	bl	d655c <_ZN8particle17BleCharacteristicC1ERKS0_>
    return insert(0, vector);
}

template<typename T, typename AllocatorT>
inline bool spark::Vector<T, AllocatorT>::insert(int i, T value) {
    if (size_ + 1 > capacity_ && !realloc(size_ + 1)) {
   d6ab8:	6861      	ldr	r1, [r4, #4]
   d6aba:	68a3      	ldr	r3, [r4, #8]
   d6abc:	4299      	cmp	r1, r3
   d6abe:	db05      	blt.n	d6acc <_ZN5spark6VectorIN8particle17BleCharacteristicENS_16DefaultAllocatorEE6appendES2_+0x20>
   d6ac0:	3101      	adds	r1, #1
   d6ac2:	4620      	mov	r0, r4
   d6ac4:	f7ff ffd9 	bl	d6a7a <_ZN5spark6VectorIN8particle17BleCharacteristicENS_16DefaultAllocatorEE7reallocIS2_Li0EEEbi>
   d6ac8:	4606      	mov	r6, r0
   d6aca:	b198      	cbz	r0, d6af4 <_ZN5spark6VectorIN8particle17BleCharacteristicENS_16DefaultAllocatorEE6appendES2_+0x48>
        return false;
    }
    T* const p = data_ + i;
   d6acc:	6823      	ldr	r3, [r4, #0]
    move(p + 1, p, data_ + size_);
   d6ace:	6862      	ldr	r2, [r4, #4]
template<typename T, typename AllocatorT>
inline bool spark::Vector<T, AllocatorT>::insert(int i, T value) {
    if (size_ + 1 > capacity_ && !realloc(size_ + 1)) {
        return false;
    }
    T* const p = data_ + i;
   d6ad0:	eb03 05c5 	add.w	r5, r3, r5, lsl #3
    move(p + 1, p, data_ + size_);
   d6ad4:	eb03 02c2 	add.w	r2, r3, r2, lsl #3
   d6ad8:	4629      	mov	r1, r5
   d6ada:	f105 0008 	add.w	r0, r5, #8
   d6ade:	f7ff ffa2 	bl	d6a26 <_ZN5spark6VectorIN8particle17BleCharacteristicENS_16DefaultAllocatorEE4moveIS2_Li0EEEvPS2_S6_S6_>
    new(p) T(std::move(value));
   d6ae2:	b11d      	cbz	r5, d6aec <_ZN5spark6VectorIN8particle17BleCharacteristicENS_16DefaultAllocatorEE6appendES2_+0x40>
   d6ae4:	4669      	mov	r1, sp
   d6ae6:	4628      	mov	r0, r5
   d6ae8:	f7ff fd38 	bl	d655c <_ZN8particle17BleCharacteristicC1ERKS0_>
    ++size_;
   d6aec:	6863      	ldr	r3, [r4, #4]
   d6aee:	3301      	adds	r3, #1
   d6af0:	6063      	str	r3, [r4, #4]
   d6af2:	2601      	movs	r6, #1
   d6af4:	a801      	add	r0, sp, #4
   d6af6:	f7ff fd49 	bl	d658c <_ZNSt14__shared_countILN9__gnu_cxx12_Lock_policyE0EED1Ev>
}

template<typename T, typename AllocatorT>
inline bool spark::Vector<T, AllocatorT>::append(T value) {
    return insert(size_, std::move(value));
}
   d6afa:	4630      	mov	r0, r6
   d6afc:	b002      	add	sp, #8
   d6afe:	bd70      	pop	{r4, r5, r6, pc}

000d6b00 <_ZNSt15__allocated_ptrISaIN8particle21BleCharacteristicImplEEED1Ev>:
      __allocated_ptr(__allocated_ptr&& __gd) noexcept
      : _M_alloc(__gd._M_alloc), _M_ptr(__gd._M_ptr)
      { __gd._M_ptr = nullptr; }

      /// Deallocate the owned pointer
      ~__allocated_ptr()
   d6b00:	b510      	push	{r4, lr}
   d6b02:	4604      	mov	r4, r0
      {
	if (_M_ptr != nullptr)
   d6b04:	6840      	ldr	r0, [r0, #4]
   d6b06:	b108      	cbz	r0, d6b0c <_ZNSt15__allocated_ptrISaIN8particle21BleCharacteristicImplEEED1Ev+0xc>
      }

      // __p is not permitted to be a null pointer.
      void
      deallocate(pointer __p, size_type)
      { ::operator delete(__p); }
   d6b08:	f7fd fac9 	bl	d409e <_ZdlPv>
	  std::allocator_traits<_Alloc>::deallocate(*_M_alloc, _M_ptr, 1);
      }
   d6b0c:	4620      	mov	r0, r4
   d6b0e:	bd10      	pop	{r4, pc}

000d6b10 <_ZNSt19_Sp_counted_deleterIPN8particle21BleCharacteristicImplENSt12__shared_ptrIS1_LN9__gnu_cxx12_Lock_policyE0EE8_DeleterISaIS1_EEES8_LS5_0EE10_M_disposeEv>:
      : _M_impl(__p, __d, __a) { }

      ~_Sp_counted_deleter() noexcept { }

      virtual void
      _M_dispose() noexcept
   d6b10:	b507      	push	{r0, r1, r2, lr}
      { _M_impl._M_del()(_M_impl._M_ptr); }
   d6b12:	6903      	ldr	r3, [r0, #16]
      template<typename _Alloc>
        struct _Deleter
        {
          void operator()(typename _Alloc::value_type* __ptr)
          {
	    __allocated_ptr<_Alloc> __guard{ _M_alloc, __ptr };
   d6b14:	300c      	adds	r0, #12
      using pointer = typename allocator_traits<_Alloc>::pointer;
      using value_type = typename allocator_traits<_Alloc>::value_type;

      /// Take ownership of __ptr
      __allocated_ptr(_Alloc& __a, pointer __ptr) noexcept
      : _M_alloc(&__a), _M_ptr(__ptr)
   d6b16:	e88d 0009 	stmia.w	sp, {r0, r3}
            : BleCharacteristicImpl(desc, properties, callback, context) {
        charUuid_ = charUuid;
        svcUuid_ = svcUuid;
    }

    ~BleCharacteristicImpl() = default;
   d6b1a:	f103 003c 	add.w	r0, r3, #60	; 0x3c
   d6b1e:	f7ff f8a1 	bl	d5c64 <_ZN6StringD1Ev>
   d6b22:	4668      	mov	r0, sp
   d6b24:	f7ff ffec 	bl	d6b00 <_ZNSt15__allocated_ptrISaIN8particle21BleCharacteristicImplEEED1Ev>

      ~_Sp_counted_deleter() noexcept { }

      virtual void
      _M_dispose() noexcept
      { _M_impl._M_del()(_M_impl._M_ptr); }
   d6b28:	b003      	add	sp, #12
   d6b2a:	f85d fb04 	ldr.w	pc, [sp], #4
	...

000d6b30 <_ZNSt14__shared_countILN9__gnu_cxx12_Lock_policyE0EEC1IPN8particle21BleCharacteristicImplENSt12__shared_ptrIS5_LS1_0EE8_DeleterISaIS5_EEESA_EET_T0_T1_>:
	__shared_count(_Ptr __p, _Deleter __d)
	: __shared_count(__p, std::move(__d), allocator<void>())
	{ }

      template<typename _Ptr, typename _Deleter, typename _Alloc>
	__shared_count(_Ptr __p, _Deleter __d, _Alloc __a) : _M_pi(0)
   d6b30:	b538      	push	{r3, r4, r5, lr}
   d6b32:	2300      	movs	r3, #0
   d6b34:	4604      	mov	r4, r0
   d6b36:	6003      	str	r3, [r0, #0]
      allocate(size_type __n, const void* = 0)
      { 
	if (__n > this->max_size())
	  std::__throw_bad_alloc();

	return static_cast<_Tp*>(::operator new(__n * sizeof(_Tp)));
   d6b38:	2014      	movs	r0, #20
   d6b3a:	460d      	mov	r5, r1
   d6b3c:	f7fd faab 	bl	d4096 <_Znwj>
	  __try
	    {
	      typename _Sp_cd_type::__allocator_type __a2(__a);
	      auto __guard = std::__allocate_guarded(__a2);
	      _Sp_cd_type* __mem = __guard.get();
	      ::new (__mem) _Sp_cd_type(__p, std::move(__d), std::move(__a));
   d6b40:	b128      	cbz	r0, d6b4e <_ZNSt14__shared_countILN9__gnu_cxx12_Lock_policyE0EEC1IPN8particle21BleCharacteristicImplENSt12__shared_ptrIS5_LS1_0EE8_DeleterISaIS5_EEESA_EET_T0_T1_+0x1e>
    class _Sp_counted_base
    : public _Mutex_base<_Lp>
    {
    public:  
      _Sp_counted_base() noexcept
      : _M_use_count(1), _M_weak_count(1) { }
   d6b42:	2301      	movs	r3, #1
   d6b44:	6043      	str	r3, [r0, #4]
   d6b46:	6083      	str	r3, [r0, #8]
      _Sp_counted_deleter(_Ptr __p, _Deleter __d) noexcept
      : _M_impl(__p, __d, _Alloc()) { }

      // __d(__p) must not throw.
      _Sp_counted_deleter(_Ptr __p, _Deleter __d, const _Alloc& __a) noexcept
      : _M_impl(__p, __d, __a) { }
   d6b48:	4b02      	ldr	r3, [pc, #8]	; (d6b54 <_ZNSt14__shared_countILN9__gnu_cxx12_Lock_policyE0EEC1IPN8particle21BleCharacteristicImplENSt12__shared_ptrIS5_LS1_0EE8_DeleterISaIS5_EEESA_EET_T0_T1_+0x24>)
   d6b4a:	6003      	str	r3, [r0, #0]
	typedef _Sp_ebo_helper<0, _Deleter>	_Del_base;
	typedef _Sp_ebo_helper<1, _Alloc>	_Alloc_base;

      public:
	_Impl(_Ptr __p, _Deleter __d, const _Alloc& __a) noexcept
	: _M_ptr(__p), _Del_base(__d), _Alloc_base(__a)
   d6b4c:	6105      	str	r5, [r0, #16]
	    {
	      typename _Sp_cd_type::__allocator_type __a2(__a);
	      auto __guard = std::__allocate_guarded(__a2);
	      _Sp_cd_type* __mem = __guard.get();
	      ::new (__mem) _Sp_cd_type(__p, std::move(__d), std::move(__a));
	      _M_pi = __mem;
   d6b4e:	6020      	str	r0, [r4, #0]
	  __catch(...)
	    {
	      __d(__p); // Call _Deleter on __p.
	      __throw_exception_again;
	    }
	}
   d6b50:	4620      	mov	r0, r4
   d6b52:	bd38      	pop	{r3, r4, r5, pc}
   d6b54:	000d849c 	.word	0x000d849c

000d6b58 <_ZN8particle17BleCharacteristic9constructEPKcNS_9EnumFlagsINS_25BleCharacteristicPropertyEvEERNS_7BleUuidES7_PFvPKhjRKNS_13BlePeerDeviceEPvESD_>:
        SPARK_ASSERT(false);
    }
    DEBUG("BleCharacteristic(...), 0x%08X -> 0x%08X, count: %d", this, impl(), impl_.use_count());
}

void BleCharacteristic::construct(const char* desc, EnumFlags<BleCharacteristicProperty> properties, BleUuid& charUuid, BleUuid& svcUuid, BleOnDataReceivedCallback callback, void* context) {
   d6b58:	e92d 41f0 	stmdb	sp!, {r4, r5, r6, r7, r8, lr}
   d6b5c:	b088      	sub	sp, #32
   d6b5e:	4605      	mov	r5, r0
   d6b60:	461e      	mov	r6, r3
   d6b62:	2054      	movs	r0, #84	; 0x54
        };

      template<typename _Alloc, typename... _Args>
	__shared_ptr(_Sp_make_shared_tag __tag, const _Alloc& __a,
		     _Args&&... __args)
	: _M_ptr(), _M_refcount()
   d6b64:	2300      	movs	r3, #0
   d6b66:	460f      	mov	r7, r1
   d6b68:	4690      	mov	r8, r2
   d6b6a:	9304      	str	r3, [sp, #16]

  template<_Lock_policy _Lp>
    class __shared_count
    {
    public:
      constexpr __shared_count() noexcept : _M_pi(0)
   d6b6c:	9305      	str	r3, [sp, #20]
   d6b6e:	f7fd fa92 	bl	d4096 <_Znwj>
   d6b72:	f8cd d018 	str.w	sp, [sp, #24]
   d6b76:	4604      	mov	r4, r0
   d6b78:	9007      	str	r0, [sp, #28]

#if __cplusplus >= 201103L
      template<typename _Up, typename... _Args>
        void
        construct(_Up* __p, _Args&&... __args)
	{ ::new((void *)__p) _Up(std::forward<_Args>(__args)...); }
   d6b7a:	b1c0      	cbz	r0, d6bae <_ZN8particle17BleCharacteristic9constructEPKcNS_9EnumFlagsINS_25BleCharacteristicPropertyEvEERNS_7BleUuidES7_PFvPKhjRKNS_13BlePeerDeviceEPvESD_+0x56>
    value_ = static_cast<ValueType>(value);
}

template<typename T>
inline particle::EnumFlags<T, typename std::enable_if_t<std::is_enum<T>::value>>::EnumFlags(const EnumFlags<T>& flags) {
    value_ = flags.value_;
   d6b7c:	f898 8000 	ldrb.w	r8, [r8]
              callback_(nullptr),
              context_(nullptr) {
    }

    BleCharacteristicImpl(const char* desc, EnumFlags<BleCharacteristicProperty> properties, BleOnDataReceivedCallback callback, void* context)
            : BleCharacteristicImpl() {
   d6b80:	f7ff fb6c 	bl	d625c <_ZN8particle21BleCharacteristicImplC1Ev>
        properties_ = properties;
        description_ = desc;
   d6b84:	4639      	mov	r1, r7
   d6b86:	f104 003c 	add.w	r0, r4, #60	; 0x3c
              context_(nullptr) {
    }

    BleCharacteristicImpl(const char* desc, EnumFlags<BleCharacteristicProperty> properties, BleOnDataReceivedCallback callback, void* context)
            : BleCharacteristicImpl() {
        properties_ = properties;
   d6b8a:	f884 8004 	strb.w	r8, [r4, #4]
        description_ = desc;
   d6b8e:	f7ff f8dd 	bl	d5d4c <_ZN6StringaSEPKc>
        callback_ = callback;
   d6b92:	9b0f      	ldr	r3, [sp, #60]	; 0x3c
   d6b94:	64e3      	str	r3, [r4, #76]	; 0x4c
        context_ = context;
    }

    BleCharacteristicImpl(const char* desc, EnumFlags<BleCharacteristicProperty> properties, BleUuid& charUuid, BleUuid& svcUuid, BleOnDataReceivedCallback callback, void* context)
            : BleCharacteristicImpl(desc, properties, callback, context) {
        charUuid_ = charUuid;
   d6b96:	4631      	mov	r1, r6
    BleCharacteristicImpl(const char* desc, EnumFlags<BleCharacteristicProperty> properties, BleOnDataReceivedCallback callback, void* context)
            : BleCharacteristicImpl() {
        properties_ = properties;
        description_ = desc;
        callback_ = callback;
        context_ = context;
   d6b98:	9b10      	ldr	r3, [sp, #64]	; 0x40
   d6b9a:	6523      	str	r3, [r4, #80]	; 0x50
    }

    BleCharacteristicImpl(const char* desc, EnumFlags<BleCharacteristicProperty> properties, BleUuid& charUuid, BleUuid& svcUuid, BleOnDataReceivedCallback callback, void* context)
            : BleCharacteristicImpl(desc, properties, callback, context) {
        charUuid_ = charUuid;
   d6b9c:	f104 0014 	add.w	r0, r4, #20
   d6ba0:	f7ff fa2c 	bl	d5ffc <_ZN8particle7BleUuidaSERKS0_>
        svcUuid_ = svcUuid;
   d6ba4:	990e      	ldr	r1, [sp, #56]	; 0x38
   d6ba6:	f104 0028 	add.w	r0, r4, #40	; 0x28
   d6baa:	f7ff fa27 	bl	d5ffc <_ZN8particle7BleUuidaSERKS0_>
	  // _GLIBCXX_RESOLVE_LIB_DEFECTS
	  // 2070. allocate_shared should use allocator_traits<A>::construct
	  __traits::construct(__del._M_alloc, __ptr,
			      std::forward<_Args>(__args)...);
	  __guard = nullptr;
	  __shared_count<_Lp> __count(__ptr, __del, __del._M_alloc);
   d6bae:	4621      	mov	r1, r4

      /// Release ownership of the owned pointer
      __allocated_ptr&
      operator=(std::nullptr_t) noexcept
      {
	_M_ptr = nullptr;
   d6bb0:	2600      	movs	r6, #0
   d6bb2:	ab01      	add	r3, sp, #4
   d6bb4:	aa02      	add	r2, sp, #8
   d6bb6:	a803      	add	r0, sp, #12
   d6bb8:	9607      	str	r6, [sp, #28]
   d6bba:	f7ff ffb9 	bl	d6b30 <_ZNSt14__shared_countILN9__gnu_cxx12_Lock_policyE0EEC1IPN8particle21BleCharacteristicImplENSt12__shared_ptrIS5_LS1_0EE8_DeleterISaIS5_EEESA_EET_T0_T1_>
      }

      void
      _M_swap(__shared_count& __r) noexcept
      {
	_Sp_counted_base<_Lp>* __tmp = __r._M_pi;
   d6bbe:	9b03      	ldr	r3, [sp, #12]
	__r._M_pi = _M_pi;
   d6bc0:	9a05      	ldr	r2, [sp, #20]
   d6bc2:	9203      	str	r2, [sp, #12]
	  // _GLIBCXX_RESOLVE_LIB_DEFECTS
	  // 2070. allocate_shared should use allocator_traits<A>::construct
	  __traits::construct(__del._M_alloc, __ptr,
			      std::forward<_Args>(__args)...);
	  __guard = nullptr;
	  __shared_count<_Lp> __count(__ptr, __del, __del._M_alloc);
   d6bc4:	a803      	add	r0, sp, #12
      void
      _M_swap(__shared_count& __r) noexcept
      {
	_Sp_counted_base<_Lp>* __tmp = __r._M_pi;
	__r._M_pi = _M_pi;
	_M_pi = __tmp;
   d6bc6:	9305      	str	r3, [sp, #20]
	  __traits::construct(__del._M_alloc, __ptr,
			      std::forward<_Args>(__args)...);
	  __guard = nullptr;
	  __shared_count<_Lp> __count(__ptr, __del, __del._M_alloc);
	  _M_refcount._M_swap(__count);
	  _M_ptr = __ptr;
   d6bc8:	9404      	str	r4, [sp, #16]
	  // _GLIBCXX_RESOLVE_LIB_DEFECTS
	  // 2070. allocate_shared should use allocator_traits<A>::construct
	  __traits::construct(__del._M_alloc, __ptr,
			      std::forward<_Args>(__args)...);
	  __guard = nullptr;
	  __shared_count<_Lp> __count(__ptr, __del, __del._M_alloc);
   d6bca:	f7ff fcdf 	bl	d658c <_ZNSt14__shared_countILN9__gnu_cxx12_Lock_policyE0EED1Ev>
	: _M_ptr(), _M_refcount()
	{
	  typedef typename allocator_traits<_Alloc>::template
	    rebind_traits<typename std::remove_cv<_Tp>::type> __traits;
	  _Deleter<typename __traits::allocator_type> __del = { __a };
	  auto __guard = std::__allocate_guarded(__del._M_alloc);
   d6bce:	a806      	add	r0, sp, #24
   d6bd0:	f7ff ff96 	bl	d6b00 <_ZNSt15__allocated_ptrISaIN8particle21BleCharacteristicImplEEED1Ev>
	__shared_ptr(const __shared_ptr<_Tp1, _Lp>& __r) noexcept
	: _M_ptr(__r._M_ptr), _M_refcount(__r._M_refcount)
	{ }

      __shared_ptr(__shared_ptr&& __r) noexcept
      : _M_ptr(__r._M_ptr), _M_refcount()
   d6bd4:	9b04      	ldr	r3, [sp, #16]
    {
      // concept requirements
      __glibcxx_function_requires(_SGIAssignableConcept<_Tp>)

      _Tp __tmp = _GLIBCXX_MOVE(__a);
      __a = _GLIBCXX_MOVE(__b);
   d6bd6:	6829      	ldr	r1, [r5, #0]
      }

      void
      _M_swap(__shared_count& __r) noexcept
      {
	_Sp_counted_base<_Lp>* __tmp = __r._M_pi;
   d6bd8:	9a05      	ldr	r2, [sp, #20]
      __b = _GLIBCXX_MOVE(__tmp);
   d6bda:	602b      	str	r3, [r5, #0]
	__r._M_pi = _M_pi;
	_M_pi = __tmp;
   d6bdc:	a808      	add	r0, sp, #32
      }

      void
      _M_swap(__shared_count& __r) noexcept
      {
	_Sp_counted_base<_Lp>* __tmp = __r._M_pi;
   d6bde:	686b      	ldr	r3, [r5, #4]
    {
      // concept requirements
      __glibcxx_function_requires(_SGIAssignableConcept<_Tp>)

      _Tp __tmp = _GLIBCXX_MOVE(__a);
      __a = _GLIBCXX_MOVE(__b);
   d6be0:	9106      	str	r1, [sp, #24]
	__r._M_pi = _M_pi;
   d6be2:	606a      	str	r2, [r5, #4]
	_M_pi = __tmp;
   d6be4:	f840 3d04 	str.w	r3, [r0, #-4]!

      void
      _M_swap(__shared_count& __r) noexcept
      {
	_Sp_counted_base<_Lp>* __tmp = __r._M_pi;
	__r._M_pi = _M_pi;
   d6be8:	9605      	str	r6, [sp, #20]

      __shared_ptr(__shared_ptr&& __r) noexcept
      : _M_ptr(__r._M_ptr), _M_refcount()
      {
	_M_refcount._M_swap(__r._M_refcount);
	__r._M_ptr = 0;
   d6bea:	9604      	str	r6, [sp, #16]
	: _M_ptr(__p), _M_refcount(__r._M_refcount) // never throws
	{ }

      __shared_ptr(const __shared_ptr&) noexcept = default;
      __shared_ptr& operator=(const __shared_ptr&) noexcept = default;
      ~__shared_ptr() = default;
   d6bec:	f7ff fcce 	bl	d658c <_ZNSt14__shared_countILN9__gnu_cxx12_Lock_policyE0EED1Ev>
   d6bf0:	a805      	add	r0, sp, #20
   d6bf2:	f7ff fccb 	bl	d658c <_ZNSt14__shared_countILN9__gnu_cxx12_Lock_policyE0EED1Ev>
    DEBUG("BleCharacteristic(...), 0x%08X -> 0x%08X, count: %d", this, impl(), impl_.use_count());
}

void BleCharacteristic::construct(const char* desc, EnumFlags<BleCharacteristicProperty> properties, BleUuid& charUuid, BleUuid& svcUuid, BleOnDataReceivedCallback callback, void* context) {
    impl_ = std::make_shared<BleCharacteristicImpl>(desc, properties, charUuid, svcUuid, callback, context);
    if (!impl()) {
   d6bf6:	6829      	ldr	r1, [r5, #0]
   d6bf8:	b919      	cbnz	r1, d6c02 <_ZN8particle17BleCharacteristic9constructEPKcNS_9EnumFlagsINS_25BleCharacteristicPropertyEvEERNS_7BleUuidES7_PFvPKhjRKNS_13BlePeerDeviceEPvESD_+0xaa>
        SPARK_ASSERT(false);
   d6bfa:	4a03      	ldr	r2, [pc, #12]	; (d6c08 <_ZN8particle17BleCharacteristic9constructEPKcNS_9EnumFlagsINS_25BleCharacteristicPropertyEvEERNS_7BleUuidES7_PFvPKhjRKNS_13BlePeerDeviceEPvESD_+0xb0>)
   d6bfc:	200a      	movs	r0, #10
   d6bfe:	f7fe ff17 	bl	d5a30 <panic_>
    }
    DEBUG("BleCharacteristic(), construct(...):0x%08X -> 0x%08X, count: %d", this, impl(), impl_.use_count());
}
   d6c02:	b008      	add	sp, #32
   d6c04:	e8bd 81f0 	ldmia.w	sp!, {r4, r5, r6, r7, r8, pc}
   d6c08:	000d565d 	.word	0x000d565d

000d6c0c <_ZNSt15__allocated_ptrISaIN8particle14BleServiceImplEEED1Ev>:
      __allocated_ptr(__allocated_ptr&& __gd) noexcept
      : _M_alloc(__gd._M_alloc), _M_ptr(__gd._M_ptr)
      { __gd._M_ptr = nullptr; }

      /// Deallocate the owned pointer
      ~__allocated_ptr()
   d6c0c:	b510      	push	{r4, lr}
   d6c0e:	4604      	mov	r4, r0
      {
	if (_M_ptr != nullptr)
   d6c10:	6840      	ldr	r0, [r0, #4]
   d6c12:	b108      	cbz	r0, d6c18 <_ZNSt15__allocated_ptrISaIN8particle14BleServiceImplEEED1Ev+0xc>
      }

      // __p is not permitted to be a null pointer.
      void
      deallocate(pointer __p, size_type)
      { ::operator delete(__p); }
   d6c14:	f7fd fa43 	bl	d409e <_ZdlPv>
	  std::allocator_traits<_Alloc>::deallocate(*_M_alloc, _M_ptr, 1);
      }
   d6c18:	4620      	mov	r0, r4
   d6c1a:	bd10      	pop	{r4, pc}

000d6c1c <_ZNSt19_Sp_counted_deleterIPN8particle14BleServiceImplENSt12__shared_ptrIS1_LN9__gnu_cxx12_Lock_policyE0EE8_DeleterISaIS1_EEES8_LS5_0EE10_M_disposeEv>:
      : _M_impl(__p, __d, __a) { }

      ~_Sp_counted_deleter() noexcept { }

      virtual void
      _M_dispose() noexcept
   d6c1c:	b507      	push	{r0, r1, r2, lr}
      { _M_impl._M_del()(_M_impl._M_ptr); }
   d6c1e:	6903      	ldr	r3, [r0, #16]
      template<typename _Alloc>
        struct _Deleter
        {
          void operator()(typename _Alloc::value_type* __ptr)
          {
	    __allocated_ptr<_Alloc> __guard{ _M_alloc, __ptr };
   d6c20:	300c      	adds	r0, #12
      using pointer = typename allocator_traits<_Alloc>::pointer;
      using value_type = typename allocator_traits<_Alloc>::value_type;

      /// Take ownership of __ptr
      __allocated_ptr(_Alloc& __a, pointer __ptr) noexcept
      : _M_alloc(&__a), _M_ptr(__ptr)
   d6c22:	e88d 0009 	stmia.w	sp, {r0, r3}
   d6c26:	4668      	mov	r0, sp
   d6c28:	f7ff fff0 	bl	d6c0c <_ZNSt15__allocated_ptrISaIN8particle14BleServiceImplEEED1Ev>

      ~_Sp_counted_deleter() noexcept { }

      virtual void
      _M_dispose() noexcept
      { _M_impl._M_del()(_M_impl._M_ptr); }
   d6c2c:	b003      	add	sp, #12
   d6c2e:	f85d fb04 	ldr.w	pc, [sp], #4
	...

000d6c34 <_ZNSt14__shared_countILN9__gnu_cxx12_Lock_policyE0EEC1IPN8particle14BleServiceImplENSt12__shared_ptrIS5_LS1_0EE8_DeleterISaIS5_EEESA_EET_T0_T1_>:
	__shared_count(_Ptr __p, _Deleter __d)
	: __shared_count(__p, std::move(__d), allocator<void>())
	{ }

      template<typename _Ptr, typename _Deleter, typename _Alloc>
	__shared_count(_Ptr __p, _Deleter __d, _Alloc __a) : _M_pi(0)
   d6c34:	b538      	push	{r3, r4, r5, lr}
   d6c36:	2300      	movs	r3, #0
   d6c38:	4604      	mov	r4, r0
   d6c3a:	6003      	str	r3, [r0, #0]
      allocate(size_type __n, const void* = 0)
      { 
	if (__n > this->max_size())
	  std::__throw_bad_alloc();

	return static_cast<_Tp*>(::operator new(__n * sizeof(_Tp)));
   d6c3c:	2014      	movs	r0, #20
   d6c3e:	460d      	mov	r5, r1
   d6c40:	f7fd fa29 	bl	d4096 <_Znwj>
	  __try
	    {
	      typename _Sp_cd_type::__allocator_type __a2(__a);
	      auto __guard = std::__allocate_guarded(__a2);
	      _Sp_cd_type* __mem = __guard.get();
	      ::new (__mem) _Sp_cd_type(__p, std::move(__d), std::move(__a));
   d6c44:	b128      	cbz	r0, d6c52 <_ZNSt14__shared_countILN9__gnu_cxx12_Lock_policyE0EEC1IPN8particle14BleServiceImplENSt12__shared_ptrIS5_LS1_0EE8_DeleterISaIS5_EEESA_EET_T0_T1_+0x1e>
    class _Sp_counted_base
    : public _Mutex_base<_Lp>
    {
    public:  
      _Sp_counted_base() noexcept
      : _M_use_count(1), _M_weak_count(1) { }
   d6c46:	2301      	movs	r3, #1
   d6c48:	6043      	str	r3, [r0, #4]
   d6c4a:	6083      	str	r3, [r0, #8]
      _Sp_counted_deleter(_Ptr __p, _Deleter __d) noexcept
      : _M_impl(__p, __d, _Alloc()) { }

      // __d(__p) must not throw.
      _Sp_counted_deleter(_Ptr __p, _Deleter __d, const _Alloc& __a) noexcept
      : _M_impl(__p, __d, __a) { }
   d6c4c:	4b02      	ldr	r3, [pc, #8]	; (d6c58 <_ZNSt14__shared_countILN9__gnu_cxx12_Lock_policyE0EEC1IPN8particle14BleServiceImplENSt12__shared_ptrIS5_LS1_0EE8_DeleterISaIS5_EEESA_EET_T0_T1_+0x24>)
   d6c4e:	6003      	str	r3, [r0, #0]
	typedef _Sp_ebo_helper<0, _Deleter>	_Del_base;
	typedef _Sp_ebo_helper<1, _Alloc>	_Alloc_base;

      public:
	_Impl(_Ptr __p, _Deleter __d, const _Alloc& __a) noexcept
	: _M_ptr(__p), _Del_base(__d), _Alloc_base(__a)
   d6c50:	6105      	str	r5, [r0, #16]
	    {
	      typename _Sp_cd_type::__allocator_type __a2(__a);
	      auto __guard = std::__allocate_guarded(__a2);
	      _Sp_cd_type* __mem = __guard.get();
	      ::new (__mem) _Sp_cd_type(__p, std::move(__d), std::move(__a));
	      _M_pi = __mem;
   d6c52:	6020      	str	r0, [r4, #0]
	  __catch(...)
	    {
	      __d(__p); // Call _Deleter on __p.
	      __throw_exception_again;
	    }
	}
   d6c54:	4620      	mov	r0, r4
   d6c56:	bd38      	pop	{r3, r4, r5, pc}
   d6c58:	000d84b8 	.word	0x000d84b8

000d6c5c <_ZN8particle10BleServiceC1ERKNS_7BleUuidE>:
    if (!impl()) {
        SPARK_ASSERT(false);
    }
}

BleService::BleService(const BleUuid& uuid)
   d6c5c:	b5f0      	push	{r4, r5, r6, r7, lr}
        };

      template<typename _Alloc, typename... _Args>
	__shared_ptr(_Sp_make_shared_tag __tag, const _Alloc& __a,
		     _Args&&... __args)
	: _M_ptr(), _M_refcount()
   d6c5e:	2600      	movs	r6, #0
   d6c60:	b087      	sub	sp, #28
   d6c62:	6006      	str	r6, [r0, #0]

  template<_Lock_policy _Lp>
    class __shared_count
    {
    public:
      constexpr __shared_count() noexcept : _M_pi(0)
   d6c64:	6046      	str	r6, [r0, #4]
   d6c66:	4604      	mov	r4, r0
   d6c68:	2018      	movs	r0, #24
   d6c6a:	460f      	mov	r7, r1
   d6c6c:	f7fd fa13 	bl	d4096 <_Znwj>
   d6c70:	f8cd d010 	str.w	sp, [sp, #16]
   d6c74:	4605      	mov	r5, r0
   d6c76:	9005      	str	r0, [sp, #20]

#if __cplusplus >= 201103L
      template<typename _Up, typename... _Args>
        void
        construct(_Up* __p, _Args&&... __args)
	{ ::new((void *)__p) _Up(std::forward<_Args>(__args)...); }
   d6c78:	b138      	cbz	r0, d6c8a <_ZN8particle10BleServiceC1ERKNS_7BleUuidE+0x2e>
class BleServiceImpl {
public:
    BleServiceImpl()
            : uuid_(),
              startHandle_(BLE_INVALID_ATTR_HANDLE),
              endHandle_(BLE_INVALID_ATTR_HANDLE) {
   d6c7a:	f7ff f941 	bl	d5f00 <_ZN8particle7BleUuidC1Ev>
    }

    BleServiceImpl(const BleUuid& svcUuid)
            : BleServiceImpl() {
        uuid_ = svcUuid;
   d6c7e:	4639      	mov	r1, r7
   d6c80:	4628      	mov	r0, r5
class BleServiceImpl {
public:
    BleServiceImpl()
            : uuid_(),
              startHandle_(BLE_INVALID_ATTR_HANDLE),
              endHandle_(BLE_INVALID_ATTR_HANDLE) {
   d6c82:	82ae      	strh	r6, [r5, #20]
   d6c84:	82ee      	strh	r6, [r5, #22]
    }

    BleServiceImpl(const BleUuid& svcUuid)
            : BleServiceImpl() {
        uuid_ = svcUuid;
   d6c86:	f7ff f9b9 	bl	d5ffc <_ZN8particle7BleUuidaSERKS0_>

      /// Release ownership of the owned pointer
      __allocated_ptr&
      operator=(std::nullptr_t) noexcept
      {
	_M_ptr = nullptr;
   d6c8a:	2300      	movs	r3, #0
	  // _GLIBCXX_RESOLVE_LIB_DEFECTS
	  // 2070. allocate_shared should use allocator_traits<A>::construct
	  __traits::construct(__del._M_alloc, __ptr,
			      std::forward<_Args>(__args)...);
	  __guard = nullptr;
	  __shared_count<_Lp> __count(__ptr, __del, __del._M_alloc);
   d6c8c:	4629      	mov	r1, r5
   d6c8e:	9305      	str	r3, [sp, #20]
   d6c90:	aa02      	add	r2, sp, #8
   d6c92:	ab01      	add	r3, sp, #4
   d6c94:	a803      	add	r0, sp, #12
   d6c96:	f7ff ffcd 	bl	d6c34 <_ZNSt14__shared_countILN9__gnu_cxx12_Lock_policyE0EEC1IPN8particle14BleServiceImplENSt12__shared_ptrIS5_LS1_0EE8_DeleterISaIS5_EEESA_EET_T0_T1_>
      }

      void
      _M_swap(__shared_count& __r) noexcept
      {
	_Sp_counted_base<_Lp>* __tmp = __r._M_pi;
   d6c9a:	9b03      	ldr	r3, [sp, #12]
	__r._M_pi = _M_pi;
   d6c9c:	6862      	ldr	r2, [r4, #4]
	  __traits::construct(__del._M_alloc, __ptr,
			      std::forward<_Args>(__args)...);
	  __guard = nullptr;
	  __shared_count<_Lp> __count(__ptr, __del, __del._M_alloc);
	  _M_refcount._M_swap(__count);
	  _M_ptr = __ptr;
   d6c9e:	6025      	str	r5, [r4, #0]
      void
      _M_swap(__shared_count& __r) noexcept
      {
	_Sp_counted_base<_Lp>* __tmp = __r._M_pi;
	__r._M_pi = _M_pi;
	_M_pi = __tmp;
   d6ca0:	6063      	str	r3, [r4, #4]
	  // _GLIBCXX_RESOLVE_LIB_DEFECTS
	  // 2070. allocate_shared should use allocator_traits<A>::construct
	  __traits::construct(__del._M_alloc, __ptr,
			      std::forward<_Args>(__args)...);
	  __guard = nullptr;
	  __shared_count<_Lp> __count(__ptr, __del, __del._M_alloc);
   d6ca2:	a803      	add	r0, sp, #12

      void
      _M_swap(__shared_count& __r) noexcept
      {
	_Sp_counted_base<_Lp>* __tmp = __r._M_pi;
	__r._M_pi = _M_pi;
   d6ca4:	9203      	str	r2, [sp, #12]
	  // _GLIBCXX_RESOLVE_LIB_DEFECTS
	  // 2070. allocate_shared should use allocator_traits<A>::construct
	  __traits::construct(__del._M_alloc, __ptr,
			      std::forward<_Args>(__args)...);
	  __guard = nullptr;
	  __shared_count<_Lp> __count(__ptr, __del, __del._M_alloc);
   d6ca6:	f7ff fc71 	bl	d658c <_ZNSt14__shared_countILN9__gnu_cxx12_Lock_policyE0EED1Ev>
	: _M_ptr(), _M_refcount()
	{
	  typedef typename allocator_traits<_Alloc>::template
	    rebind_traits<typename std::remove_cv<_Tp>::type> __traits;
	  _Deleter<typename __traits::allocator_type> __del = { __a };
	  auto __guard = std::__allocate_guarded(__del._M_alloc);
   d6caa:	a804      	add	r0, sp, #16
   d6cac:	f7ff ffae 	bl	d6c0c <_ZNSt15__allocated_ptrISaIN8particle14BleServiceImplEEED1Ev>
    }
}

BleService::BleService(const BleUuid& uuid)
        : impl_(std::make_shared<BleServiceImpl>(uuid)) {
    if (!impl()) {
   d6cb0:	6823      	ldr	r3, [r4, #0]
   d6cb2:	b90b      	cbnz	r3, d6cb8 <_ZN8particle10BleServiceC1ERKNS_7BleUuidE+0x5c>
   d6cb4:	f7ff f8cc 	bl	d5e50 <_ZN8particle10BleServiceC2ERKNS_7BleUuidE.part.102>
        SPARK_ASSERT(false);
    }
}
   d6cb8:	4620      	mov	r0, r4
   d6cba:	b007      	add	sp, #28
   d6cbc:	bdf0      	pop	{r4, r5, r6, r7, pc}
	...

000d6cc0 <_ZN8particle14BleLocalDevice17addCharacteristicERKNS_17BleCharacteristicE>:
        p.disconnect();
    }
    return SYSTEM_ERROR_NONE;
}

BleCharacteristic BleLocalDevice::addCharacteristic(const BleCharacteristic& characteristic) {
   d6cc0:	e92d 4ff0 	stmdb	sp!, {r4, r5, r6, r7, r8, r9, sl, fp, lr}
   d6cc4:	4617      	mov	r7, r2
   d6cc6:	b0a1      	sub	sp, #132	; 0x84
   d6cc8:	4680      	mov	r8, r0
    WiringBleLock lk;
   d6cca:	a80a      	add	r0, sp, #40	; 0x28
        p.disconnect();
    }
    return SYSTEM_ERROR_NONE;
}

BleCharacteristic BleLocalDevice::addCharacteristic(const BleCharacteristic& characteristic) {
   d6ccc:	460e      	mov	r6, r1
    WiringBleLock lk;
   d6cce:	f7ff f8ef 	bl	d5eb0 <_ZN8particle3ble13WiringBleLockC1Ev>
   d6cd2:	683c      	ldr	r4, [r7, #0]
    auto charImpl = characteristic.impl();
    if (charImpl->properties() == BleCharacteristicProperty::NONE) {
   d6cd4:	7923      	ldrb	r3, [r4, #4]
   d6cd6:	2b00      	cmp	r3, #0
   d6cd8:	f000 80de 	beq.w	d6e98 <_ZN8particle14BleLocalDevice17addCharacteristicERKNS_17BleCharacteristicE+0x1d8>
      }

      /// Return the stored pointer.
      pointer
      get() const noexcept
      { return std::get<0>(_M_t); }
   d6cdc:	6833      	ldr	r3, [r6, #0]
   d6cde:	68dd      	ldr	r5, [r3, #12]
    return data_;
}

template<typename T, typename AllocatorT>
T* spark::Vector<T, AllocatorT>::end() {
    return data_ + size_;
   d6ce0:	691b      	ldr	r3, [r3, #16]
   d6ce2:	eb05 03c3 	add.w	r3, r5, r3, lsl #3
   d6ce6:	9303      	str	r3, [sp, #12]
    }

    BleCharacteristicImpl& operator=(const BleCharacteristicImpl& charImpl) = delete;

    bool operator==(const BleCharacteristicImpl& impl) {
        if (charUuid_ == impl.charUuid_ &&
   d6ce8:	f104 0a14 	add.w	sl, r4, #20
                svcUuid_ == impl.svcUuid_ &&
   d6cec:	f104 0b28 	add.w	fp, r4, #40	; 0x28
    WiringBleLock lk;
    auto charImpl = characteristic.impl();
    if (charImpl->properties() == BleCharacteristicProperty::NONE) {
        return characteristic;
    }
    for (const auto& existChar : impl()->characteristics()) {
   d6cf0:	9b03      	ldr	r3, [sp, #12]
   d6cf2:	42ab      	cmp	r3, r5
   d6cf4:	d023      	beq.n	d6d3e <_ZN8particle14BleLocalDevice17addCharacteristicERKNS_17BleCharacteristicE+0x7e>
   d6cf6:	f8d5 9000 	ldr.w	r9, [r5]
    }

    BleCharacteristicImpl& operator=(const BleCharacteristicImpl& charImpl) = delete;

    bool operator==(const BleCharacteristicImpl& impl) {
        if (charUuid_ == impl.charUuid_ &&
   d6cfa:	4650      	mov	r0, sl
   d6cfc:	f109 0114 	add.w	r1, r9, #20
   d6d00:	f7ff f996 	bl	d6030 <_ZNK8particle7BleUuideqERKS0_>
                svcUuid_ == impl.svcUuid_ &&
                isLocal_ == impl.isLocal_ &&
   d6d04:	2800      	cmp	r0, #0
   d6d06:	f000 80cc 	beq.w	d6ea2 <_ZN8particle14BleLocalDevice17addCharacteristicERKNS_17BleCharacteristicE+0x1e2>

    BleCharacteristicImpl& operator=(const BleCharacteristicImpl& charImpl) = delete;

    bool operator==(const BleCharacteristicImpl& impl) {
        if (charUuid_ == impl.charUuid_ &&
                svcUuid_ == impl.svcUuid_ &&
   d6d0a:	f109 0128 	add.w	r1, r9, #40	; 0x28
   d6d0e:	4658      	mov	r0, fp
   d6d10:	f7ff f98e 	bl	d6030 <_ZNK8particle7BleUuideqERKS0_>
    }

    BleCharacteristicImpl& operator=(const BleCharacteristicImpl& charImpl) = delete;

    bool operator==(const BleCharacteristicImpl& impl) {
        if (charUuid_ == impl.charUuid_ &&
   d6d14:	2800      	cmp	r0, #0
   d6d16:	f000 80c4 	beq.w	d6ea2 <_ZN8particle14BleLocalDevice17addCharacteristicERKNS_17BleCharacteristicE+0x1e2>
                svcUuid_ == impl.svcUuid_ &&
                isLocal_ == impl.isLocal_ &&
   d6d1a:	6823      	ldr	r3, [r4, #0]
   d6d1c:	f423 417f 	bic.w	r1, r3, #65280	; 0xff00
   d6d20:	f8d9 3000 	ldr.w	r3, [r9]
   d6d24:	f423 437f 	bic.w	r3, r3, #65280	; 0xff00
   d6d28:	4299      	cmp	r1, r3
   d6d2a:	f040 80ba 	bne.w	d6ea2 <_ZN8particle14BleLocalDevice17addCharacteristicERKNS_17BleCharacteristicE+0x1e2>
    if (charImpl->properties() == BleCharacteristicProperty::NONE) {
        return characteristic;
    }
    for (const auto& existChar : impl()->characteristics()) {
        if (*charImpl == *existChar.impl()) {
            LOG(ERROR, "Duplicated characteristic cannot be added.");
   d6d2e:	2320      	movs	r3, #32
   d6d30:	4a60      	ldr	r2, [pc, #384]	; (d6eb4 <_ZN8particle14BleLocalDevice17addCharacteristicERKNS_17BleCharacteristicE+0x1f4>)
   d6d32:	9315      	str	r3, [sp, #84]	; 0x54
   d6d34:	2300      	movs	r3, #0
   d6d36:	9200      	str	r2, [sp, #0]
   d6d38:	9316      	str	r3, [sp, #88]	; 0x58
   d6d3a:	aa15      	add	r2, sp, #84	; 0x54
   d6d3c:	e0a8      	b.n	d6e90 <_ZN8particle14BleLocalDevice17addCharacteristicERKNS_17BleCharacteristicE+0x1d0>
    BleUuid& charUUID() {
        return charUuid_;
    }

    BleUuid& svcUUID() {
        return svcUuid_;
   d6d3e:	f104 0928 	add.w	r9, r4, #40	; 0x28
            return characteristic;
        }
    }
    // If the service that the characteristic belongs to is not specified,
    // put the characteristic to the default service.
    if (!charImpl->svcUUID().isValid()) {
   d6d42:	4648      	mov	r0, r9
   d6d44:	f7ff f926 	bl	d5f94 <_ZNK8particle7BleUuid7isValidEv>
   d6d48:	b918      	cbnz	r0, d6d52 <_ZN8particle14BleLocalDevice17addCharacteristicERKNS_17BleCharacteristicE+0x92>
        LOG_DEBUG(TRACE, "Assign default service UUID.");
        charImpl->svcUUID() = PARTICLE_DEFAULT_BLE_SVC_UUID;
   d6d4a:	495b      	ldr	r1, [pc, #364]	; (d6eb8 <_ZN8particle14BleLocalDevice17addCharacteristicERKNS_17BleCharacteristicE+0x1f8>)
   d6d4c:	4648      	mov	r0, r9
   d6d4e:	f7ff f962 	bl	d6016 <_ZN8particle7BleUuidaSEPKh>
   d6d52:	6833      	ldr	r3, [r6, #0]
   d6d54:	681d      	ldr	r5, [r3, #0]
   d6d56:	685b      	ldr	r3, [r3, #4]
   d6d58:	eb05 0ac3 	add.w	sl, r5, r3, lsl #3
    }
    BleService* service = nullptr;
    for (auto& svc : impl()->services()) {
   d6d5c:	4555      	cmp	r5, sl
            break;
        }
    }
    // Add service as needed.
    if (!service) {
        BleService svc(charImpl->svcUUID());
   d6d5e:	4649      	mov	r1, r9
    if (!charImpl->svcUUID().isValid()) {
        LOG_DEBUG(TRACE, "Assign default service UUID.");
        charImpl->svcUUID() = PARTICLE_DEFAULT_BLE_SVC_UUID;
    }
    BleService* service = nullptr;
    for (auto& svc : impl()->services()) {
   d6d60:	d005      	beq.n	d6d6e <_ZN8particle14BleLocalDevice17addCharacteristicERKNS_17BleCharacteristicE+0xae>
        if (svc.impl()->UUID() == charImpl->svcUUID()) {
   d6d62:	6828      	ldr	r0, [r5, #0]
   d6d64:	f7ff f964 	bl	d6030 <_ZNK8particle7BleUuideqERKS0_>
   d6d68:	bb58      	cbnz	r0, d6dc2 <_ZN8particle14BleLocalDevice17addCharacteristicERKNS_17BleCharacteristicE+0x102>
    if (!charImpl->svcUUID().isValid()) {
        LOG_DEBUG(TRACE, "Assign default service UUID.");
        charImpl->svcUUID() = PARTICLE_DEFAULT_BLE_SVC_UUID;
    }
    BleService* service = nullptr;
    for (auto& svc : impl()->services()) {
   d6d6a:	3508      	adds	r5, #8
   d6d6c:	e7f6      	b.n	d6d5c <_ZN8particle14BleLocalDevice17addCharacteristicERKNS_17BleCharacteristicE+0x9c>
            break;
        }
    }
    // Add service as needed.
    if (!service) {
        BleService svc(charImpl->svcUUID());
   d6d6e:	a80b      	add	r0, sp, #44	; 0x2c
   d6d70:	f7ff ff74 	bl	d6c5c <_ZN8particle10BleServiceC1ERKNS_7BleUuidE>
        hal_ble_uuid_t halUuid = charImpl->svcUUID().halUUID();
   d6d74:	4649      	mov	r1, r9
   d6d76:	a815      	add	r0, sp, #84	; 0x54
   d6d78:	f7ff f91e 	bl	d5fb8 <_ZN8particle7BleUuid7halUUIDEv>
        if (hal_ble_gatt_server_add_service(BLE_SERVICE_TYPE_PRIMARY, &halUuid, &svc.impl()->startHandle(), nullptr) != SYSTEM_ERROR_NONE) {
   d6d7c:	9a0b      	ldr	r2, [sp, #44]	; 0x2c
   d6d7e:	2300      	movs	r3, #0
   d6d80:	3214      	adds	r2, #20
   d6d82:	a915      	add	r1, sp, #84	; 0x54
   d6d84:	2001      	movs	r0, #1
   d6d86:	f7fe fccb 	bl	d5720 <hal_ble_gatt_server_add_service>
   d6d8a:	2800      	cmp	r0, #0
   d6d8c:	d178      	bne.n	d6e80 <_ZN8particle14BleLocalDevice17addCharacteristicERKNS_17BleCharacteristicE+0x1c0>
    }

    ~BleLocalDeviceImpl() = default;

    Vector<BleService>& services() {
        return services_;
   d6d8e:	6835      	ldr	r5, [r6, #0]
   d6d90:	a90b      	add	r1, sp, #44	; 0x2c
   d6d92:	a80d      	add	r0, sp, #52	; 0x34
   d6d94:	f7ff fbf0 	bl	d6578 <_ZNSt12__shared_ptrIN8particle14BleServiceImplELN9__gnu_cxx12_Lock_policyE0EEC1ERKS4_>
        BleService svc(charImpl->svcUUID());
        hal_ble_uuid_t halUuid = charImpl->svcUUID().halUUID();
        if (hal_ble_gatt_server_add_service(BLE_SERVICE_TYPE_PRIMARY, &halUuid, &svc.impl()->startHandle(), nullptr) != SYSTEM_ERROR_NONE) {
            return characteristic;
        }
        if(!impl()->services().append(svc)) {
   d6d98:	4628      	mov	r0, r5
   d6d9a:	a90d      	add	r1, sp, #52	; 0x34
   d6d9c:	f7ff fe19 	bl	d69d2 <_ZN5spark6VectorIN8particle10BleServiceENS_16DefaultAllocatorEE6appendES2_>
   d6da0:	4605      	mov	r5, r0
	: _M_ptr(__p), _M_refcount(__r._M_refcount) // never throws
	{ }

      __shared_ptr(const __shared_ptr&) noexcept = default;
      __shared_ptr& operator=(const __shared_ptr&) noexcept = default;
      ~__shared_ptr() = default;
   d6da2:	a80e      	add	r0, sp, #56	; 0x38
   d6da4:	f7ff fbf2 	bl	d658c <_ZNSt14__shared_countILN9__gnu_cxx12_Lock_policyE0EED1Ev>
   d6da8:	2d00      	cmp	r5, #0
   d6daa:	d069      	beq.n	d6e80 <_ZN8particle14BleLocalDevice17addCharacteristicERKNS_17BleCharacteristicE+0x1c0>
   d6dac:	6832      	ldr	r2, [r6, #0]
    return data_[0];
}

template<typename T, typename AllocatorT>
inline T& spark::Vector<T, AllocatorT>::last() {
    return data_[size_ - 1];
   d6dae:	6855      	ldr	r5, [r2, #4]
   d6db0:	f105 5300 	add.w	r3, r5, #536870912	; 0x20000000
   d6db4:	6815      	ldr	r5, [r2, #0]
   d6db6:	3b01      	subs	r3, #1
   d6db8:	a80c      	add	r0, sp, #48	; 0x30
   d6dba:	eb05 05c3 	add.w	r5, r5, r3, lsl #3
   d6dbe:	f7ff fbe5 	bl	d658c <_ZNSt14__shared_countILN9__gnu_cxx12_Lock_policyE0EED1Ev>
            context_ = charImpl.context_;
        }
    }

    void assignUuidIfNeeded() {
        if (!charUuid_.isValid()) {
   d6dc2:	f104 0914 	add.w	r9, r4, #20
   d6dc6:	4648      	mov	r0, r9
   d6dc8:	f7ff f8e4 	bl	d5f94 <_ZNK8particle7BleUuid7isValidEv>
   d6dcc:	b968      	cbnz	r0, d6dea <_ZN8particle14BleLocalDevice17addCharacteristicERKNS_17BleCharacteristicE+0x12a>
            LOG_DEBUG(TRACE, "Assign default characteristic UUID.");
            defaultUuidCharCount_++;
   d6dce:	4b3b      	ldr	r3, [pc, #236]	; (d6ebc <_ZN8particle14BleLocalDevice17addCharacteristicERKNS_17BleCharacteristicE+0x1fc>)
            BleUuid newUuid(PARTICLE_DEFAULT_BLE_SVC_UUID, defaultUuidCharCount_);
   d6dd0:	4939      	ldr	r1, [pc, #228]	; (d6eb8 <_ZN8particle14BleLocalDevice17addCharacteristicERKNS_17BleCharacteristicE+0x1f8>)
    }

    void assignUuidIfNeeded() {
        if (!charUuid_.isValid()) {
            LOG_DEBUG(TRACE, "Assign default characteristic UUID.");
            defaultUuidCharCount_++;
   d6dd2:	881a      	ldrh	r2, [r3, #0]
   d6dd4:	3201      	adds	r2, #1
   d6dd6:	b292      	uxth	r2, r2
   d6dd8:	801a      	strh	r2, [r3, #0]
            BleUuid newUuid(PARTICLE_DEFAULT_BLE_SVC_UUID, defaultUuidCharCount_);
   d6dda:	a815      	add	r0, sp, #84	; 0x54
   d6ddc:	2301      	movs	r3, #1
   d6dde:	f7ff f8cd 	bl	d5f7c <_ZN8particle7BleUuidC1EPKhtNS_12BleUuidOrderE>
            charUuid_ = newUuid;
   d6de2:	a915      	add	r1, sp, #84	; 0x54
   d6de4:	4648      	mov	r0, r9
   d6de6:	f7ff f909 	bl	d5ffc <_ZN8particle7BleUuidaSERKS0_>
            return characteristic;
        }
        service = &impl()->services().last();
    }
    charImpl->assignUuidIfNeeded();
    hal_ble_char_init_t charInit = {};
   d6dea:	f04f 0a2c 	mov.w	sl, #44	; 0x2c
   d6dee:	4652      	mov	r2, sl
   d6df0:	2100      	movs	r1, #0
   d6df2:	a815      	add	r0, sp, #84	; 0x54
   d6df4:	f001 f80b 	bl	d7e0e <memset>
    charInit.version = BLE_API_VERSION;
   d6df8:	2301      	movs	r3, #1
    charInit.size = sizeof(hal_ble_char_init_t);
    charInit.uuid = charImpl->charUUID().halUUID();
   d6dfa:	4649      	mov	r1, r9
   d6dfc:	a804      	add	r0, sp, #16
        }
        service = &impl()->services().last();
    }
    charImpl->assignUuidIfNeeded();
    hal_ble_char_init_t charInit = {};
    charInit.version = BLE_API_VERSION;
   d6dfe:	f8ad 3054 	strh.w	r3, [sp, #84]	; 0x54
    charInit.size = sizeof(hal_ble_char_init_t);
   d6e02:	f8ad a056 	strh.w	sl, [sp, #86]	; 0x56
    charInit.uuid = charImpl->charUUID().halUUID();
   d6e06:	f7ff f8d7 	bl	d5fb8 <_ZN8particle7BleUuid7halUUIDEv>
   d6e0a:	ab04      	add	r3, sp, #16
   d6e0c:	aa18      	add	r2, sp, #96	; 0x60
   d6e0e:	f10d 0c20 	add.w	ip, sp, #32
   d6e12:	6818      	ldr	r0, [r3, #0]
   d6e14:	6859      	ldr	r1, [r3, #4]
   d6e16:	4696      	mov	lr, r2
   d6e18:	e8ae 0003 	stmia.w	lr!, {r0, r1}
   d6e1c:	3308      	adds	r3, #8
   d6e1e:	4563      	cmp	r3, ip
   d6e20:	4672      	mov	r2, lr
   d6e22:	d1f6      	bne.n	d6e12 <_ZN8particle14BleLocalDevice17addCharacteristicERKNS_17BleCharacteristicE+0x152>
   d6e24:	6818      	ldr	r0, [r3, #0]
   d6e26:	f8ce 0000 	str.w	r0, [lr]
    return *this;
}

template<typename T>
inline typename std::underlying_type_t<T> particle::EnumFlags<T, typename std::enable_if_t<std::is_enum<T>::value>>::value() const {
    return value_;
   d6e2a:	7923      	ldrb	r3, [r4, #4]
    charInit.properties = charImpl->properties().value();
   d6e2c:	f88d 3058 	strb.w	r3, [sp, #88]	; 0x58
    charInit.service_handle = service->impl()->startHandle();
   d6e30:	682b      	ldr	r3, [r5, #0]
   d6e32:	8a9b      	ldrh	r3, [r3, #20]
   d6e34:	f8ad 3074 	strh.w	r3, [sp, #116]	; 0x74
    charInit.description = charImpl->description().c_str();
   d6e38:	6be3      	ldr	r3, [r4, #60]	; 0x3c
   d6e3a:	9317      	str	r3, [sp, #92]	; 0x5c
    charInit.callback = charImpl->onBleCharEvents;
    charInit.context = charImpl;
    if (hal_ble_gatt_server_add_characteristic(&charInit, &charImpl->attrHandles(), nullptr) != SYSTEM_ERROR_NONE) {
   d6e3c:	2200      	movs	r2, #0
    charInit.size = sizeof(hal_ble_char_init_t);
    charInit.uuid = charImpl->charUUID().halUUID();
    charInit.properties = charImpl->properties().value();
    charInit.service_handle = service->impl()->startHandle();
    charInit.description = charImpl->description().c_str();
    charInit.callback = charImpl->onBleCharEvents;
   d6e3e:	4b20      	ldr	r3, [pc, #128]	; (d6ec0 <_ZN8particle14BleLocalDevice17addCharacteristicERKNS_17BleCharacteristicE+0x200>)
   d6e40:	931e      	str	r3, [sp, #120]	; 0x78
    charInit.context = charImpl;
    if (hal_ble_gatt_server_add_characteristic(&charInit, &charImpl->attrHandles(), nullptr) != SYSTEM_ERROR_NONE) {
   d6e42:	1da1      	adds	r1, r4, #6
   d6e44:	a815      	add	r0, sp, #84	; 0x54
    charInit.uuid = charImpl->charUUID().halUUID();
    charInit.properties = charImpl->properties().value();
    charInit.service_handle = service->impl()->startHandle();
    charInit.description = charImpl->description().c_str();
    charInit.callback = charImpl->onBleCharEvents;
    charInit.context = charImpl;
   d6e46:	941f      	str	r4, [sp, #124]	; 0x7c
    if (hal_ble_gatt_server_add_characteristic(&charInit, &charImpl->attrHandles(), nullptr) != SYSTEM_ERROR_NONE) {
   d6e48:	f7fe fc92 	bl	d5770 <hal_ble_gatt_server_add_characteristic>
   d6e4c:	bb20      	cbnz	r0, d6e98 <_ZN8particle14BleLocalDevice17addCharacteristicERKNS_17BleCharacteristicE+0x1d8>
        return characteristic;
    }
    charImpl->local() = true;
   d6e4e:	2301      	movs	r3, #1
   d6e50:	7023      	strb	r3, [r4, #0]
    Vector<BleService>& services() {
        return services_;
    }

    Vector<BleCharacteristic>& characteristics() {
        return characteristics_;
   d6e52:	6834      	ldr	r4, [r6, #0]
    if (hal_ble_gatt_server_add_characteristic(&charInit, &charImpl->attrHandles(), nullptr) != SYSTEM_ERROR_NONE) {
        return characteristic;
    }
    charImpl->local() = true;
    LOG_DEBUG(TRACE, "Add new local characteristic.");
    if(!impl()->characteristics().append(characteristic)) {
   d6e54:	4639      	mov	r1, r7
    Vector<BleService>& services() {
        return services_;
    }

    Vector<BleCharacteristic>& characteristics() {
        return characteristics_;
   d6e56:	340c      	adds	r4, #12
    if (hal_ble_gatt_server_add_characteristic(&charInit, &charImpl->attrHandles(), nullptr) != SYSTEM_ERROR_NONE) {
        return characteristic;
    }
    charImpl->local() = true;
    LOG_DEBUG(TRACE, "Add new local characteristic.");
    if(!impl()->characteristics().append(characteristic)) {
   d6e58:	a80d      	add	r0, sp, #52	; 0x34
   d6e5a:	f7ff fb7f 	bl	d655c <_ZN8particle17BleCharacteristicC1ERKS0_>
   d6e5e:	4620      	mov	r0, r4
   d6e60:	a90d      	add	r1, sp, #52	; 0x34
   d6e62:	f7ff fe23 	bl	d6aac <_ZN5spark6VectorIN8particle17BleCharacteristicENS_16DefaultAllocatorEE6appendES2_>
   d6e66:	4604      	mov	r4, r0
   d6e68:	a80e      	add	r0, sp, #56	; 0x38
   d6e6a:	f7ff fb8f 	bl	d658c <_ZNSt14__shared_countILN9__gnu_cxx12_Lock_policyE0EED1Ev>
   d6e6e:	b99c      	cbnz	r4, d6e98 <_ZN8particle14BleLocalDevice17addCharacteristicERKNS_17BleCharacteristicE+0x1d8>
        LOG(ERROR, "Failed to append local characteristic.");
   d6e70:	2320      	movs	r3, #32
   d6e72:	930d      	str	r3, [sp, #52]	; 0x34
   d6e74:	4b13      	ldr	r3, [pc, #76]	; (d6ec4 <_ZN8particle14BleLocalDevice17addCharacteristicERKNS_17BleCharacteristicE+0x204>)
   d6e76:	9300      	str	r3, [sp, #0]
   d6e78:	940e      	str	r4, [sp, #56]	; 0x38
   d6e7a:	4623      	mov	r3, r4
   d6e7c:	aa0d      	add	r2, sp, #52	; 0x34
   d6e7e:	e007      	b.n	d6e90 <_ZN8particle14BleLocalDevice17addCharacteristicERKNS_17BleCharacteristicE+0x1d0>
    // Add service as needed.
    if (!service) {
        BleService svc(charImpl->svcUUID());
        hal_ble_uuid_t halUuid = charImpl->svcUUID().halUUID();
        if (hal_ble_gatt_server_add_service(BLE_SERVICE_TYPE_PRIMARY, &halUuid, &svc.impl()->startHandle(), nullptr) != SYSTEM_ERROR_NONE) {
            return characteristic;
   d6e80:	4639      	mov	r1, r7
   d6e82:	4640      	mov	r0, r8
   d6e84:	f7ff fb6a 	bl	d655c <_ZN8particle17BleCharacteristicC1ERKS0_>
   d6e88:	a80c      	add	r0, sp, #48	; 0x30
   d6e8a:	f7ff fb7f 	bl	d658c <_ZNSt14__shared_countILN9__gnu_cxx12_Lock_policyE0EED1Ev>
   d6e8e:	e00a      	b.n	d6ea6 <_ZN8particle14BleLocalDevice17addCharacteristicERKNS_17BleCharacteristicE+0x1e6>
    if (charImpl->properties() == BleCharacteristicProperty::NONE) {
        return characteristic;
    }
    for (const auto& existChar : impl()->characteristics()) {
        if (*charImpl == *existChar.impl()) {
            LOG(ERROR, "Duplicated characteristic cannot be added.");
   d6e90:	490d      	ldr	r1, [pc, #52]	; (d6ec8 <_ZN8particle14BleLocalDevice17addCharacteristicERKNS_17BleCharacteristicE+0x208>)
   d6e92:	2032      	movs	r0, #50	; 0x32
   d6e94:	f7fe fdd4 	bl	d5a40 <log_message>
            return characteristic;
   d6e98:	4639      	mov	r1, r7
   d6e9a:	4640      	mov	r0, r8
   d6e9c:	f7ff fb5e 	bl	d655c <_ZN8particle17BleCharacteristicC1ERKS0_>
   d6ea0:	e001      	b.n	d6ea6 <_ZN8particle14BleLocalDevice17addCharacteristicERKNS_17BleCharacteristicE+0x1e6>
   d6ea2:	3508      	adds	r5, #8
    WiringBleLock lk;
    auto charImpl = characteristic.impl();
    if (charImpl->properties() == BleCharacteristicProperty::NONE) {
        return characteristic;
    }
    for (const auto& existChar : impl()->characteristics()) {
   d6ea4:	e724      	b.n	d6cf0 <_ZN8particle14BleLocalDevice17addCharacteristicERKNS_17BleCharacteristicE+0x30>
    }
    return SYSTEM_ERROR_NONE;
}

BleCharacteristic BleLocalDevice::addCharacteristic(const BleCharacteristic& characteristic) {
    WiringBleLock lk;
   d6ea6:	a80a      	add	r0, sp, #40	; 0x28
   d6ea8:	f7ff f810 	bl	d5ecc <_ZN8particle3ble13WiringBleLockD1Ev>
    LOG_DEBUG(TRACE, "Add new local characteristic.");
    if(!impl()->characteristics().append(characteristic)) {
        LOG(ERROR, "Failed to append local characteristic.");
    }
    return characteristic;
}
   d6eac:	4640      	mov	r0, r8
   d6eae:	b021      	add	sp, #132	; 0x84
   d6eb0:	e8bd 8ff0 	ldmia.w	sp!, {r4, r5, r6, r7, r8, r9, sl, fp, pc}
   d6eb4:	000d866d 	.word	0x000d866d
   d6eb8:	000d84e8 	.word	0x000d84e8
   d6ebc:	2003e3d8 	.word	0x2003e3d8
   d6ec0:	000d6469 	.word	0x000d6469
   d6ec4:	000d8646 	.word	0x000d8646
   d6ec8:	000d84f8 	.word	0x000d84f8

000d6ecc <_GLOBAL__sub_I__ZN8particle3ble13WiringBleLock6mutex_E>:
BleCharacteristic BleLocalDevice::addCharacteristic(const String& desc, EnumFlags<BleCharacteristicProperty> properties, BleOnDataReceivedCallback callback, void* context) {
    WiringBleLock lk;
    return addCharacteristic(desc.c_str(), properties, callback, context);
}

} /* namespace particle */
   d6ecc:	b510      	push	{r4, lr}
    /**
     * Creates a shared mutex.
     */
    RecursiveMutex(os_mutex_recursive_t handle) : handle_(handle) {}

    RecursiveMutex() : handle_(nullptr)
   d6ece:	4c06      	ldr	r4, [pc, #24]	; (d6ee8 <_GLOBAL__sub_I__ZN8particle3ble13WiringBleLock6mutex_E+0x1c>)
   d6ed0:	2300      	movs	r3, #0
    {
        os_mutex_recursive_create(&handle_);
   d6ed2:	4620      	mov	r0, r4
    /**
     * Creates a shared mutex.
     */
    RecursiveMutex(os_mutex_recursive_t handle) : handle_(handle) {}

    RecursiveMutex() : handle_(nullptr)
   d6ed4:	6023      	str	r3, [r4, #0]
    {
        os_mutex_recursive_create(&handle_);
   d6ed6:	f7fe fc8b 	bl	d57f0 <os_mutex_recursive_create>
private:
    bool locked_;
    static RecursiveMutex mutex_;
};

RecursiveMutex WiringBleLock::mutex_;
   d6eda:	4620      	mov	r0, r4
   d6edc:	4a03      	ldr	r2, [pc, #12]	; (d6eec <_GLOBAL__sub_I__ZN8particle3ble13WiringBleLock6mutex_E+0x20>)
   d6ede:	4904      	ldr	r1, [pc, #16]	; (d6ef0 <_GLOBAL__sub_I__ZN8particle3ble13WiringBleLock6mutex_E+0x24>)
BleCharacteristic BleLocalDevice::addCharacteristic(const String& desc, EnumFlags<BleCharacteristicProperty> properties, BleOnDataReceivedCallback callback, void* context) {
    WiringBleLock lk;
    return addCharacteristic(desc.c_str(), properties, callback, context);
}

} /* namespace particle */
   d6ee0:	e8bd 4010 	ldmia.w	sp!, {r4, lr}
private:
    bool locked_;
    static RecursiveMutex mutex_;
};

RecursiveMutex WiringBleLock::mutex_;
   d6ee4:	f000 bde6 	b.w	d7ab4 <__aeabi_atexit>
   d6ee8:	2003e3dc 	.word	0x2003e3dc
   d6eec:	2003e36c 	.word	0x2003e36c
   d6ef0:	000d5e3f 	.word	0x000d5e3f

000d6ef4 <_ZN5Print5writeEPKhj>:

// Public Methods //////////////////////////////////////////////////////////////

/* default implementation: may be overridden */
size_t Print::write(const uint8_t *buffer, size_t size)
{
   d6ef4:	b5f8      	push	{r3, r4, r5, r6, r7, lr}
   d6ef6:	4606      	mov	r6, r0
   d6ef8:	460d      	mov	r5, r1
   d6efa:	188f      	adds	r7, r1, r2
  size_t n = 0;
   d6efc:	2400      	movs	r4, #0
  while (size--) {
   d6efe:	42bd      	cmp	r5, r7
   d6f00:	d00c      	beq.n	d6f1c <_ZN5Print5writeEPKhj+0x28>
     int chunk = write(*buffer++);
   d6f02:	6833      	ldr	r3, [r6, #0]
   d6f04:	f815 1b01 	ldrb.w	r1, [r5], #1
   d6f08:	689b      	ldr	r3, [r3, #8]
   d6f0a:	4630      	mov	r0, r6
   d6f0c:	4798      	blx	r3
     if (chunk>=0)
   d6f0e:	2800      	cmp	r0, #0
   d6f10:	db01      	blt.n	d6f16 <_ZN5Print5writeEPKhj+0x22>
         n += chunk;
   d6f12:	4404      	add	r4, r0

/* default implementation: may be overridden */
size_t Print::write(const uint8_t *buffer, size_t size)
{
  size_t n = 0;
  while (size--) {
   d6f14:	e7f3      	b.n	d6efe <_ZN5Print5writeEPKhj+0xa>
     int chunk = write(*buffer++);
   d6f16:	2c00      	cmp	r4, #0
   d6f18:	bf08      	it	eq
   d6f1a:	4604      	moveq	r4, r0
             n = chunk;
         break;
     }
  }
  return n;
}
   d6f1c:	4620      	mov	r0, r4
   d6f1e:	bdf8      	pop	{r3, r4, r5, r6, r7, pc}

000d6f20 <_ZN5Print5writeEPKc>:

    int getWriteError() { return write_error; }
    void clearWriteError() { setWriteError(0); }

    virtual size_t write(uint8_t) = 0;
    size_t write(const char *str) {
   d6f20:	b570      	push	{r4, r5, r6, lr}
   d6f22:	4605      	mov	r5, r0
      if (str == NULL) return 0;
   d6f24:	460c      	mov	r4, r1
      return write((const uint8_t *)str, strlen(str));
    }
   d6f26:	4608      	mov	r0, r1
    int getWriteError() { return write_error; }
    void clearWriteError() { setWriteError(0); }

    virtual size_t write(uint8_t) = 0;
    size_t write(const char *str) {
      if (str == NULL) return 0;
   d6f28:	b149      	cbz	r1, d6f3e <_ZN5Print5writeEPKc+0x1e>
      return write((const uint8_t *)str, strlen(str));
   d6f2a:	f000 ffa9 	bl	d7e80 <strlen>
   d6f2e:	682b      	ldr	r3, [r5, #0]
   d6f30:	4602      	mov	r2, r0
   d6f32:	4621      	mov	r1, r4
   d6f34:	4628      	mov	r0, r5
   d6f36:	68db      	ldr	r3, [r3, #12]
    }
   d6f38:	e8bd 4070 	ldmia.w	sp!, {r4, r5, r6, lr}
    void clearWriteError() { setWriteError(0); }

    virtual size_t write(uint8_t) = 0;
    size_t write(const char *str) {
      if (str == NULL) return 0;
      return write((const uint8_t *)str, strlen(str));
   d6f3c:	4718      	bx	r3
    }
   d6f3e:	bd70      	pop	{r4, r5, r6, pc}

000d6f40 <_ZN5Print5printEPKc>:
   d6f40:	b508      	push	{r3, lr}
   d6f42:	f7ff ffed 	bl	d6f20 <_ZN5Print5writeEPKc>
   d6f46:	bd08      	pop	{r3, pc}

000d6f48 <_ZN5Print5printEc>:
  return write(str);
}

size_t Print::print(char c)
{
  return write(c);
   d6f48:	6803      	ldr	r3, [r0, #0]
   d6f4a:	689b      	ldr	r3, [r3, #8]
   d6f4c:	4718      	bx	r3

000d6f4e <_ZN5Print7printlnEv>:
{
  return print(reinterpret_cast<const char*>(str));
}

size_t Print::println(void)
{
   d6f4e:	b538      	push	{r3, r4, r5, lr}
  size_t n = print('\r');
   d6f50:	210d      	movs	r1, #13
{
  return print(reinterpret_cast<const char*>(str));
}

size_t Print::println(void)
{
   d6f52:	4605      	mov	r5, r0
  size_t n = print('\r');
   d6f54:	f7ff fff8 	bl	d6f48 <_ZN5Print5printEc>
  n += print('\n');
   d6f58:	210a      	movs	r1, #10
  return print(reinterpret_cast<const char*>(str));
}

size_t Print::println(void)
{
  size_t n = print('\r');
   d6f5a:	4604      	mov	r4, r0
  n += print('\n');
   d6f5c:	4628      	mov	r0, r5
   d6f5e:	f7ff fff3 	bl	d6f48 <_ZN5Print5printEc>
  return n;
}
   d6f62:	4420      	add	r0, r4
   d6f64:	bd38      	pop	{r3, r4, r5, pc}

000d6f66 <_ZN5Print7printlnEPKc>:

size_t Print::println(const char c[])
{
   d6f66:	b538      	push	{r3, r4, r5, lr}
   d6f68:	4605      	mov	r5, r0
  return n;
}

size_t Print::print(const char str[])
{
  return write(str);
   d6f6a:	f7ff ffd9 	bl	d6f20 <_ZN5Print5writeEPKc>
   d6f6e:	4604      	mov	r4, r0
}

size_t Print::println(const char c[])
{
  size_t n = print(c);
  n += println();
   d6f70:	4628      	mov	r0, r5
   d6f72:	f7ff ffec 	bl	d6f4e <_ZN5Print7printlnEv>
  return n;
}
   d6f76:	4420      	add	r0, r4
   d6f78:	bd38      	pop	{r3, r4, r5, pc}

000d6f7a <_ZN5Print11printNumberEmh>:
  return println(reinterpret_cast<const char*>(str));
}

// Private Methods /////////////////////////////////////////////////////////////

size_t Print::printNumber(unsigned long n, uint8_t base) {
   d6f7a:	b530      	push	{r4, r5, lr}
   d6f7c:	b08b      	sub	sp, #44	; 0x2c
   d6f7e:	460b      	mov	r3, r1
  char buf[8 * sizeof(n) + 1]; // Assumes 8-bit chars plus zero byte.
  char *str = &buf[sizeof(buf) - 1];

  *str = '\0';
   d6f80:	2100      	movs	r1, #0
   d6f82:	f88d 1024 	strb.w	r1, [sp, #36]	; 0x24

  // prevent crash if called with base == 1
  if (base < 2) base = 10;
   d6f86:	2a01      	cmp	r2, #1
   d6f88:	bf98      	it	ls
   d6f8a:	220a      	movls	r2, #10
   d6f8c:	f10d 0423 	add.w	r4, sp, #35	; 0x23

  do {
   decltype(n) m = n;
   n /= base;
   d6f90:	fbb3 f5f2 	udiv	r5, r3, r2
   char c = m - base * n;
   d6f94:	fb05 3312 	mls	r3, r5, r2, r3
   d6f98:	f003 03ff 	and.w	r3, r3, #255	; 0xff
   *--str = c < 10 ? c + '0' : c + 'A' - 10;
   d6f9c:	2b09      	cmp	r3, #9
   d6f9e:	bf94      	ite	ls
   d6fa0:	3330      	addls	r3, #48	; 0x30
   d6fa2:	3337      	addhi	r3, #55	; 0x37
   d6fa4:	b2db      	uxtb	r3, r3
   d6fa6:	4621      	mov	r1, r4
   d6fa8:	f804 3901 	strb.w	r3, [r4], #-1
   d6fac:	462b      	mov	r3, r5
  *str = '\0';

  // prevent crash if called with base == 1
  if (base < 2) base = 10;

  do {
   d6fae:	2d00      	cmp	r5, #0
   d6fb0:	d1ee      	bne.n	d6f90 <_ZN5Print11printNumberEmh+0x16>
   n /= base;
   char c = m - base * n;
   *--str = c < 10 ? c + '0' : c + 'A' - 10;
  } while(n);

  return write(str);
   d6fb2:	f7ff ffb5 	bl	d6f20 <_ZN5Print5writeEPKc>
}
   d6fb6:	b00b      	add	sp, #44	; 0x2c
   d6fb8:	bd30      	pop	{r4, r5, pc}

000d6fba <_ZN5Print11printf_implEbPKcz>:

  return n;
}

size_t Print::printf_impl(bool newline, const char* format, ...)
{
   d6fba:	b40c      	push	{r2, r3}
   d6fbc:	e92d 43f0 	stmdb	sp!, {r4, r5, r6, r7, r8, r9, lr}
   d6fc0:	b087      	sub	sp, #28
   d6fc2:	af00      	add	r7, sp, #0
   d6fc4:	f107 0438 	add.w	r4, r7, #56	; 0x38
   d6fc8:	4605      	mov	r5, r0
   d6fca:	f854 9b04 	ldr.w	r9, [r4], #4
    const int bufsize = 20;
    char test[bufsize];
    va_list marker;
    va_start(marker, format);
   d6fce:	603c      	str	r4, [r7, #0]

  return n;
}

size_t Print::printf_impl(bool newline, const char* format, ...)
{
   d6fd0:	460e      	mov	r6, r1
    const int bufsize = 20;
    char test[bufsize];
    va_list marker;
    va_start(marker, format);
    size_t n = vsnprintf(test, bufsize, format, marker);
   d6fd2:	4623      	mov	r3, r4
   d6fd4:	464a      	mov	r2, r9
   d6fd6:	2114      	movs	r1, #20
   d6fd8:	1d38      	adds	r0, r7, #4
   d6fda:	f7fe fdd5 	bl	d5b88 <vsnprintf>
    va_end(marker);

    if (n<bufsize)
   d6fde:	2813      	cmp	r0, #19
   d6fe0:	d805      	bhi.n	d6fee <_ZN5Print11printf_implEbPKcz+0x34>
  return n;
}

size_t Print::print(const char str[])
{
  return write(str);
   d6fe2:	1d39      	adds	r1, r7, #4
   d6fe4:	4628      	mov	r0, r5
   d6fe6:	f7ff ff9b 	bl	d6f20 <_ZN5Print5writeEPKc>
   d6fea:	4604      	mov	r4, r0
   d6fec:	e013      	b.n	d7016 <_ZN5Print11printf_implEbPKcz+0x5c>
    {
        n = print(test);
    }
    else
    {
        char bigger[n+1];
   d6fee:	f100 0308 	add.w	r3, r0, #8
   d6ff2:	f023 0307 	bic.w	r3, r3, #7
        va_start(marker, format);
        n = vsnprintf(bigger, n+1, format, marker);
        va_end(marker);
        n = print(bigger);
   d6ff6:	46e8      	mov	r8, sp
    {
        n = print(test);
    }
    else
    {
        char bigger[n+1];
   d6ff8:	ebad 0d03 	sub.w	sp, sp, r3
        va_start(marker, format);
        n = vsnprintf(bigger, n+1, format, marker);
   d6ffc:	1c41      	adds	r1, r0, #1
   d6ffe:	4623      	mov	r3, r4
   d7000:	464a      	mov	r2, r9
   d7002:	4668      	mov	r0, sp
        n = print(test);
    }
    else
    {
        char bigger[n+1];
        va_start(marker, format);
   d7004:	603c      	str	r4, [r7, #0]
        n = vsnprintf(bigger, n+1, format, marker);
   d7006:	f7fe fdbf 	bl	d5b88 <vsnprintf>
  return n;
}

size_t Print::print(const char str[])
{
  return write(str);
   d700a:	4669      	mov	r1, sp
   d700c:	4628      	mov	r0, r5
   d700e:	f7ff ff87 	bl	d6f20 <_ZN5Print5writeEPKc>
   d7012:	4604      	mov	r4, r0
   d7014:	46c5      	mov	sp, r8
        va_start(marker, format);
        n = vsnprintf(bigger, n+1, format, marker);
        va_end(marker);
        n = print(bigger);
    }
    if (newline)
   d7016:	b11e      	cbz	r6, d7020 <_ZN5Print11printf_implEbPKcz+0x66>
        n += println();
   d7018:	4628      	mov	r0, r5
   d701a:	f7ff ff98 	bl	d6f4e <_ZN5Print7printlnEv>
   d701e:	4404      	add	r4, r0
    return n;
}
   d7020:	4620      	mov	r0, r4
   d7022:	371c      	adds	r7, #28
   d7024:	46bd      	mov	sp, r7
   d7026:	e8bd 43f0 	ldmia.w	sp!, {r4, r5, r6, r7, r8, r9, lr}
   d702a:	b002      	add	sp, #8
   d702c:	4770      	bx	lr
	...

000d7030 <_GLOBAL__sub_I__ZN5spark3LogE>:
    // This handler doesn't support direct logging
}

// spark::Logger
inline spark::Logger::Logger(const char *name) :
        name_(name) {
   d7030:	4b01      	ldr	r3, [pc, #4]	; (d7038 <_GLOBAL__sub_I__ZN5spark3LogE+0x8>)
   d7032:	4a02      	ldr	r2, [pc, #8]	; (d703c <_GLOBAL__sub_I__ZN5spark3LogE+0xc>)
   d7034:	601a      	str	r2, [r3, #0]
   d7036:	4770      	bx	lr
   d7038:	2003e3e0 	.word	0x2003e3e0
   d703c:	000d871b 	.word	0x000d871b

000d7040 <_GLOBAL__sub_I_TIME_FORMAT_DEFAULT>:
            calendar_time_cache = Convert_UnixTime_To_CalendarTime(unix_time);
            unix_time_cache = unix_time;
    }
}

const char* TimeClass::format_spec = TIME_FORMAT_DEFAULT;
   d7040:	4b02      	ldr	r3, [pc, #8]	; (d704c <_GLOBAL__sub_I_TIME_FORMAT_DEFAULT+0xc>)
   d7042:	681a      	ldr	r2, [r3, #0]
   d7044:	4b02      	ldr	r3, [pc, #8]	; (d7050 <_GLOBAL__sub_I_TIME_FORMAT_DEFAULT+0x10>)
   d7046:	601a      	str	r2, [r3, #0]
   d7048:	4770      	bx	lr
   d704a:	bf00      	nop
   d704c:	2003e304 	.word	0x2003e304
   d7050:	2003e3e4 	.word	0x2003e3e4

000d7054 <delay>:
    return (value - fromStart) * (toEnd - toStart) / (fromEnd - fromStart) + toStart;
}

void delay(unsigned long ms)
{
    system_delay_ms(ms, false);
   d7054:	2100      	movs	r1, #0
   d7056:	f7fe bd03 	b.w	d5a60 <system_delay_ms>

000d705a <_ZNSt14_Function_baseD1Ev>:
	}
      };

    _Function_base() : _M_manager(nullptr) { }

    ~_Function_base()
   d705a:	b510      	push	{r4, lr}
    {
      if (_M_manager)
   d705c:	6883      	ldr	r3, [r0, #8]
	}
      };

    _Function_base() : _M_manager(nullptr) { }

    ~_Function_base()
   d705e:	4604      	mov	r4, r0
    {
      if (_M_manager)
   d7060:	b113      	cbz	r3, d7068 <_ZNSt14_Function_baseD1Ev+0xe>
	_M_manager(_M_functor, _M_functor, __destroy_functor);
   d7062:	2203      	movs	r2, #3
   d7064:	4601      	mov	r1, r0
   d7066:	4798      	blx	r3
    }
   d7068:	4620      	mov	r0, r4
   d706a:	bd10      	pop	{r4, pc}

000d706c <_ZN8RGBClassD1Ev>:
#include "rgbled.h"

typedef void (raw_rgb_change_handler_t)(uint8_t, uint8_t, uint8_t);
typedef std::function<raw_rgb_change_handler_t> wiring_rgb_change_handler_t;

class RGBClass {
   d706c:	b510      	push	{r4, lr}
   d706e:	4604      	mov	r4, r0
   *  @ingroup functors
   *
   *  Polymorphic function wrapper.
   */
  template<typename _Res, typename... _ArgTypes>
    class function<_Res(_ArgTypes...)>
   d7070:	f7ff fff3 	bl	d705a <_ZNSt14_Function_baseD1Ev>
   d7074:	4620      	mov	r0, r4
   d7076:	bd10      	pop	{r4, pc}

000d7078 <_ZN8RGBClass7controlEb>:
{
    return LED_RGB_IsOverRidden();
}

void RGBClass::control(bool override)
{
   d7078:	b510      	push	{r4, lr}
   d707a:	4604      	mov	r4, r0

RGBClass RGB;

bool RGBClass::controlled(void)
{
    return LED_RGB_IsOverRidden();
   d707c:	f7fe fcc8 	bl	d5a10 <LED_RGB_IsOverRidden>
}

void RGBClass::control(bool override)
{
    if (override == controlled()) {
   d7080:	4284      	cmp	r4, r0
   d7082:	d008      	beq.n	d7096 <_ZN8RGBClass7controlEb+0x1e>
        return;
    } else if (override) {
   d7084:	b11c      	cbz	r4, d708e <_ZN8RGBClass7controlEb+0x16>
        LED_Signaling_Start();
    } else {
        LED_Signaling_Stop();
    }
}
   d7086:	e8bd 4010 	ldmia.w	sp!, {r4, lr}
void RGBClass::control(bool override)
{
    if (override == controlled()) {
        return;
    } else if (override) {
        LED_Signaling_Start();
   d708a:	f7fe bca9 	b.w	d59e0 <LED_Signaling_Start>
    } else {
        LED_Signaling_Stop();
    }
}
   d708e:	e8bd 4010 	ldmia.w	sp!, {r4, lr}
    if (override == controlled()) {
        return;
    } else if (override) {
        LED_Signaling_Start();
    } else {
        LED_Signaling_Stop();
   d7092:	f7fe bcad 	b.w	d59f0 <LED_Signaling_Stop>
   d7096:	bd10      	pop	{r4, pc}

000d7098 <_ZN8RGBClass5colorEiii>:
void RGBClass::color(uint32_t rgb) {
    color((rgb>>16)&0xFF, (rgb>>8)&0xFF, (rgb)&0xFF);
}

void RGBClass::color(int red, int green, int blue)
{
   d7098:	b570      	push	{r4, r5, r6, lr}
   d709a:	4605      	mov	r5, r0
   d709c:	460e      	mov	r6, r1
   d709e:	4614      	mov	r4, r2

RGBClass RGB;

bool RGBClass::controlled(void)
{
    return LED_RGB_IsOverRidden();
   d70a0:	f7fe fcb6 	bl	d5a10 <LED_RGB_IsOverRidden>
    color((rgb>>16)&0xFF, (rgb>>8)&0xFF, (rgb)&0xFF);
}

void RGBClass::color(int red, int green, int blue)
{
    if (!controlled()) {
   d70a4:	b150      	cbz	r0, d70bc <_ZN8RGBClass5colorEiii+0x24>
        return;
    }
    LED_SetSignalingColor(red << 16 | green << 8 | blue);
   d70a6:	ea44 2006 	orr.w	r0, r4, r6, lsl #8
   d70aa:	ea40 4005 	orr.w	r0, r0, r5, lsl #16
   d70ae:	f7fe fc8f 	bl	d59d0 <LED_SetSignalingColor>
    LED_On(LED_RGB);
   d70b2:	20e7      	movs	r0, #231	; 0xe7
}
   d70b4:	e8bd 4070 	ldmia.w	sp!, {r4, r5, r6, lr}
{
    if (!controlled()) {
        return;
    }
    LED_SetSignalingColor(red << 16 | green << 8 | blue);
    LED_On(LED_RGB);
   d70b8:	f7fe bcb2 	b.w	d5a20 <LED_On>
   d70bc:	bd70      	pop	{r4, r5, r6, pc}

000d70be <_ZN8RGBClass10brightnessEhb>:
}

void RGBClass::brightness(uint8_t brightness, bool update)
{
   d70be:	b510      	push	{r4, lr}
   d70c0:	460c      	mov	r4, r1
    LED_SetBrightness(brightness);
   d70c2:	f7fe fc9d 	bl	d5a00 <LED_SetBrightness>

RGBClass RGB;

bool RGBClass::controlled(void)
{
    return LED_RGB_IsOverRidden();
   d70c6:	f7fe fca3 	bl	d5a10 <LED_RGB_IsOverRidden>
}

void RGBClass::brightness(uint8_t brightness, bool update)
{
    LED_SetBrightness(brightness);
    if (controlled() && update) {
   d70ca:	b128      	cbz	r0, d70d8 <_ZN8RGBClass10brightnessEhb+0x1a>
   d70cc:	b124      	cbz	r4, d70d8 <_ZN8RGBClass10brightnessEhb+0x1a>
        LED_On(LED_RGB);
   d70ce:	20e7      	movs	r0, #231	; 0xe7
    }
}
   d70d0:	e8bd 4010 	ldmia.w	sp!, {r4, lr}

void RGBClass::brightness(uint8_t brightness, bool update)
{
    LED_SetBrightness(brightness);
    if (controlled() && update) {
        LED_On(LED_RGB);
   d70d4:	f7fe bca4 	b.w	d5a20 <LED_On>
   d70d8:	bd10      	pop	{r4, pc}
	...

000d70dc <_GLOBAL__sub_I_RGB>:
	{
	  _Base::_M_init_functor(__functor, std::__addressof(__f.get()));
	}
      };

    _Function_base() : _M_manager(nullptr) { }
   d70dc:	4803      	ldr	r0, [pc, #12]	; (d70ec <_GLOBAL__sub_I_RGB+0x10>)
#include "spark_wiring_rgb.h"
#include "spark_wiring_interrupts.h"

#include "core_hal.h"

RGBClass RGB;
   d70de:	4a04      	ldr	r2, [pc, #16]	; (d70f0 <_GLOBAL__sub_I_RGB+0x14>)
   d70e0:	4904      	ldr	r1, [pc, #16]	; (d70f4 <_GLOBAL__sub_I_RGB+0x18>)
   d70e2:	2300      	movs	r3, #0
   d70e4:	6083      	str	r3, [r0, #8]
   d70e6:	f000 bce5 	b.w	d7ab4 <__aeabi_atexit>
   d70ea:	bf00      	nop
   d70ec:	2003e3e8 	.word	0x2003e3e8
   d70f0:	2003e36c 	.word	0x2003e36c
   d70f4:	000d706d 	.word	0x000d706d

000d70f8 <serialEventRun>:

/**
 * Provides background processing of serial data.
 */
void serialEventRun()
{
   d70f8:	b508      	push	{r3, lr}
    if (serialEvent && Serial.available()>0)
   d70fa:	4b0c      	ldr	r3, [pc, #48]	; (d712c <serialEventRun+0x34>)
   d70fc:	b133      	cbz	r3, d710c <serialEventRun+0x14>
   d70fe:	f000 f953 	bl	d73a8 <_Z16_fetch_usbserialv>
   d7102:	6803      	ldr	r3, [r0, #0]
   d7104:	691b      	ldr	r3, [r3, #16]
   d7106:	4798      	blx	r3
   d7108:	2800      	cmp	r0, #0
   d710a:	dc09      	bgt.n	d7120 <serialEventRun+0x28>
        serialEvent();

    if (serialEvent1 && Serial1.available()>0)
   d710c:	4b08      	ldr	r3, [pc, #32]	; (d7130 <serialEventRun+0x38>)
   d710e:	b163      	cbz	r3, d712a <serialEventRun+0x32>
   d7110:	f000 fa00 	bl	d7514 <_Z22__fetch_global_Serial1v>
   d7114:	6803      	ldr	r3, [r0, #0]
   d7116:	691b      	ldr	r3, [r3, #16]
   d7118:	4798      	blx	r3
   d711a:	2800      	cmp	r0, #0
   d711c:	dc03      	bgt.n	d7126 <serialEventRun+0x2e>
   d711e:	bd08      	pop	{r3, pc}
 * Provides background processing of serial data.
 */
void serialEventRun()
{
    if (serialEvent && Serial.available()>0)
        serialEvent();
   d7120:	f3af 8000 	nop.w
   d7124:	e7f2      	b.n	d710c <serialEventRun+0x14>

    if (serialEvent1 && Serial1.available()>0)
        serialEvent1();
   d7126:	f3af 8000 	nop.w
   d712a:	bd08      	pop	{r3, pc}
	...

000d7134 <_post_loop>:
#if Wiring_Serial5
void serialEvent5() __attribute__((weak));
#endif

void _post_loop()
{
   d7134:	b508      	push	{r3, lr}
	serialEventRun();
   d7136:	f7ff ffdf 	bl	d70f8 <serialEventRun>
		return !timeout_fn;
	}

	static inline system_tick_t current_time()
	{
		return HAL_Timer_Get_Milli_Seconds();
   d713a:	f7fe fa97 	bl	d566c <HAL_Timer_Get_Milli_Seconds>
	/**
	 * Lifesign that the application is still working normally.
	 */
	static void checkin()
	{
		last_checkin = current_time();
   d713e:	4b01      	ldr	r3, [pc, #4]	; (d7144 <_post_loop+0x10>)
   d7140:	6018      	str	r0, [r3, #0]
   d7142:	bd08      	pop	{r3, pc}
   d7144:	2003e728 	.word	0x2003e728

000d7148 <_Z33system_initialize_user_backup_ramv>:
 * the dynamically linked application module.
 */
void system_initialize_user_backup_ram()
{
    size_t len = &link_global_retained_end-&link_global_retained_start;
    memcpy(&link_global_retained_start, &link_global_retained_initial_values, len);
   d7148:	4802      	ldr	r0, [pc, #8]	; (d7154 <_Z33system_initialize_user_backup_ramv+0xc>)
   d714a:	4a03      	ldr	r2, [pc, #12]	; (d7158 <_Z33system_initialize_user_backup_ramv+0x10>)
   d714c:	4903      	ldr	r1, [pc, #12]	; (d715c <_Z33system_initialize_user_backup_ramv+0x14>)
   d714e:	1a12      	subs	r2, r2, r0
   d7150:	f000 be37 	b.w	d7dc2 <memcpy>
   d7154:	2003f400 	.word	0x2003f400
   d7158:	2003f404 	.word	0x2003f404
   d715c:	000d8990 	.word	0x000d8990

000d7160 <_Z27ctrl_request_custom_handlerP12ctrl_request>:
bool __backup_ram_was_valid() { return false; }

#endif

// Default handler for CTRL_REQUEST_APP_CUSTOM requests
void __attribute((weak)) ctrl_request_custom_handler(ctrl_request* req) {
   d7160:	b507      	push	{r0, r1, r2, lr}
    system_ctrl_set_result(req, SYSTEM_ERROR_NOT_SUPPORTED, nullptr, nullptr, nullptr);
   d7162:	2300      	movs	r3, #0
   d7164:	9300      	str	r3, [sp, #0]
   d7166:	461a      	mov	r2, r3
   d7168:	f06f 0177 	mvn.w	r1, #119	; 0x77
   d716c:	f7fe fc8a 	bl	d5a84 <system_ctrl_set_result>
}
   d7170:	b003      	add	sp, #12
   d7172:	f85d fb04 	ldr.w	pc, [sp], #4
	...

000d7178 <_ZL20ctrl_request_handlerP12ctrl_request>:
// Callback invoked to process a logging configuration request
void(*log_process_ctrl_request_callback)(ctrl_request* req) = nullptr;
#endif

// Application handler for control requests
static void ctrl_request_handler(ctrl_request* req) {
   d7178:	b507      	push	{r0, r1, r2, lr}
    switch (req->type) {
   d717a:	8843      	ldrh	r3, [r0, #2]
   d717c:	2b0a      	cmp	r3, #10
   d717e:	d008      	beq.n	d7192 <_ZL20ctrl_request_handlerP12ctrl_request+0x1a>
   d7180:	2b50      	cmp	r3, #80	; 0x50
   d7182:	d109      	bne.n	d7198 <_ZL20ctrl_request_handlerP12ctrl_request+0x20>
#if Wiring_LogConfig
    case CTRL_REQUEST_LOG_CONFIG: {
        if (log_process_ctrl_request_callback) {
   d7184:	4b09      	ldr	r3, [pc, #36]	; (d71ac <_ZL20ctrl_request_handlerP12ctrl_request+0x34>)
   d7186:	681b      	ldr	r3, [r3, #0]
   d7188:	b13b      	cbz	r3, d719a <_ZL20ctrl_request_handlerP12ctrl_request+0x22>
    }
    default:
        system_ctrl_set_result(req, SYSTEM_ERROR_NOT_SUPPORTED, nullptr, nullptr, nullptr);
        break;
    }
}
   d718a:	b003      	add	sp, #12
   d718c:	f85d eb04 	ldr.w	lr, [sp], #4
static void ctrl_request_handler(ctrl_request* req) {
    switch (req->type) {
#if Wiring_LogConfig
    case CTRL_REQUEST_LOG_CONFIG: {
        if (log_process_ctrl_request_callback) {
            log_process_ctrl_request_callback(req);
   d7190:	4718      	bx	r3
        }
        break;
    }
#endif
    case CTRL_REQUEST_APP_CUSTOM: {
        ctrl_request_custom_handler(req);
   d7192:	f7ff ffe5 	bl	d7160 <_Z27ctrl_request_custom_handlerP12ctrl_request>
        break;
   d7196:	e006      	b.n	d71a6 <_ZL20ctrl_request_handlerP12ctrl_request+0x2e>
    }
    default:
        system_ctrl_set_result(req, SYSTEM_ERROR_NOT_SUPPORTED, nullptr, nullptr, nullptr);
   d7198:	2300      	movs	r3, #0
   d719a:	9300      	str	r3, [sp, #0]
   d719c:	461a      	mov	r2, r3
   d719e:	f06f 0177 	mvn.w	r1, #119	; 0x77
   d71a2:	f7fe fc6f 	bl	d5a84 <system_ctrl_set_result>
        break;
    }
}
   d71a6:	b003      	add	sp, #12
   d71a8:	f85d fb04 	ldr.w	pc, [sp], #4
   d71ac:	2003e3f8 	.word	0x2003e3f8

000d71b0 <module_user_init_hook>:

void module_user_init_hook()
{
   d71b0:	b538      	push	{r3, r4, r5, lr}
#if HAL_PLATFORM_BACKUP_RAM
    backup_ram_was_valid_ =  __backup_sram_signature==signature;
   d71b2:	4c10      	ldr	r4, [pc, #64]	; (d71f4 <module_user_init_hook+0x44>)
   d71b4:	4d10      	ldr	r5, [pc, #64]	; (d71f8 <module_user_init_hook+0x48>)
   d71b6:	6823      	ldr	r3, [r4, #0]
   d71b8:	42ab      	cmp	r3, r5
   d71ba:	4b10      	ldr	r3, [pc, #64]	; (d71fc <module_user_init_hook+0x4c>)
   d71bc:	bf0c      	ite	eq
   d71be:	2201      	moveq	r2, #1
   d71c0:	2200      	movne	r2, #0
   d71c2:	701a      	strb	r2, [r3, #0]
    if (!backup_ram_was_valid_) {
   d71c4:	d002      	beq.n	d71cc <module_user_init_hook+0x1c>
        system_initialize_user_backup_ram();
   d71c6:	f7ff ffbf 	bl	d7148 <_Z33system_initialize_user_backup_ramv>
        __backup_sram_signature = signature;
   d71ca:	6025      	str	r5, [r4, #0]
    }
#endif

#if HAL_PLATFORM_RNG
    // Initialize the default stdlib PRNG using hardware RNG as a seed
    const uint32_t seed = HAL_RNG_GetRandomNumber();
   d71cc:	f7fe fa3e 	bl	d564c <HAL_RNG_GetRandomNumber>
   d71d0:	4604      	mov	r4, r0
    srand(seed);
   d71d2:	f000 fe25 	bl	d7e20 <srand>

    // If the user defines random_seed_from_cloud, call it with a seed value
    // generated by a hardware RNG as well.
    if (random_seed_from_cloud) {
   d71d6:	4b0a      	ldr	r3, [pc, #40]	; (d7200 <module_user_init_hook+0x50>)
   d71d8:	b113      	cbz	r3, d71e0 <module_user_init_hook+0x30>
        random_seed_from_cloud(seed);
   d71da:	4620      	mov	r0, r4
   d71dc:	f3af 8000 	nop.w
    }
#endif
    // Register the random_seed_from_cloud handler
    spark_set_random_seed_from_cloud_handler(&random_seed_from_cloud, nullptr);
   d71e0:	2100      	movs	r1, #0
   d71e2:	4807      	ldr	r0, [pc, #28]	; (d7200 <module_user_init_hook+0x50>)
   d71e4:	f7fe fca8 	bl	d5b38 <spark_set_random_seed_from_cloud_handler>

    // Register application handler for the control requests
    system_ctrl_set_app_request_handler(ctrl_request_handler, nullptr);
   d71e8:	2100      	movs	r1, #0
   d71ea:	4806      	ldr	r0, [pc, #24]	; (d7204 <module_user_init_hook+0x54>)
}
   d71ec:	e8bd 4038 	ldmia.w	sp!, {r3, r4, r5, lr}
#endif
    // Register the random_seed_from_cloud handler
    spark_set_random_seed_from_cloud_handler(&random_seed_from_cloud, nullptr);

    // Register application handler for the control requests
    system_ctrl_set_app_request_handler(ctrl_request_handler, nullptr);
   d71f0:	f7fe bc3e 	b.w	d5a70 <system_ctrl_set_app_request_handler>
   d71f4:	2003f400 	.word	0x2003f400
   d71f8:	9a271c1e 	.word	0x9a271c1e
   d71fc:	2003e3fc 	.word	0x2003e3fc
   d7200:	00000000 	.word	0x00000000
   d7204:	000d7179 	.word	0x000d7179

000d7208 <_ZN9IPAddressD1Ev>:
    IPAddress(uint8_t first_octet, uint8_t second_octet, uint8_t third_octet, uint8_t fourth_octet);
    IPAddress(uint32_t address);
    IPAddress(const uint8_t* address);
    IPAddress(const HAL_IPAddress& address);

    virtual ~IPAddress() {}
   d7208:	4770      	bx	lr

000d720a <_ZN9IPAddressD0Ev>:
   d720a:	b510      	push	{r4, lr}
   d720c:	2118      	movs	r1, #24
   d720e:	4604      	mov	r4, r0
   d7210:	f000 fc5e 	bl	d7ad0 <_ZdlPvj>
   d7214:	4620      	mov	r0, r4
   d7216:	bd10      	pop	{r4, pc}

000d7218 <_ZNK9IPAddress7printToER5Print>:
#endif // Wiring_IPv6
	return address.ipv4==that.address.ipv4;
}

size_t IPAddress::printTo(Print& p) const
{
   d7218:	b5f0      	push	{r4, r5, r6, r7, lr}
#if Wiring_IPv6
#if HAL_USE_INET_HAL_POSIX
	if (address.v==6) {
   d721a:	7d03      	ldrb	r3, [r0, #20]
   d721c:	2b06      	cmp	r3, #6
#endif // Wiring_IPv6
	return address.ipv4==that.address.ipv4;
}

size_t IPAddress::printTo(Print& p) const
{
   d721e:	b08d      	sub	sp, #52	; 0x34
   d7220:	460e      	mov	r6, r1
   d7222:	f100 0704 	add.w	r7, r0, #4
   d7226:	f04f 0400 	mov.w	r4, #0
#if Wiring_IPv6
#if HAL_USE_INET_HAL_POSIX
	if (address.v==6) {
   d722a:	d002      	beq.n	d7232 <_ZNK9IPAddress7printToER5Print+0x1a>
   d722c:	f100 0508 	add.w	r5, r0, #8
   d7230:	e018      	b.n	d7264 <_ZNK9IPAddress7printToER5Print+0x4c>
		char buf[INET6_ADDRSTRLEN+1];
		buf[0] = 0;
   d7232:	ad0c      	add	r5, sp, #48	; 0x30
		inet_inet_ntop(AF_INET6, address.ipv6, buf, sizeof(buf));
   d7234:	4639      	mov	r1, r7
{
#if Wiring_IPv6
#if HAL_USE_INET_HAL_POSIX
	if (address.v==6) {
		char buf[INET6_ADDRSTRLEN+1];
		buf[0] = 0;
   d7236:	f805 4d30 	strb.w	r4, [r5, #-48]!
		inet_inet_ntop(AF_INET6, address.ipv6, buf, sizeof(buf));
   d723a:	232f      	movs	r3, #47	; 0x2f
   d723c:	462a      	mov	r2, r5
   d723e:	200a      	movs	r0, #10
   d7240:	f7fe faf6 	bl	d5830 <inet_inet_ntop>
    void clearWriteError() { setWriteError(0); }

    virtual size_t write(uint8_t) = 0;
    size_t write(const char *str) {
      if (str == NULL) return 0;
      return write((const uint8_t *)str, strlen(str));
   d7244:	4628      	mov	r0, r5
   d7246:	f000 fe1b 	bl	d7e80 <strlen>
   d724a:	6833      	ldr	r3, [r6, #0]
   d724c:	4602      	mov	r2, r0
   d724e:	68db      	ldr	r3, [r3, #12]
   d7250:	4629      	mov	r1, r5
   d7252:	4630      	mov	r0, r6
   d7254:	4798      	blx	r3
   d7256:	e00f      	b.n	d7278 <_ZNK9IPAddress7printToER5Print+0x60>
#endif // HAL_USE_INET_HAL_POSIX
#endif // Wiring_IPv6
    size_t n = 0;
    for (int i = 0; i < 4; i++)
    {
        if (n)
   d7258:	b124      	cbz	r4, d7264 <_ZNK9IPAddress7printToER5Print+0x4c>
            n += p.print('.');
   d725a:	212e      	movs	r1, #46	; 0x2e
   d725c:	4630      	mov	r0, r6
   d725e:	f7ff fe73 	bl	d6f48 <_ZN5Print5printEc>
   d7262:	4404      	add	r4, r0
            t = print('-');
            val = -n;
        } else {
            val = n;
        }
        return printNumber(val, base) + t;
   d7264:	f815 1d01 	ldrb.w	r1, [r5, #-1]!
   d7268:	220a      	movs	r2, #10
   d726a:	4630      	mov	r0, r6
   d726c:	f7ff fe85 	bl	d6f7a <_ZN5Print11printNumberEmh>
#else
#pragma message "HAL_USE_INET_HAL_POSIX is required for IPv6 support in IPAddress::printTo()"
#endif // HAL_USE_INET_HAL_POSIX
#endif // Wiring_IPv6
    size_t n = 0;
    for (int i = 0; i < 4; i++)
   d7270:	42bd      	cmp	r5, r7
    {
        if (n)
            n += p.print('.');
        n += p.print((*this)[i], DEC);
   d7272:	4404      	add	r4, r0
#else
#pragma message "HAL_USE_INET_HAL_POSIX is required for IPv6 support in IPAddress::printTo()"
#endif // HAL_USE_INET_HAL_POSIX
#endif // Wiring_IPv6
    size_t n = 0;
    for (int i = 0; i < 4; i++)
   d7274:	d1f0      	bne.n	d7258 <_ZNK9IPAddress7printToER5Print+0x40>
    {
        if (n)
            n += p.print('.');
        n += p.print((*this)[i], DEC);
   d7276:	4620      	mov	r0, r4
    }
    return n;
}
   d7278:	b00d      	add	sp, #52	; 0x34
   d727a:	bdf0      	pop	{r4, r5, r6, r7, pc}

000d727c <_ZN9IPAddressC1Ev>:

#if HAL_USE_INET_HAL_POSIX
#include <arpa/inet.h>
#endif // HAL_USE_INET_HAL_POSIX

IPAddress::IPAddress()
   d727c:	b510      	push	{r4, lr}
   d727e:	4b05      	ldr	r3, [pc, #20]	; (d7294 <_ZN9IPAddressC1Ev+0x18>)
   d7280:	4604      	mov	r4, r0
        return address;
    }

    virtual size_t printTo(Print& p) const;

    void clear() { memset(&address, 0, sizeof (address)); }
   d7282:	2211      	movs	r2, #17
   d7284:	f840 3b04 	str.w	r3, [r0], #4
   d7288:	2100      	movs	r1, #0
   d728a:	f000 fdc0 	bl	d7e0e <memset>
{
    clear();
}
   d728e:	4620      	mov	r0, r4
   d7290:	bd10      	pop	{r4, pc}
   d7292:	bf00      	nop
   d7294:	000d87b8 	.word	0x000d87b8

000d7298 <_ZN9IPAddressC1ERK16_HAL_IPAddress_t>:

IPAddress::IPAddress(const HAL_IPAddress& address)
   d7298:	4603      	mov	r3, r0
   d729a:	4a07      	ldr	r2, [pc, #28]	; (d72b8 <_ZN9IPAddressC1ERK16_HAL_IPAddress_t+0x20>)
   d729c:	b510      	push	{r4, lr}
   d729e:	f843 2b04 	str.w	r2, [r3], #4
{
    memcpy(&this->address, &address, sizeof(address));
   d72a2:	f101 0210 	add.w	r2, r1, #16
   d72a6:	f851 4b04 	ldr.w	r4, [r1], #4
   d72aa:	f843 4b04 	str.w	r4, [r3], #4
   d72ae:	4291      	cmp	r1, r2
   d72b0:	d1f9      	bne.n	d72a6 <_ZN9IPAddressC1ERK16_HAL_IPAddress_t+0xe>
   d72b2:	780a      	ldrb	r2, [r1, #0]
   d72b4:	701a      	strb	r2, [r3, #0]
}
   d72b6:	bd10      	pop	{r4, pc}
   d72b8:	000d87b8 	.word	0x000d87b8

000d72bc <_ZN9IPAddress8set_ipv4Ehhhh>:
    return address.ipv4!=0;
#endif
}

void IPAddress::set_ipv4(uint8_t b0, uint8_t b1, uint8_t b2, uint8_t b3)
{
   d72bc:	b510      	push	{r4, lr}
    address.ipv4 = b0<<24 | b1 << 16 | b2 << 8 | b3;
   d72be:	f89d 4008 	ldrb.w	r4, [sp, #8]
   d72c2:	ea44 2303 	orr.w	r3, r4, r3, lsl #8
   d72c6:	ea43 4202 	orr.w	r2, r3, r2, lsl #16
   d72ca:	ea42 6101 	orr.w	r1, r2, r1, lsl #24
        return &address;
    }

    inline void setVersion(uint8_t version) {
#if HAL_IPv6
        address.v = version;
   d72ce:	2304      	movs	r3, #4
   d72d0:	6041      	str	r1, [r0, #4]
   d72d2:	7503      	strb	r3, [r0, #20]
   d72d4:	bd10      	pop	{r4, pc}

000d72d6 <_ZN9IPAddressaSEPKh>:
    setVersion(4);
}

IPAddress& IPAddress::operator=(const uint8_t* address)
{
   d72d6:	b537      	push	{r0, r1, r2, r4, r5, lr}
    set_ipv4(address[0], address[1], address[2], address[3]);
   d72d8:	780d      	ldrb	r5, [r1, #0]
   d72da:	788b      	ldrb	r3, [r1, #2]
   d72dc:	784a      	ldrb	r2, [r1, #1]
   d72de:	78c9      	ldrb	r1, [r1, #3]
   d72e0:	9100      	str	r1, [sp, #0]
   d72e2:	4629      	mov	r1, r5
   d72e4:	f7ff ffea 	bl	d72bc <_ZN9IPAddress8set_ipv4Ehhhh>
    return *this;
}
   d72e8:	b003      	add	sp, #12
   d72ea:	bd30      	pop	{r4, r5, pc}

000d72ec <_ZN9USBSerial14blockOnOverrunEb>:
  HAL_USB_USART_Flush_Data(_serial);
}

void USBSerial::blockOnOverrun(bool block)
{
  _blocking = block;
   d72ec:	7441      	strb	r1, [r0, #17]
   d72ee:	4770      	bx	lr

000d72f0 <_ZN9USBSerialD1Ev>:
#include "usb_hal.h"
#include "system_task.h"
#include "spark_wiring_startup.h"
#include "concurrent_hal.h"

class USBSerial : public Stream
   d72f0:	4770      	bx	lr

000d72f2 <_ZN9USBSerial4readEv>:
}


// Read data from buffer
int USBSerial::read()
{
   d72f2:	b508      	push	{r3, lr}
	return std::max(-1, (int)HAL_USB_USART_Receive_Data(_serial, false));
   d72f4:	2100      	movs	r1, #0
   d72f6:	7c00      	ldrb	r0, [r0, #16]
   d72f8:	f7fe fb52 	bl	d59a0 <HAL_USB_USART_Receive_Data>
}
   d72fc:	ea30 0020 	bics.w	r0, r0, r0, asr #32
   d7300:	bf28      	it	cs
   d7302:	f04f 30ff 	movcs.w	r0, #4294967295
   d7306:	bd08      	pop	{r3, pc}

000d7308 <_ZN9USBSerial4peekEv>:
{
  _blocking = block;
}

int USBSerial::peek()
{
   d7308:	b508      	push	{r3, lr}
	return std::max(-1, (int)HAL_USB_USART_Receive_Data(_serial, true));
   d730a:	2101      	movs	r1, #1
   d730c:	7c00      	ldrb	r0, [r0, #16]
   d730e:	f7fe fb47 	bl	d59a0 <HAL_USB_USART_Receive_Data>
}
   d7312:	ea30 0020 	bics.w	r0, r0, r0, asr #32
   d7316:	bf28      	it	cs
   d7318:	f04f 30ff 	movcs.w	r0, #4294967295
   d731c:	bd08      	pop	{r3, pc}

000d731e <_ZN9USBSerial17availableForWriteEv>:
{
	return std::max(-1, (int)HAL_USB_USART_Receive_Data(_serial, false));
}

int USBSerial::availableForWrite()
{
   d731e:	b508      	push	{r3, lr}
  return std::max(0, (int)HAL_USB_USART_Available_Data_For_Write(_serial));
   d7320:	7c00      	ldrb	r0, [r0, #16]
   d7322:	f7fe fb35 	bl	d5990 <HAL_USB_USART_Available_Data_For_Write>
}
   d7326:	ea20 70e0 	bic.w	r0, r0, r0, asr #31
   d732a:	bd08      	pop	{r3, pc}

000d732c <_ZN9USBSerial9availableEv>:

int USBSerial::available()
{
   d732c:	b508      	push	{r3, lr}
	return std::max(0, (int)HAL_USB_USART_Available_Data(_serial));
   d732e:	7c00      	ldrb	r0, [r0, #16]
   d7330:	f7fe fb26 	bl	d5980 <HAL_USB_USART_Available_Data>
}
   d7334:	ea20 70e0 	bic.w	r0, r0, r0, asr #31
   d7338:	bd08      	pop	{r3, pc}

000d733a <_ZN9USBSerial5flushEv>:
  return 0;
}

void USBSerial::flush()
{
  HAL_USB_USART_Flush_Data(_serial);
   d733a:	7c00      	ldrb	r0, [r0, #16]
   d733c:	f7fe bb40 	b.w	d59c0 <HAL_USB_USART_Flush_Data>

000d7340 <_ZN9USBSerialD0Ev>:
   d7340:	b510      	push	{r4, lr}
   d7342:	2114      	movs	r1, #20
   d7344:	4604      	mov	r4, r0
   d7346:	f000 fbc3 	bl	d7ad0 <_ZdlPvj>
   d734a:	4620      	mov	r0, r4
   d734c:	bd10      	pop	{r4, pc}

000d734e <_ZN9USBSerial5writeEh>:
{
	return std::max(0, (int)HAL_USB_USART_Available_Data(_serial));
}

size_t USBSerial::write(uint8_t byte)
{
   d734e:	b538      	push	{r3, r4, r5, lr}
   d7350:	4604      	mov	r4, r0
  if (HAL_USB_USART_Available_Data_For_Write(_serial) > 0 || _blocking) {
   d7352:	7c00      	ldrb	r0, [r0, #16]
{
	return std::max(0, (int)HAL_USB_USART_Available_Data(_serial));
}

size_t USBSerial::write(uint8_t byte)
{
   d7354:	460d      	mov	r5, r1
  if (HAL_USB_USART_Available_Data_For_Write(_serial) > 0 || _blocking) {
   d7356:	f7fe fb1b 	bl	d5990 <HAL_USB_USART_Available_Data_For_Write>
   d735a:	2800      	cmp	r0, #0
   d735c:	dc01      	bgt.n	d7362 <_ZN9USBSerial5writeEh+0x14>
   d735e:	7c60      	ldrb	r0, [r4, #17]
   d7360:	b128      	cbz	r0, d736e <_ZN9USBSerial5writeEh+0x20>
    return std::max(0, (int)HAL_USB_USART_Send_Data(_serial, byte));
   d7362:	4629      	mov	r1, r5
   d7364:	7c20      	ldrb	r0, [r4, #16]
   d7366:	f7fe fb23 	bl	d59b0 <HAL_USB_USART_Send_Data>
   d736a:	ea20 70e0 	bic.w	r0, r0, r0, asr #31
  }
  return 0;
}
   d736e:	bd38      	pop	{r3, r4, r5, pc}

000d7370 <_ZN9USBSerialC1E20HAL_USB_USART_SerialRK20HAL_USB_USART_Config>:

  HAL_USB_USART_Config conf = acquireSerialBuffer();
  HAL_USB_USART_Init(_serial, &conf);
}

USBSerial::USBSerial(HAL_USB_USART_Serial serial, const HAL_USB_USART_Config& conf)
   d7370:	b510      	push	{r4, lr}
   d7372:	4604      	mov	r4, r0
  protected:
    void setWriteError(int err = 1) { write_error = err; }
    size_t printf_impl(bool newline, const char* format, ...);

  public:
    Print() : write_error(0) {}
   d7374:	2300      	movs	r3, #0
   d7376:	6063      	str	r3, [r4, #4]
    virtual int available() = 0;
    virtual int read() = 0;
    virtual int peek() = 0;
    virtual void flush() = 0;

    Stream() {_timeout=1000;}
   d7378:	f44f 737a 	mov.w	r3, #1000	; 0x3e8
   d737c:	60a3      	str	r3, [r4, #8]
   d737e:	4b05      	ldr	r3, [pc, #20]	; (d7394 <_ZN9USBSerialC1E20HAL_USB_USART_SerialRK20HAL_USB_USART_Config+0x24>)
   d7380:	6023      	str	r3, [r4, #0]
{
  _serial = serial;
  _blocking = true;
   d7382:	2301      	movs	r3, #1

  HAL_USB_USART_Config conf = acquireSerialBuffer();
  HAL_USB_USART_Init(_serial, &conf);
}

USBSerial::USBSerial(HAL_USB_USART_Serial serial, const HAL_USB_USART_Config& conf)
   d7384:	4608      	mov	r0, r1
{
  _serial = serial;
   d7386:	7421      	strb	r1, [r4, #16]
  _blocking = true;
   d7388:	7463      	strb	r3, [r4, #17]

  HAL_USB_USART_Init(_serial, &conf);
   d738a:	4611      	mov	r1, r2
   d738c:	f7fe faf0 	bl	d5970 <HAL_USB_USART_Init>
}
   d7390:	4620      	mov	r0, r4
   d7392:	bd10      	pop	{r4, pc}
   d7394:	000d87cc 	.word	0x000d87cc

000d7398 <_Z19acquireSerialBufferv>:

// Preinstantiate Objects //////////////////////////////////////////////////////
#ifdef SPARK_USB_SERIAL

HAL_USB_USART_Config __attribute__((weak)) acquireSerialBuffer()
{
   d7398:	b510      	push	{r4, lr}
  HAL_USB_USART_Config conf = {0};
   d739a:	2214      	movs	r2, #20

// Preinstantiate Objects //////////////////////////////////////////////////////
#ifdef SPARK_USB_SERIAL

HAL_USB_USART_Config __attribute__((weak)) acquireSerialBuffer()
{
   d739c:	4604      	mov	r4, r0
  HAL_USB_USART_Config conf = {0};
   d739e:	2100      	movs	r1, #0
   d73a0:	f000 fd35 	bl	d7e0e <memset>
  conf.rx_buffer_size = USB_RX_BUFFER_SIZE;
  conf.tx_buffer_size = USB_TX_BUFFER_SIZE;
#endif

  return conf;
}
   d73a4:	4620      	mov	r0, r4
   d73a6:	bd10      	pop	{r4, pc}

000d73a8 <_Z16_fetch_usbserialv>:

USBSerial& _fetch_usbserial()
{
   d73a8:	b530      	push	{r4, r5, lr}
  HAL_USB_USART_Config conf = acquireSerialBuffer();
	static USBSerial _usbserial(HAL_USB_USART_SERIAL, conf);
   d73aa:	4d0e      	ldr	r5, [pc, #56]	; (d73e4 <_Z16_fetch_usbserialv+0x3c>)

  return conf;
}

USBSerial& _fetch_usbserial()
{
   d73ac:	b087      	sub	sp, #28
  HAL_USB_USART_Config conf = acquireSerialBuffer();
   d73ae:	a801      	add	r0, sp, #4
   d73b0:	f7ff fff2 	bl	d7398 <_Z19acquireSerialBufferv>
	static USBSerial _usbserial(HAL_USB_USART_SERIAL, conf);
   d73b4:	6829      	ldr	r1, [r5, #0]
   d73b6:	f011 0401 	ands.w	r4, r1, #1
   d73ba:	d110      	bne.n	d73de <_Z16_fetch_usbserialv+0x36>
   d73bc:	4628      	mov	r0, r5
   d73be:	f7fc fe72 	bl	d40a6 <__cxa_guard_acquire>
   d73c2:	b160      	cbz	r0, d73de <_Z16_fetch_usbserialv+0x36>
   d73c4:	aa01      	add	r2, sp, #4
   d73c6:	4621      	mov	r1, r4
   d73c8:	4807      	ldr	r0, [pc, #28]	; (d73e8 <_Z16_fetch_usbserialv+0x40>)
   d73ca:	f7ff ffd1 	bl	d7370 <_ZN9USBSerialC1E20HAL_USB_USART_SerialRK20HAL_USB_USART_Config>
   d73ce:	4628      	mov	r0, r5
   d73d0:	f7fc fe6e 	bl	d40b0 <__cxa_guard_release>
   d73d4:	4a05      	ldr	r2, [pc, #20]	; (d73ec <_Z16_fetch_usbserialv+0x44>)
   d73d6:	4906      	ldr	r1, [pc, #24]	; (d73f0 <_Z16_fetch_usbserialv+0x48>)
   d73d8:	4803      	ldr	r0, [pc, #12]	; (d73e8 <_Z16_fetch_usbserialv+0x40>)
   d73da:	f000 fb6b 	bl	d7ab4 <__aeabi_atexit>
	return _usbserial;
}
   d73de:	4802      	ldr	r0, [pc, #8]	; (d73e8 <_Z16_fetch_usbserialv+0x40>)
   d73e0:	b007      	add	sp, #28
   d73e2:	bd30      	pop	{r4, r5, pc}
   d73e4:	2003e400 	.word	0x2003e400
   d73e8:	2003e404 	.word	0x2003e404
   d73ec:	2003e36c 	.word	0x2003e36c
   d73f0:	000d72f1 	.word	0x000d72f1

000d73f4 <tone>:

#include "spark_wiring_tone.h"
#include "tone_hal.h"

void tone(uint8_t pin, unsigned int frequency, unsigned long duration)
{
   d73f4:	b5f8      	push	{r3, r4, r5, r6, r7, lr}
    if (pinAvailable(pin) && HAL_Validate_Pin_Function(pin, PF_TIMER)==PF_TIMER) {
   d73f6:	b285      	uxth	r5, r0

#include "spark_wiring_tone.h"
#include "tone_hal.h"

void tone(uint8_t pin, unsigned int frequency, unsigned long duration)
{
   d73f8:	4604      	mov	r4, r0
    if (pinAvailable(pin) && HAL_Validate_Pin_Function(pin, PF_TIMER)==PF_TIMER) {
   d73fa:	4628      	mov	r0, r5

#include "spark_wiring_tone.h"
#include "tone_hal.h"

void tone(uint8_t pin, unsigned int frequency, unsigned long duration)
{
   d73fc:	460e      	mov	r6, r1
   d73fe:	4617      	mov	r7, r2
    if (pinAvailable(pin) && HAL_Validate_Pin_Function(pin, PF_TIMER)==PF_TIMER) {
   d7400:	f000 fa90 	bl	d7924 <pinAvailable>
   d7404:	b160      	cbz	r0, d7420 <tone+0x2c>
   d7406:	2102      	movs	r1, #2
   d7408:	4628      	mov	r0, r5
   d740a:	f7fe f8e7 	bl	d55dc <HAL_Validate_Pin_Function>
   d740e:	2802      	cmp	r0, #2
   d7410:	d106      	bne.n	d7420 <tone+0x2c>
        HAL_Tone_Start(pin, frequency, duration);
   d7412:	463a      	mov	r2, r7
   d7414:	4631      	mov	r1, r6
   d7416:	4620      	mov	r0, r4
    }
}
   d7418:	e8bd 40f8 	ldmia.w	sp!, {r3, r4, r5, r6, r7, lr}
#include "tone_hal.h"

void tone(uint8_t pin, unsigned int frequency, unsigned long duration)
{
    if (pinAvailable(pin) && HAL_Validate_Pin_Function(pin, PF_TIMER)==PF_TIMER) {
        HAL_Tone_Start(pin, frequency, duration);
   d741c:	f7fe ba98 	b.w	d5950 <HAL_Tone_Start>
   d7420:	bdf8      	pop	{r3, r4, r5, r6, r7, pc}

000d7422 <noTone>:
    }
}

void noTone(uint8_t pin)
{
   d7422:	b538      	push	{r3, r4, r5, lr}
    if (pinAvailable(pin) && HAL_Validate_Pin_Function(pin, PF_TIMER)==PF_TIMER) {
   d7424:	b285      	uxth	r5, r0
        HAL_Tone_Start(pin, frequency, duration);
    }
}

void noTone(uint8_t pin)
{
   d7426:	4604      	mov	r4, r0
    if (pinAvailable(pin) && HAL_Validate_Pin_Function(pin, PF_TIMER)==PF_TIMER) {
   d7428:	4628      	mov	r0, r5
   d742a:	f000 fa7b 	bl	d7924 <pinAvailable>
   d742e:	b150      	cbz	r0, d7446 <noTone+0x24>
   d7430:	2102      	movs	r1, #2
   d7432:	4628      	mov	r0, r5
   d7434:	f7fe f8d2 	bl	d55dc <HAL_Validate_Pin_Function>
   d7438:	2802      	cmp	r0, #2
   d743a:	d104      	bne.n	d7446 <noTone+0x24>
        HAL_Tone_Stop(pin);
   d743c:	4620      	mov	r0, r4
    }
}
   d743e:	e8bd 4038 	ldmia.w	sp!, {r3, r4, r5, lr}
}

void noTone(uint8_t pin)
{
    if (pinAvailable(pin) && HAL_Validate_Pin_Function(pin, PF_TIMER)==PF_TIMER) {
        HAL_Tone_Stop(pin);
   d7442:	f7fe ba8d 	b.w	d5960 <HAL_Tone_Stop>
   d7446:	bd38      	pop	{r3, r4, r5, pc}

000d7448 <_ZN11USARTSerialD1Ev>:
private:
  HAL_USART_Serial _serial;
  bool _blocking;
public:
  USARTSerial(HAL_USART_Serial serial, Ring_Buffer *rx_buffer, Ring_Buffer *tx_buffer);
  virtual ~USARTSerial() {};
   d7448:	4770      	bx	lr

000d744a <_ZN11USARTSerial14blockOnOverrunEb>:
    HAL_USART_Half_Duplex(_serial, Enable);
}

void USARTSerial::blockOnOverrun(bool block)
{
  _blocking = block;
   d744a:	7441      	strb	r1, [r0, #17]
   d744c:	4770      	bx	lr

000d744e <_ZN11USARTSerial17availableForWriteEv>:
}


int USARTSerial::availableForWrite(void)
{
   d744e:	b508      	push	{r3, lr}
  return std::max(0, (int)HAL_USART_Available_Data_For_Write(_serial));
   d7450:	7c00      	ldrb	r0, [r0, #16]
   d7452:	f7fe fa35 	bl	d58c0 <HAL_USART_Available_Data_For_Write>
}
   d7456:	ea20 70e0 	bic.w	r0, r0, r0, asr #31
   d745a:	bd08      	pop	{r3, pc}

000d745c <_ZN11USARTSerial9availableEv>:

int USARTSerial::available(void)
{
   d745c:	b508      	push	{r3, lr}
  return std::max(0, (int)HAL_USART_Available_Data(_serial));
   d745e:	7c00      	ldrb	r0, [r0, #16]
   d7460:	f7fe fa06 	bl	d5870 <HAL_USART_Available_Data>
}
   d7464:	ea20 70e0 	bic.w	r0, r0, r0, asr #31
   d7468:	bd08      	pop	{r3, pc}

000d746a <_ZN11USARTSerial4peekEv>:

int USARTSerial::peek(void)
{
   d746a:	b508      	push	{r3, lr}
  return std::max(-1, (int)HAL_USART_Peek_Data(_serial));
   d746c:	7c00      	ldrb	r0, [r0, #16]
   d746e:	f7fe fa0f 	bl	d5890 <HAL_USART_Peek_Data>
}
   d7472:	ea30 0020 	bics.w	r0, r0, r0, asr #32
   d7476:	bf28      	it	cs
   d7478:	f04f 30ff 	movcs.w	r0, #4294967295
   d747c:	bd08      	pop	{r3, pc}

000d747e <_ZN11USARTSerial4readEv>:

int USARTSerial::read(void)
{
   d747e:	b508      	push	{r3, lr}
  return std::max(-1, (int)HAL_USART_Read_Data(_serial));
   d7480:	7c00      	ldrb	r0, [r0, #16]
   d7482:	f7fe f9fd 	bl	d5880 <HAL_USART_Read_Data>
}
   d7486:	ea30 0020 	bics.w	r0, r0, r0, asr #32
   d748a:	bf28      	it	cs
   d748c:	f04f 30ff 	movcs.w	r0, #4294967295
   d7490:	bd08      	pop	{r3, pc}

000d7492 <_ZN11USARTSerial5flushEv>:

void USARTSerial::flush()
{
  HAL_USART_Flush_Data(_serial);
   d7492:	7c00      	ldrb	r0, [r0, #16]
   d7494:	f7fe ba04 	b.w	d58a0 <HAL_USART_Flush_Data>

000d7498 <_ZN11USARTSerialD0Ev>:
   d7498:	b510      	push	{r4, lr}
   d749a:	2114      	movs	r1, #20
   d749c:	4604      	mov	r4, r0
   d749e:	f000 fb17 	bl	d7ad0 <_ZdlPvj>
   d74a2:	4620      	mov	r0, r4
   d74a4:	bd10      	pop	{r4, pc}

000d74a6 <_ZN11USARTSerial5writeEh>:
}

size_t USARTSerial::write(uint8_t c)
{
   d74a6:	b570      	push	{r4, r5, r6, lr}
  // attempt a write if blocking, or for non-blocking if there is room.
  if (_blocking || HAL_USART_Available_Data_For_Write(_serial) > 0) {
   d74a8:	7c45      	ldrb	r5, [r0, #17]
{
  HAL_USART_Flush_Data(_serial);
}

size_t USARTSerial::write(uint8_t c)
{
   d74aa:	4604      	mov	r4, r0
   d74ac:	460e      	mov	r6, r1
  // attempt a write if blocking, or for non-blocking if there is room.
  if (_blocking || HAL_USART_Available_Data_For_Write(_serial) > 0) {
   d74ae:	b925      	cbnz	r5, d74ba <_ZN11USARTSerial5writeEh+0x14>
   d74b0:	7c00      	ldrb	r0, [r0, #16]
   d74b2:	f7fe fa05 	bl	d58c0 <HAL_USART_Available_Data_For_Write>
   d74b6:	2800      	cmp	r0, #0
   d74b8:	dd05      	ble.n	d74c6 <_ZN11USARTSerial5writeEh+0x20>
    // the HAL always blocks.
	  return HAL_USART_Write_Data(_serial, c);
   d74ba:	4631      	mov	r1, r6
   d74bc:	7c20      	ldrb	r0, [r4, #16]
  }
  return 0;
}
   d74be:	e8bd 4070 	ldmia.w	sp!, {r4, r5, r6, lr}
size_t USARTSerial::write(uint8_t c)
{
  // attempt a write if blocking, or for non-blocking if there is room.
  if (_blocking || HAL_USART_Available_Data_For_Write(_serial) > 0) {
    // the HAL always blocks.
	  return HAL_USART_Write_Data(_serial, c);
   d74c2:	f7fe b9cd 	b.w	d5860 <HAL_USART_Write_Data>
  }
  return 0;
}
   d74c6:	4628      	mov	r0, r5
   d74c8:	bd70      	pop	{r4, r5, r6, pc}
	...

000d74cc <_ZN11USARTSerialC1E16HAL_USART_SerialP11Ring_BufferS2_>:
#include "spark_wiring_constants.h"
#include "module_info.h"

// Constructors ////////////////////////////////////////////////////////////////

USARTSerial::USARTSerial(HAL_USART_Serial serial, Ring_Buffer *rx_buffer, Ring_Buffer *tx_buffer)
   d74cc:	b510      	push	{r4, lr}
   d74ce:	4604      	mov	r4, r0
   d74d0:	4608      	mov	r0, r1
   d74d2:	4611      	mov	r1, r2
   d74d4:	2200      	movs	r2, #0
   d74d6:	6062      	str	r2, [r4, #4]
   d74d8:	f44f 727a 	mov.w	r2, #1000	; 0x3e8
   d74dc:	60a2      	str	r2, [r4, #8]
   d74de:	4a05      	ldr	r2, [pc, #20]	; (d74f4 <_ZN11USARTSerialC1E16HAL_USART_SerialP11Ring_BufferS2_+0x28>)
   d74e0:	6022      	str	r2, [r4, #0]
{
  _serial = serial;
  // Default is blocking mode
  _blocking = true;
   d74e2:	2201      	movs	r2, #1

// Constructors ////////////////////////////////////////////////////////////////

USARTSerial::USARTSerial(HAL_USART_Serial serial, Ring_Buffer *rx_buffer, Ring_Buffer *tx_buffer)
{
  _serial = serial;
   d74e4:	7420      	strb	r0, [r4, #16]
  // Default is blocking mode
  _blocking = true;
   d74e6:	7462      	strb	r2, [r4, #17]
  HAL_USART_Init(serial, rx_buffer, tx_buffer);
   d74e8:	461a      	mov	r2, r3
   d74ea:	f7fe f9a9 	bl	d5840 <HAL_USART_Init>
}
   d74ee:	4620      	mov	r0, r4
   d74f0:	bd10      	pop	{r4, pc}
   d74f2:	bf00      	nop
   d74f4:	000d87fc 	.word	0x000d87fc

000d74f8 <_ZN11USARTSerial5beginEmm>:
  begin(baud, SERIAL_8N1);
}

void USARTSerial::begin(unsigned long baud, uint32_t config)
{
  HAL_USART_BeginConfig(_serial, baud, config, 0);
   d74f8:	2300      	movs	r3, #0
   d74fa:	7c00      	ldrb	r0, [r0, #16]
   d74fc:	f7fe b9e8 	b.w	d58d0 <HAL_USART_BeginConfig>

000d7500 <_ZN11USARTSerial5beginEm>:
}
// Public Methods //////////////////////////////////////////////////////////////

void USARTSerial::begin(unsigned long baud)
{
  begin(baud, SERIAL_8N1);
   d7500:	2200      	movs	r2, #0
   d7502:	f7ff bff9 	b.w	d74f8 <_ZN11USARTSerial5beginEmm>

000d7506 <_ZN11USARTSerial3endEv>:
  HAL_USART_BeginConfig(_serial, baud, config, 0);
}

void USARTSerial::end()
{
  HAL_USART_End(_serial);
   d7506:	7c00      	ldrb	r0, [r0, #16]
   d7508:	f7fe b9a2 	b.w	d5850 <HAL_USART_End>

000d750c <_ZN11USARTSerial9isEnabledEv>:
USARTSerial::operator bool() {
  return true;
}

bool USARTSerial::isEnabled() {
  return HAL_USART_Is_Enabled(_serial);
   d750c:	7c00      	ldrb	r0, [r0, #16]
   d750e:	f7fe b9cf 	b.w	d58b0 <HAL_USART_Is_Enabled>
	...

000d7514 <_Z22__fetch_global_Serial1v>:
static Ring_Buffer* serial1_rx_buffer = NULL;
static Ring_Buffer* serial1_tx_buffer = NULL;
#endif

USARTSerial& __fetch_global_Serial1()
{
   d7514:	b538      	push	{r3, r4, r5, lr}
#if ((MODULE_FUNCTION == MOD_FUNC_USER_PART) || (MODULE_FUNCTION == MOD_FUNC_MONO_FIRMWARE))
	static USARTSerial serial1(HAL_USART_SERIAL1, &serial1_rx_buffer, &serial1_tx_buffer);
   d7516:	4d0c      	ldr	r5, [pc, #48]	; (d7548 <_Z22__fetch_global_Serial1v+0x34>)
   d7518:	6829      	ldr	r1, [r5, #0]
   d751a:	f011 0401 	ands.w	r4, r1, #1
   d751e:	d111      	bne.n	d7544 <_Z22__fetch_global_Serial1v+0x30>
   d7520:	4628      	mov	r0, r5
   d7522:	f7fc fdc0 	bl	d40a6 <__cxa_guard_acquire>
   d7526:	b168      	cbz	r0, d7544 <_Z22__fetch_global_Serial1v+0x30>
   d7528:	4a08      	ldr	r2, [pc, #32]	; (d754c <_Z22__fetch_global_Serial1v+0x38>)
   d752a:	4b09      	ldr	r3, [pc, #36]	; (d7550 <_Z22__fetch_global_Serial1v+0x3c>)
   d752c:	4809      	ldr	r0, [pc, #36]	; (d7554 <_Z22__fetch_global_Serial1v+0x40>)
   d752e:	4621      	mov	r1, r4
   d7530:	f7ff ffcc 	bl	d74cc <_ZN11USARTSerialC1E16HAL_USART_SerialP11Ring_BufferS2_>
   d7534:	4628      	mov	r0, r5
   d7536:	f7fc fdbb 	bl	d40b0 <__cxa_guard_release>
   d753a:	4a07      	ldr	r2, [pc, #28]	; (d7558 <_Z22__fetch_global_Serial1v+0x44>)
   d753c:	4907      	ldr	r1, [pc, #28]	; (d755c <_Z22__fetch_global_Serial1v+0x48>)
   d753e:	4805      	ldr	r0, [pc, #20]	; (d7554 <_Z22__fetch_global_Serial1v+0x40>)
   d7540:	f000 fab8 	bl	d7ab4 <__aeabi_atexit>
    serial1_tx_buffer = new Ring_Buffer();
  }
  static USARTSerial serial1(HAL_USART_SERIAL1, serial1_rx_buffer, serial1_tx_buffer);
#endif
	return serial1;
}
   d7544:	4803      	ldr	r0, [pc, #12]	; (d7554 <_Z22__fetch_global_Serial1v+0x40>)
   d7546:	bd38      	pop	{r3, r4, r5, pc}
   d7548:	2003e4b0 	.word	0x2003e4b0
   d754c:	2003e4b4 	.word	0x2003e4b4
   d7550:	2003e42c 	.word	0x2003e42c
   d7554:	2003e418 	.word	0x2003e418
   d7558:	2003e36c 	.word	0x2003e36c
   d755c:	000d7449 	.word	0x000d7449

000d7560 <_ZN7TwoWireD1Ev>:
private:
  HAL_I2C_Interface _i2c;

public:
  TwoWire(HAL_I2C_Interface i2c, const HAL_I2C_Config& config);
  virtual ~TwoWire() {};
   d7560:	4770      	bx	lr

000d7562 <_ZN7TwoWire5writeEPKhj>:

// must be called in:
// slave tx event callback
// or after beginTransmission(address)
size_t TwoWire::write(const uint8_t *data, size_t quantity)
{
   d7562:	b5f8      	push	{r3, r4, r5, r6, r7, lr}
   d7564:	4606      	mov	r6, r0
   d7566:	4615      	mov	r5, r2
   d7568:	460c      	mov	r4, r1
   d756a:	188f      	adds	r7, r1, r2
  // in master/slave transmitter mode
  for(size_t i = 0; i < quantity; ++i)
   d756c:	42bc      	cmp	r4, r7
   d756e:	d006      	beq.n	d757e <_ZN7TwoWire5writeEPKhj+0x1c>
  {
    write(data[i]);
   d7570:	6833      	ldr	r3, [r6, #0]
   d7572:	f814 1b01 	ldrb.w	r1, [r4], #1
   d7576:	689b      	ldr	r3, [r3, #8]
   d7578:	4630      	mov	r0, r6
   d757a:	4798      	blx	r3
// slave tx event callback
// or after beginTransmission(address)
size_t TwoWire::write(const uint8_t *data, size_t quantity)
{
  // in master/slave transmitter mode
  for(size_t i = 0; i < quantity; ++i)
   d757c:	e7f6      	b.n	d756c <_ZN7TwoWire5writeEPKhj+0xa>
  {
    write(data[i]);
  }

  return quantity;
}
   d757e:	4628      	mov	r0, r5
   d7580:	bdf8      	pop	{r3, r4, r5, r6, r7, pc}

000d7582 <_ZN7TwoWire5writeEh>:
// must be called in:
// slave tx event callback
// or after beginTransmission(address)
size_t TwoWire::write(uint8_t data)
{
  return HAL_I2C_Write_Data(_i2c, data, NULL);
   d7582:	2200      	movs	r2, #0
   d7584:	7c00      	ldrb	r0, [r0, #16]
   d7586:	f7fe b9ab 	b.w	d58e0 <HAL_I2C_Write_Data>

000d758a <_ZN7TwoWire9availableEv>:
// must be called in:
// slave rx event callback
// or after requestFrom(address, numBytes)
int TwoWire::available(void)
{
  return HAL_I2C_Available_Data(_i2c, NULL);
   d758a:	2100      	movs	r1, #0
   d758c:	7c00      	ldrb	r0, [r0, #16]
   d758e:	f7fe b9af 	b.w	d58f0 <HAL_I2C_Available_Data>

000d7592 <_ZN7TwoWire4readEv>:
// must be called in:
// slave rx event callback
// or after requestFrom(address, numBytes)
int TwoWire::read(void)
{
  return HAL_I2C_Read_Data(_i2c, NULL);
   d7592:	2100      	movs	r1, #0
   d7594:	7c00      	ldrb	r0, [r0, #16]
   d7596:	f7fe b9b3 	b.w	d5900 <HAL_I2C_Read_Data>

000d759a <_ZN7TwoWire4peekEv>:
// must be called in:
// slave rx event callback
// or after requestFrom(address, numBytes)
int TwoWire::peek(void)
{
  return HAL_I2C_Peek_Data(_i2c, NULL);
   d759a:	2100      	movs	r1, #0
   d759c:	7c00      	ldrb	r0, [r0, #16]
   d759e:	f7fe b9b7 	b.w	d5910 <HAL_I2C_Peek_Data>

000d75a2 <_ZN7TwoWire5flushEv>:
}

void TwoWire::flush(void)
{
  HAL_I2C_Flush_Data(_i2c, NULL);
   d75a2:	2100      	movs	r1, #0
   d75a4:	7c00      	ldrb	r0, [r0, #16]
   d75a6:	f7fe b9bb 	b.w	d5920 <HAL_I2C_Flush_Data>

000d75aa <_ZN7TwoWireD0Ev>:
   d75aa:	b510      	push	{r4, lr}
   d75ac:	2114      	movs	r1, #20
   d75ae:	4604      	mov	r4, r0
   d75b0:	f000 fa8e 	bl	d7ad0 <_ZdlPvj>
   d75b4:	4620      	mov	r0, r4
   d75b6:	bd10      	pop	{r4, pc}

000d75b8 <_ZN7TwoWireC1E17HAL_I2C_InterfaceRK14HAL_I2C_Config>:
#include "i2c_hal.h"
#include "spark_wiring_thread.h"

// Constructors ////////////////////////////////////////////////////////////////

TwoWire::TwoWire(HAL_I2C_Interface i2c, const HAL_I2C_Config& conf)
   d75b8:	b510      	push	{r4, lr}
   d75ba:	4604      	mov	r4, r0
   d75bc:	2300      	movs	r3, #0
   d75be:	6063      	str	r3, [r4, #4]
   d75c0:	f44f 737a 	mov.w	r3, #1000	; 0x3e8
   d75c4:	60a3      	str	r3, [r4, #8]
   d75c6:	4b04      	ldr	r3, [pc, #16]	; (d75d8 <_ZN7TwoWireC1E17HAL_I2C_InterfaceRK14HAL_I2C_Config+0x20>)
{
  _i2c = i2c;
   d75c8:	7421      	strb	r1, [r4, #16]
#include "i2c_hal.h"
#include "spark_wiring_thread.h"

// Constructors ////////////////////////////////////////////////////////////////

TwoWire::TwoWire(HAL_I2C_Interface i2c, const HAL_I2C_Config& conf)
   d75ca:	4608      	mov	r0, r1
   d75cc:	6023      	str	r3, [r4, #0]
{
  _i2c = i2c;
  HAL_I2C_Init(_i2c, &conf);
   d75ce:	4611      	mov	r1, r2
   d75d0:	f7fe f9b6 	bl	d5940 <HAL_I2C_Init>
}
   d75d4:	4620      	mov	r0, r4
   d75d6:	bd10      	pop	{r4, pc}
   d75d8:	000d882c 	.word	0x000d882c

000d75dc <_ZN7TwoWire9isEnabledEv>:
  HAL_I2C_Set_Callback_On_Request(_i2c, function, NULL);
}

bool TwoWire::isEnabled()
{
  return HAL_I2C_Is_Enabled(_i2c, NULL);
   d75dc:	2100      	movs	r1, #0
   d75de:	7c00      	ldrb	r0, [r0, #16]
   d75e0:	f7fe b9a6 	b.w	d5930 <HAL_I2C_Is_Enabled>

000d75e4 <_ZN5spark9MeshClass9listeningEv>:
    uint16_t getListenTimeout(void) {
        return network_get_listen_timeout(*this, 0, NULL);
    }

    bool listening(void) {
        return network_listening(*this, 0, NULL);
   d75e4:	2200      	movs	r2, #0
   d75e6:	4611      	mov	r1, r2
   d75e8:	6840      	ldr	r0, [r0, #4]
   d75ea:	f7fe ba8d 	b.w	d5b08 <network_listening>

000d75ee <_ZN5spark9MeshClass16getListenTimeoutEv>:
    void setListenTimeout(uint16_t timeout) {
        network_set_listen_timeout(*this, timeout, NULL);
    }

    uint16_t getListenTimeout(void) {
        return network_get_listen_timeout(*this, 0, NULL);
   d75ee:	2200      	movs	r2, #0
   d75f0:	4611      	mov	r1, r2
   d75f2:	6840      	ldr	r0, [r0, #4]
   d75f4:	f7fe ba98 	b.w	d5b28 <network_get_listen_timeout>

000d75f8 <_ZN5spark9MeshClass16setListenTimeoutEt>:
    void listen(bool begin=true) {
        network_listen(*this, begin ? 0 : 1, NULL);
    }

    void setListenTimeout(uint16_t timeout) {
        network_set_listen_timeout(*this, timeout, NULL);
   d75f8:	2200      	movs	r2, #0
   d75fa:	6840      	ldr	r0, [r0, #4]
   d75fc:	f7fe ba8c 	b.w	d5b18 <network_set_listen_timeout>

000d7600 <_ZN5spark9MeshClass6listenEb>:
    void disconnect() {
        network_disconnect(*this, NETWORK_DISCONNECT_REASON_USER, NULL);
    }

    void listen(bool begin=true) {
        network_listen(*this, begin ? 0 : 1, NULL);
   d7600:	2200      	movs	r2, #0
   d7602:	f081 0101 	eor.w	r1, r1, #1
   d7606:	6840      	ldr	r0, [r0, #4]
   d7608:	f7fe ba76 	b.w	d5af8 <network_listen>

000d760c <_ZN5spark9MeshClass3offEv>:
    void on() {
        network_on(*this, 0, 0, NULL);
    }

    void off() {
        network_off(*this, 1, 0, NULL);
   d760c:	2300      	movs	r3, #0
   d760e:	461a      	mov	r2, r3
   d7610:	2101      	movs	r1, #1
   d7612:	6840      	ldr	r0, [r0, #4]
   d7614:	f7fe ba68 	b.w	d5ae8 <network_off>

000d7618 <_ZN5spark9MeshClass2onEv>:
    MeshClass() :
            NetworkClass(NETWORK_INTERFACE_MESH) {
    }

    void on() {
        network_on(*this, 0, 0, NULL);
   d7618:	2300      	movs	r3, #0
   d761a:	461a      	mov	r2, r3
   d761c:	4619      	mov	r1, r3
   d761e:	6840      	ldr	r0, [r0, #4]
   d7620:	f7fe ba5a 	b.w	d5ad8 <network_on>

000d7624 <_ZN5spark9MeshClass5readyEv>:
    bool listening(void) {
        return network_listening(*this, 0, NULL);
    }

    bool ready() {
        return network_ready(*this, 0,  NULL);
   d7624:	2200      	movs	r2, #0
   d7626:	4611      	mov	r1, r2
   d7628:	6840      	ldr	r0, [r0, #4]
   d762a:	f7fe ba4d 	b.w	d5ac8 <network_ready>

000d762e <_ZN5spark9MeshClass10connectingEv>:
    void connect(unsigned flags=0) {
        network_connect(*this, flags, 0, NULL);
    }

    bool connecting(void) {
        return network_connecting(*this, 0, NULL);
   d762e:	2200      	movs	r2, #0
   d7630:	4611      	mov	r1, r2
   d7632:	6840      	ldr	r0, [r0, #4]
   d7634:	f7fe ba38 	b.w	d5aa8 <network_connecting>

000d7638 <_ZN5spark9MeshClass10disconnectEv>:
    }

    void disconnect() {
        network_disconnect(*this, NETWORK_DISCONNECT_REASON_USER, NULL);
   d7638:	2200      	movs	r2, #0
   d763a:	2102      	movs	r1, #2
   d763c:	6840      	ldr	r0, [r0, #4]
   d763e:	f7fe ba3b 	b.w	d5ab8 <network_disconnect>

000d7642 <_ZN5spark9MeshClass7connectEj>:
    void off() {
        network_off(*this, 1, 0, NULL);
    }

    void connect(unsigned flags=0) {
        network_connect(*this, flags, 0, NULL);
   d7642:	2300      	movs	r3, #0
   d7644:	461a      	mov	r2, r3
   d7646:	6840      	ldr	r0, [r0, #4]
   d7648:	f7fe ba26 	b.w	d5a98 <network_connect>

000d764c <_ZNKSt14default_deleteIN6Thread4DataEEclEPS1_.isra.6>:
	       enable_if<is_convertible<_Up*, _Tp*>::value>::type>
        default_delete(const default_delete<_Up>&) noexcept { }

      /// Calls @c delete @p __ptr
      void
      operator()(_Tp* __ptr) const
   d764c:	b538      	push	{r3, r4, r5, lr}
      {
	static_assert(!is_void<_Tp>::value,
		      "can't delete pointer to incomplete type");
	static_assert(sizeof(_Tp)>0,
		      "can't delete pointer to incomplete type");
	delete __ptr;
   d764e:	4605      	mov	r5, r0
   d7650:	b188      	cbz	r0, d7676 <_ZNKSt14default_deleteIN6Thread4DataEEclEPS1_.isra.6+0x2a>

      /// Destructor, invokes the deleter if the stored pointer is not null.
      ~unique_ptr() noexcept
      {
	auto& __ptr = std::get<0>(_M_t);
	if (__ptr != nullptr)
   d7652:	6804      	ldr	r4, [r0, #0]
   d7654:	b14c      	cbz	r4, d766a <_ZNKSt14default_deleteIN6Thread4DataEEclEPS1_.isra.6+0x1e>

    ~_Function_base()
    {
      if (_M_manager)
   d7656:	68a3      	ldr	r3, [r4, #8]
   d7658:	b11b      	cbz	r3, d7662 <_ZNKSt14default_deleteIN6Thread4DataEEclEPS1_.isra.6+0x16>
	_M_manager(_M_functor, _M_functor, __destroy_functor);
   d765a:	2203      	movs	r2, #3
   d765c:	4621      	mov	r1, r4
   d765e:	4620      	mov	r0, r4
   d7660:	4798      	blx	r3
      {
	static_assert(!is_void<_Tp>::value,
		      "can't delete pointer to incomplete type");
	static_assert(sizeof(_Tp)>0,
		      "can't delete pointer to incomplete type");
	delete __ptr;
   d7662:	2110      	movs	r1, #16
   d7664:	4620      	mov	r0, r4
   d7666:	f000 fa33 	bl	d7ad0 <_ZdlPvj>
   d766a:	4628      	mov	r0, r5
   d766c:	2114      	movs	r1, #20
      }
   d766e:	e8bd 4038 	ldmia.w	sp!, {r3, r4, r5, lr}
      {
	static_assert(!is_void<_Tp>::value,
		      "can't delete pointer to incomplete type");
	static_assert(sizeof(_Tp)>0,
		      "can't delete pointer to incomplete type");
	delete __ptr;
   d7672:	f000 ba2d 	b.w	d7ad0 <_ZdlPvj>
   d7676:	bd38      	pop	{r3, r4, r5, pc}

000d7678 <_ZNKSt14default_deleteI3UDPEclEPS0_.isra.8.constprop.13>:
   d7678:	b110      	cbz	r0, d7680 <_ZNKSt14default_deleteI3UDPEclEPS0_.isra.8.constprop.13+0x8>
   d767a:	6803      	ldr	r3, [r0, #0]
   d767c:	685b      	ldr	r3, [r3, #4]
   d767e:	4718      	bx	r3
   d7680:	4770      	bx	lr

000d7682 <_ZN6ThreadD1Ev>:
    Thread(Thread&& thread)
        : d_(std::move(thread.d_))
    {
    }

    ~Thread()
   d7682:	b510      	push	{r4, lr}
      }

      /// Return the stored pointer.
      pointer
      get() const noexcept
      { return std::get<0>(_M_t); }
   d7684:	6803      	ldr	r3, [r0, #0]
   d7686:	4604      	mov	r4, r0
        dispose();
    }

    void dispose()
    {
        if (!isValid())
   d7688:	b1bb      	cbz	r3, d76ba <_ZN6ThreadD1Ev+0x38>
        return isCurrent();
    }

    bool isCurrent() const
    {
        return isValid() && os_thread_is_current(d_->handle);
   d768a:	6858      	ldr	r0, [r3, #4]
   d768c:	f7fe f898 	bl	d57c0 <os_thread_is_current>
   d7690:	b978      	cbnz	r0, d76b2 <_ZN6ThreadD1Ev+0x30>
   d7692:	6823      	ldr	r3, [r4, #0]

        // We shouldn't dispose of current thread
        if (isCurrent())
            return;

        if (!d_->exited) {
   d7694:	7c5a      	ldrb	r2, [r3, #17]
   d7696:	b912      	cbnz	r2, d769e <_ZN6ThreadD1Ev+0x1c>
        d_.reset();
    }

    bool join()
    {
        return isValid() && os_thread_join(d_->handle)==0;
   d7698:	6858      	ldr	r0, [r3, #4]
   d769a:	f7fe f899 	bl	d57d0 <os_thread_join>

        if (!d_->exited) {
            join();
        }

        os_thread_cleanup(d_->handle);
   d769e:	6823      	ldr	r3, [r4, #0]
   d76a0:	6858      	ldr	r0, [r3, #4]
   d76a2:	f7fe f89d 	bl	d57e0 <os_thread_cleanup>
#endif
    {
      // concept requirements
      __glibcxx_function_requires(_SGIAssignableConcept<_Tp>)

      _Tp __tmp = _GLIBCXX_MOVE(__a);
   d76a6:	6820      	ldr	r0, [r4, #0]
      __a = _GLIBCXX_MOVE(__b);
   d76a8:	2300      	movs	r3, #0
   d76aa:	6023      	str	r3, [r4, #0]
      void
      reset(pointer __p = pointer()) noexcept
      {
	using std::swap;
	swap(std::get<0>(_M_t), __p);
	if (__p != pointer())
   d76ac:	b128      	cbz	r0, d76ba <_ZN6ThreadD1Ev+0x38>
	  get_deleter()(__p);
   d76ae:	f7ff ffcd 	bl	d764c <_ZNKSt14default_deleteIN6Thread4DataEEclEPS1_.isra.6>

      /// Destructor, invokes the deleter if the stored pointer is not null.
      ~unique_ptr() noexcept
      {
	auto& __ptr = std::get<0>(_M_t);
	if (__ptr != nullptr)
   d76b2:	6820      	ldr	r0, [r4, #0]
   d76b4:	b108      	cbz	r0, d76ba <_ZN6ThreadD1Ev+0x38>
	  get_deleter()(__ptr);
   d76b6:	f7ff ffc9 	bl	d764c <_ZNKSt14default_deleteIN6Thread4DataEEclEPS1_.isra.6>
    }

    ~Thread()
    {
        dispose();
    }
   d76ba:	4620      	mov	r0, r4
   d76bc:	bd10      	pop	{r4, pc}

000d76be <_ZN5spark11MeshPublishD1Ev>:
    virtual float getQualityValue() const {
        return 0.0f;
    }
};

class MeshPublish {
   d76be:	b538      	push	{r3, r4, r5, lr}
   d76c0:	4604      	mov	r4, r0

      /// Destructor, invokes the deleter if the stored pointer is not null.
      ~unique_ptr()
      {
	auto& __ptr = std::get<0>(_M_t);
	if (__ptr != nullptr)
   d76c2:	f8d0 01c4 	ldr.w	r0, [r0, #452]	; 0x1c4
   d76c6:	b108      	cbz	r0, d76cc <_ZN5spark11MeshPublishD1Ev+0xe>
      void
      operator()(_Tp* __ptr) const
      {
	static_assert(sizeof(_Tp)>0,
		      "can't delete pointer to incomplete type");
	delete [] __ptr;
   d76c8:	f7fc fceb 	bl	d40a2 <_ZdaPv>
        dispose();
    }

    void dispose()
    {
        if (handle_) {
   d76cc:	f8d4 01c0 	ldr.w	r0, [r4, #448]	; 0x1c0
   d76d0:	b108      	cbz	r0, d76d6 <_ZN5spark11MeshPublishD1Ev+0x18>
            os_mutex_recursive_destroy(handle_);
   d76d2:	f7fe f895 	bl	d5800 <os_mutex_recursive_destroy>

      /// Destructor, invokes the deleter if the stored pointer is not null.
      ~unique_ptr() noexcept
      {
	auto& __ptr = std::get<0>(_M_t);
	if (__ptr != nullptr)
   d76d6:	f8d4 51bc 	ldr.w	r5, [r4, #444]	; 0x1bc
   d76da:	b135      	cbz	r5, d76ea <_ZN5spark11MeshPublishD1Ev+0x2c>
      {
	static_assert(!is_void<_Tp>::value,
		      "can't delete pointer to incomplete type");
	static_assert(sizeof(_Tp)>0,
		      "can't delete pointer to incomplete type");
	delete __ptr;
   d76dc:	4628      	mov	r0, r5
   d76de:	f7ff ffd0 	bl	d7682 <_ZN6ThreadD1Ev>
   d76e2:	2104      	movs	r1, #4
   d76e4:	4628      	mov	r0, r5
   d76e6:	f000 f9f3 	bl	d7ad0 <_ZdlPvj>

      /// Destructor, invokes the deleter if the stored pointer is not null.
      ~unique_ptr() noexcept
      {
	auto& __ptr = std::get<0>(_M_t);
	if (__ptr != nullptr)
   d76ea:	6820      	ldr	r0, [r4, #0]
   d76ec:	b108      	cbz	r0, d76f2 <_ZN5spark11MeshPublishD1Ev+0x34>
	  get_deleter()(__ptr);
   d76ee:	f7ff ffc3 	bl	d7678 <_ZNKSt14default_deleteI3UDPEclEPS0_.isra.8.constprop.13>
   d76f2:	4620      	mov	r0, r4
   d76f4:	bd38      	pop	{r3, r4, r5, pc}
	...

000d76f8 <_ZN5spark9MeshClassD1Ev>:
    RecursiveMutex mutex_;
    std::unique_ptr<uint8_t[]> buffer_;
    std::atomic_bool exit_;
};

class MeshClass : public NetworkClass, public MeshPublish {
   d76f8:	b510      	push	{r4, lr}
   d76fa:	4b04      	ldr	r3, [pc, #16]	; (d770c <_ZN5spark9MeshClassD1Ev+0x14>)
   d76fc:	4604      	mov	r4, r0
   d76fe:	f840 3b08 	str.w	r3, [r0], #8
   d7702:	f7ff ffdc 	bl	d76be <_ZN5spark11MeshPublishD1Ev>
   d7706:	4620      	mov	r0, r4
   d7708:	bd10      	pop	{r4, pc}
   d770a:	bf00      	nop
   d770c:	000d8854 	.word	0x000d8854

000d7710 <_GLOBAL__sub_I__ZN5spark11MeshPublish13Subscriptions20event_handler_existsEPKcPFvS3_S3_EPvN17SubscriptionScope4EnumES3_>:

    return addr;
}

MeshClass Mesh;
} // namespace spark
   d7710:	b538      	push	{r3, r4, r5, lr}
   d7712:	4c0e      	ldr	r4, [pc, #56]	; (d774c <_GLOBAL__sub_I__ZN5spark11MeshPublish13Subscriptions20event_handler_existsEPKcPFvS3_S3_EPvN17SubscriptionScope4EnumES3_+0x3c>)
   d7714:	4b0e      	ldr	r3, [pc, #56]	; (d7750 <_GLOBAL__sub_I__ZN5spark11MeshPublish13Subscriptions20event_handler_existsEPKcPFvS3_S3_EPvN17SubscriptionScope4EnumES3_+0x40>)
   d7716:	6023      	str	r3, [r4, #0]

  template<std::size_t _Idx, typename _Head>
    struct _Head_base<_Idx, _Head, false>
    {
      constexpr _Head_base()
      : _M_head_impl() { }
   d7718:	2500      	movs	r5, #0
   d771a:	2302      	movs	r3, #2
     */
    RecursiveMutex(os_mutex_recursive_t handle) : handle_(handle) {}

    RecursiveMutex() : handle_(nullptr)
    {
        os_mutex_recursive_create(&handle_);
   d771c:	f504 70e4 	add.w	r0, r4, #456	; 0x1c8
   d7720:	6063      	str	r3, [r4, #4]
   d7722:	60a5      	str	r5, [r4, #8]
   d7724:	f8c4 51c4 	str.w	r5, [r4, #452]	; 0x1c4
    /**
     * Creates a shared mutex.
     */
    RecursiveMutex(os_mutex_recursive_t handle) : handle_(handle) {}

    RecursiveMutex() : handle_(nullptr)
   d7728:	f8c4 51c8 	str.w	r5, [r4, #456]	; 0x1c8
    {
        os_mutex_recursive_create(&handle_);
   d772c:	f7fe f860 	bl	d57f0 <os_mutex_recursive_create>
public:
    MeshClass() :
            NetworkClass(NETWORK_INTERFACE_MESH) {
   d7730:	4b08      	ldr	r3, [pc, #32]	; (d7754 <_GLOBAL__sub_I__ZN5spark11MeshPublish13Subscriptions20event_handler_existsEPKcPFvS3_S3_EPvN17SubscriptionScope4EnumES3_+0x44>)
   d7732:	f8c4 51cc 	str.w	r5, [r4, #460]	; 0x1cc
      __atomic_base(const __atomic_base&) = delete;
      __atomic_base& operator=(const __atomic_base&) = delete;
      __atomic_base& operator=(const __atomic_base&) volatile = delete;

      // Requires __int_type convertible to _M_i.
      constexpr __atomic_base(__int_type __i) noexcept : _M_i (__i) { }
   d7736:	f884 51d0 	strb.w	r5, [r4, #464]	; 0x1d0
   d773a:	6023      	str	r3, [r4, #0]
    }

    return addr;
}

MeshClass Mesh;
   d773c:	4620      	mov	r0, r4
   d773e:	4a06      	ldr	r2, [pc, #24]	; (d7758 <_GLOBAL__sub_I__ZN5spark11MeshPublish13Subscriptions20event_handler_existsEPKcPFvS3_S3_EPvN17SubscriptionScope4EnumES3_+0x48>)
   d7740:	4906      	ldr	r1, [pc, #24]	; (d775c <_GLOBAL__sub_I__ZN5spark11MeshPublish13Subscriptions20event_handler_existsEPKcPFvS3_S3_EPvN17SubscriptionScope4EnumES3_+0x4c>)
} // namespace spark
   d7742:	e8bd 4038 	ldmia.w	sp!, {r3, r4, r5, lr}
    }

    return addr;
}

MeshClass Mesh;
   d7746:	f000 b9b5 	b.w	d7ab4 <__aeabi_atexit>
   d774a:	bf00      	nop
   d774c:	2003e538 	.word	0x2003e538
   d7750:	000d88bc 	.word	0x000d88bc
   d7754:	000d8854 	.word	0x000d8854
   d7758:	2003e36c 	.word	0x2003e36c
   d775c:	000d76f9 	.word	0x000d76f9

000d7760 <_ZN5spark9WiFiClass5readyEv>:
    bool connecting(void) {
        return network_connecting(*this, 0, NULL);
    }

    bool ready(void) {
        return network_ready(*this, 0, NULL);
   d7760:	2200      	movs	r2, #0
   d7762:	4611      	mov	r1, r2
   d7764:	6840      	ldr	r0, [r0, #4]
   d7766:	f7fe b9af 	b.w	d5ac8 <network_ready>

000d776a <_ZN5spark9WiFiClass9listeningEv>:
    uint16_t getListenTimeout(void) {
        return network_get_listen_timeout(*this, 0, NULL);
    }

    bool listening(void) {
        return network_listening(*this, 0, NULL);
   d776a:	2200      	movs	r2, #0
   d776c:	4611      	mov	r1, r2
   d776e:	6840      	ldr	r0, [r0, #4]
   d7770:	f7fe b9ca 	b.w	d5b08 <network_listening>

000d7774 <_ZN5spark9WiFiClass16getListenTimeoutEv>:
        network_set_listen_timeout(*this, timeout, NULL);
    }
    inline void setListenTimeout(std::chrono::seconds s) { setListenTimeout(s.count()); }

    uint16_t getListenTimeout(void) {
        return network_get_listen_timeout(*this, 0, NULL);
   d7774:	2200      	movs	r2, #0
   d7776:	4611      	mov	r1, r2
   d7778:	6840      	ldr	r0, [r0, #4]
   d777a:	f7fe b9d5 	b.w	d5b28 <network_get_listen_timeout>

000d777e <_ZN5spark9WiFiClass16setListenTimeoutEt>:
    void listen(bool begin=true) {
        network_listen(*this, begin ? 0 : 1, NULL);
    }

    void setListenTimeout(uint16_t timeout) {
        network_set_listen_timeout(*this, timeout, NULL);
   d777e:	2200      	movs	r2, #0
   d7780:	6840      	ldr	r0, [r0, #4]
   d7782:	f7fe b9c9 	b.w	d5b18 <network_set_listen_timeout>

000d7786 <_ZN5spark9WiFiClass6listenEb>:
    void off(void) {
        network_off(*this, 0, 0, NULL);
    }

    void listen(bool begin=true) {
        network_listen(*this, begin ? 0 : 1, NULL);
   d7786:	2200      	movs	r2, #0
   d7788:	f081 0101 	eor.w	r1, r1, #1
   d778c:	6840      	ldr	r0, [r0, #4]
   d778e:	f7fe b9b3 	b.w	d5af8 <network_listen>

000d7792 <_ZN5spark9WiFiClass3offEv>:
    void on(void) {
        network_on(*this, 0, 0, NULL);
    }

    void off(void) {
        network_off(*this, 0, 0, NULL);
   d7792:	2300      	movs	r3, #0
   d7794:	461a      	mov	r2, r3
   d7796:	4619      	mov	r1, r3
   d7798:	6840      	ldr	r0, [r0, #4]
   d779a:	f7fe b9a5 	b.w	d5ae8 <network_off>

000d779e <_ZN5spark9WiFiClass2onEv>:
    bool ready(void) {
        return network_ready(*this, 0, NULL);
    }

    void on(void) {
        network_on(*this, 0, 0, NULL);
   d779e:	2300      	movs	r3, #0
   d77a0:	461a      	mov	r2, r3
   d77a2:	4619      	mov	r1, r3
   d77a4:	6840      	ldr	r0, [r0, #4]
   d77a6:	f7fe b997 	b.w	d5ad8 <network_on>

000d77aa <_ZN5spark9WiFiClass10connectingEv>:
    void disconnect(void) {
        network_disconnect(*this, NETWORK_DISCONNECT_REASON_USER, NULL);
    }

    bool connecting(void) {
        return network_connecting(*this, 0, NULL);
   d77aa:	2200      	movs	r2, #0
   d77ac:	4611      	mov	r1, r2
   d77ae:	6840      	ldr	r0, [r0, #4]
   d77b0:	f7fe b97a 	b.w	d5aa8 <network_connecting>

000d77b4 <_ZN5spark9WiFiClass10disconnectEv>:
    void connect(unsigned flags=0) {
        network_connect(*this, flags, 0, NULL);
    }

    void disconnect(void) {
        network_disconnect(*this, NETWORK_DISCONNECT_REASON_USER, NULL);
   d77b4:	2200      	movs	r2, #0
   d77b6:	2102      	movs	r1, #2
   d77b8:	6840      	ldr	r0, [r0, #4]
   d77ba:	f7fe b97d 	b.w	d5ab8 <network_disconnect>

000d77be <_ZN5spark9WiFiClass7connectEj>:
    uint32_t ping(IPAddress remoteIP, uint8_t nTries) {
        return inet_ping(&remoteIP.raw(), *this, nTries, NULL);
    }

    void connect(unsigned flags=0) {
        network_connect(*this, flags, 0, NULL);
   d77be:	2300      	movs	r3, #0
   d77c0:	461a      	mov	r2, r3
   d77c2:	6840      	ldr	r0, [r0, #4]
   d77c4:	f7fe b968 	b.w	d5a98 <network_connect>

000d77c8 <_GLOBAL__sub_I__ZN10WiFiSignalC2ERK21wlan_connected_info_t>:
   d77c8:	4b02      	ldr	r3, [pc, #8]	; (d77d4 <_GLOBAL__sub_I__ZN10WiFiSignalC2ERK21wlan_connected_info_t+0xc>)
   d77ca:	2204      	movs	r2, #4
   d77cc:	605a      	str	r2, [r3, #4]
        wlan_set_ipaddress_source(source, true, NULL);
    }

public:
    WiFiClass() :
            NetworkClass(NETWORK_INTERFACE_WIFI_STA) {
   d77ce:	4a02      	ldr	r2, [pc, #8]	; (d77d8 <_GLOBAL__sub_I__ZN10WiFiSignalC2ERK21wlan_connected_info_t+0x10>)
   d77d0:	601a      	str	r2, [r3, #0]
   d77d2:	4770      	bx	lr
   d77d4:	2003e70c 	.word	0x2003e70c
   d77d8:	000d8888 	.word	0x000d8888

000d77dc <_ZN5spark12NetworkClass7connectEj>:
        return Network;
    }
}

void NetworkClass::connect(unsigned flags) {
    network_connect(*this, flags, 0, nullptr);
   d77dc:	2300      	movs	r3, #0
   d77de:	461a      	mov	r2, r3
   d77e0:	6840      	ldr	r0, [r0, #4]
   d77e2:	f7fe b959 	b.w	d5a98 <network_connect>

000d77e6 <_ZN5spark12NetworkClass10disconnectEv>:
}

void NetworkClass::disconnect() {
    network_disconnect(*this, NETWORK_DISCONNECT_REASON_USER, nullptr);
   d77e6:	2200      	movs	r2, #0
   d77e8:	2102      	movs	r1, #2
   d77ea:	6840      	ldr	r0, [r0, #4]
   d77ec:	f7fe b964 	b.w	d5ab8 <network_disconnect>

000d77f0 <_ZN5spark12NetworkClass10connectingEv>:
}

bool NetworkClass::connecting() {
    return network_connecting(*this, 0, nullptr);
   d77f0:	2200      	movs	r2, #0
   d77f2:	4611      	mov	r1, r2
   d77f4:	6840      	ldr	r0, [r0, #4]
   d77f6:	f7fe b957 	b.w	d5aa8 <network_connecting>

000d77fa <_ZN5spark12NetworkClass5readyEv>:
}

bool NetworkClass::ready() {
    return network_ready(*this, 0, nullptr);
   d77fa:	2200      	movs	r2, #0
   d77fc:	4611      	mov	r1, r2
   d77fe:	6840      	ldr	r0, [r0, #4]
   d7800:	f7fe b962 	b.w	d5ac8 <network_ready>

000d7804 <_ZN5spark12NetworkClass2onEv>:
}

void NetworkClass::on() {
    network_on(*this, 0, 0, nullptr);
   d7804:	2300      	movs	r3, #0
   d7806:	461a      	mov	r2, r3
   d7808:	4619      	mov	r1, r3
   d780a:	6840      	ldr	r0, [r0, #4]
   d780c:	f7fe b964 	b.w	d5ad8 <network_on>

000d7810 <_ZN5spark12NetworkClass3offEv>:
}

void NetworkClass::off() {
    network_off(*this, 0, 0, nullptr);
   d7810:	2300      	movs	r3, #0
   d7812:	461a      	mov	r2, r3
   d7814:	4619      	mov	r1, r3
   d7816:	6840      	ldr	r0, [r0, #4]
   d7818:	f7fe b966 	b.w	d5ae8 <network_off>

000d781c <_ZN5spark12NetworkClass6listenEb>:
}

void NetworkClass::listen(bool begin) {
    network_listen(*this, begin ? 0 : 1, nullptr);
   d781c:	2200      	movs	r2, #0
   d781e:	f081 0101 	eor.w	r1, r1, #1
   d7822:	6840      	ldr	r0, [r0, #4]
   d7824:	f7fe b968 	b.w	d5af8 <network_listen>

000d7828 <_ZN5spark12NetworkClass16setListenTimeoutEt>:
}

void NetworkClass::setListenTimeout(uint16_t timeout) {
    network_set_listen_timeout(*this, timeout, nullptr);
   d7828:	2200      	movs	r2, #0
   d782a:	6840      	ldr	r0, [r0, #4]
   d782c:	f7fe b974 	b.w	d5b18 <network_set_listen_timeout>

000d7830 <_ZN5spark12NetworkClass16getListenTimeoutEv>:
}

uint16_t NetworkClass::getListenTimeout() {
    return network_get_listen_timeout(*this, 0, nullptr);
   d7830:	2200      	movs	r2, #0
   d7832:	4611      	mov	r1, r2
   d7834:	6840      	ldr	r0, [r0, #4]
   d7836:	f7fe b977 	b.w	d5b28 <network_get_listen_timeout>

000d783a <_ZN5spark12NetworkClass9listeningEv>:
}

bool NetworkClass::listening() {
    return network_listening(*this, 0, nullptr);
   d783a:	2200      	movs	r2, #0
   d783c:	4611      	mov	r1, r2
   d783e:	6840      	ldr	r0, [r0, #4]
   d7840:	f7fe b962 	b.w	d5b08 <network_listening>

000d7844 <_ZN5spark12NetworkClass7resolveEPKc>:
}

IPAddress NetworkClass::resolve(const char* name) {
   d7844:	e92d 43f0 	stmdb	sp!, {r4, r5, r6, r7, r8, r9, lr}
    IPAddress addr;
#if HAL_USE_INET_HAL_POSIX
    struct addrinfo *ai = nullptr;
   d7848:	2400      	movs	r4, #0

bool NetworkClass::listening() {
    return network_listening(*this, 0, nullptr);
}

IPAddress NetworkClass::resolve(const char* name) {
   d784a:	b095      	sub	sp, #84	; 0x54
   d784c:	4616      	mov	r6, r2
   d784e:	460d      	mov	r5, r1
   d7850:	4607      	mov	r7, r0
    IPAddress addr;
   d7852:	f7ff fd13 	bl	d727c <_ZN9IPAddressC1Ev>
#if HAL_USE_INET_HAL_POSIX
    struct addrinfo *ai = nullptr;
    struct addrinfo hints = {};
   d7856:	4621      	mov	r1, r4
   d7858:	2220      	movs	r2, #32
   d785a:	a80c      	add	r0, sp, #48	; 0x30
}

IPAddress NetworkClass::resolve(const char* name) {
    IPAddress addr;
#if HAL_USE_INET_HAL_POSIX
    struct addrinfo *ai = nullptr;
   d785c:	9400      	str	r4, [sp, #0]
    struct addrinfo hints = {};
   d785e:	f000 fad6 	bl	d7e0e <memset>
    hints.ai_flags = AI_ADDRCONFIG;
   d7862:	2340      	movs	r3, #64	; 0x40
   d7864:	930c      	str	r3, [sp, #48]	; 0x30
    hints.ai_family = AF_UNSPEC;
    const int r = getaddrinfo(name, nullptr, &hints, &ai);
   d7866:	4621      	mov	r1, r4
   d7868:	466b      	mov	r3, sp
   d786a:	aa0c      	add	r2, sp, #48	; 0x30
   d786c:	4630      	mov	r0, r6
   d786e:	f7fd fea5 	bl	d55bc <netdb_getaddrinfo>
    if (!r) {
   d7872:	4604      	mov	r4, r0
   d7874:	2800      	cmp	r0, #0
   d7876:	d144      	bne.n	d7902 <_ZN5spark12NetworkClass7resolveEPKc+0xbe>
        bool ok = false;
        // This is not really needed if AI_ADDRCONFIG is properly supported
        bool ipv4 = network_ready(*this, NETWORK_READY_TYPE_IPV4, nullptr);
   d7878:	4602      	mov	r2, r0
   d787a:	2101      	movs	r1, #1
   d787c:	6868      	ldr	r0, [r5, #4]
   d787e:	f7fe f923 	bl	d5ac8 <network_ready>
        bool ipv6 = network_ready(*this, NETWORK_READY_TYPE_IPV6, nullptr);
   d7882:	2102      	movs	r1, #2
    hints.ai_family = AF_UNSPEC;
    const int r = getaddrinfo(name, nullptr, &hints, &ai);
    if (!r) {
        bool ok = false;
        // This is not really needed if AI_ADDRCONFIG is properly supported
        bool ipv4 = network_ready(*this, NETWORK_READY_TYPE_IPV4, nullptr);
   d7884:	4680      	mov	r8, r0
        bool ipv6 = network_ready(*this, NETWORK_READY_TYPE_IPV6, nullptr);
   d7886:	4622      	mov	r2, r4
   d7888:	6868      	ldr	r0, [r5, #4]
   d788a:	f7fe f91d 	bl	d5ac8 <network_ready>
        for (auto cur = ai; cur != nullptr && !ok; cur = cur->ai_next) {
   d788e:	9e00      	ldr	r6, [sp, #0]
    const int r = getaddrinfo(name, nullptr, &hints, &ai);
    if (!r) {
        bool ok = false;
        // This is not really needed if AI_ADDRCONFIG is properly supported
        bool ipv4 = network_ready(*this, NETWORK_READY_TYPE_IPV4, nullptr);
        bool ipv6 = network_ready(*this, NETWORK_READY_TYPE_IPV6, nullptr);
   d7890:	4681      	mov	r9, r0
    struct addrinfo hints = {};
    hints.ai_flags = AI_ADDRCONFIG;
    hints.ai_family = AF_UNSPEC;
    const int r = getaddrinfo(name, nullptr, &hints, &ai);
    if (!r) {
        bool ok = false;
   d7892:	4621      	mov	r1, r4
        // This is not really needed if AI_ADDRCONFIG is properly supported
        bool ipv4 = network_ready(*this, NETWORK_READY_TYPE_IPV4, nullptr);
        bool ipv6 = network_ready(*this, NETWORK_READY_TYPE_IPV6, nullptr);
        for (auto cur = ai; cur != nullptr && !ok; cur = cur->ai_next) {
   d7894:	2e00      	cmp	r6, #0
   d7896:	d034      	beq.n	d7902 <_ZN5spark12NetworkClass7resolveEPKc+0xbe>
   d7898:	2900      	cmp	r1, #0
   d789a:	d132      	bne.n	d7902 <_ZN5spark12NetworkClass7resolveEPKc+0xbe>
            // NOTE: using only the first entry that matches the current state of IPv4/IPv6 connectivity
            switch (cur->ai_family) {
   d789c:	6873      	ldr	r3, [r6, #4]
   d789e:	2b02      	cmp	r3, #2
   d78a0:	d002      	beq.n	d78a8 <_ZN5spark12NetworkClass7resolveEPKc+0x64>
   d78a2:	2b0a      	cmp	r3, #10
   d78a4:	d009      	beq.n	d78ba <_ZN5spark12NetworkClass7resolveEPKc+0x76>
   d78a6:	e02a      	b.n	d78fe <_ZN5spark12NetworkClass7resolveEPKc+0xba>
                case AF_INET: {
                    if (!ipv4) {
   d78a8:	f1b8 0f00 	cmp.w	r8, #0
   d78ac:	d027      	beq.n	d78fe <_ZN5spark12NetworkClass7resolveEPKc+0xba>
                        continue;
                    }
                    // NOTE: HAL_IPAddress is little-endian
                    auto in = (struct sockaddr_in*)cur->ai_addr;
                    addr = (const uint8_t*)(&in->sin_addr.s_addr);
   d78ae:	6971      	ldr	r1, [r6, #20]
   d78b0:	4638      	mov	r0, r7
   d78b2:	3104      	adds	r1, #4
   d78b4:	f7ff fd0f 	bl	d72d6 <_ZN9IPAddressaSEPKh>
   d78b8:	e020      	b.n	d78fc <_ZN5spark12NetworkClass7resolveEPKc+0xb8>
                    ok = true;
                    break;
                }
                case AF_INET6: {
                    if (!ipv6) {
   d78ba:	f1b9 0f00 	cmp.w	r9, #0
   d78be:	d01e      	beq.n	d78fe <_ZN5spark12NetworkClass7resolveEPKc+0xba>
                        continue;
                    }
                    auto in6 = (struct sockaddr_in6*)cur->ai_addr;
   d78c0:	6974      	ldr	r4, [r6, #20]
                    HAL_IPAddress a = {};
   d78c2:	2211      	movs	r2, #17
   d78c4:	a801      	add	r0, sp, #4
   d78c6:	f000 faa2 	bl	d7e0e <memset>
                    a.v = 6;
   d78ca:	2306      	movs	r3, #6
   d78cc:	f88d 3014 	strb.w	r3, [sp, #20]
                    memcpy(a.ipv6, in6->sin6_addr.s6_addr, sizeof(a.ipv6));
   d78d0:	ad01      	add	r5, sp, #4
   d78d2:	f104 0308 	add.w	r3, r4, #8
   d78d6:	3418      	adds	r4, #24
   d78d8:	6818      	ldr	r0, [r3, #0]
   d78da:	6859      	ldr	r1, [r3, #4]
   d78dc:	462a      	mov	r2, r5
   d78de:	c203      	stmia	r2!, {r0, r1}
   d78e0:	3308      	adds	r3, #8
   d78e2:	42a3      	cmp	r3, r4
   d78e4:	4615      	mov	r5, r2
   d78e6:	d1f7      	bne.n	d78d8 <_ZN5spark12NetworkClass7resolveEPKc+0x94>
                    addr = IPAddress(a);
   d78e8:	a901      	add	r1, sp, #4
   d78ea:	a806      	add	r0, sp, #24

/**
 * The IP address stored in host order.
 *
 */
class IPAddress : public Printable {
   d78ec:	ad07      	add	r5, sp, #28
   d78ee:	f7ff fcd3 	bl	d7298 <_ZN9IPAddressC1ERK16_HAL_IPAddress_t>
   d78f2:	cd0f      	ldmia	r5!, {r0, r1, r2, r3}
   d78f4:	1d3c      	adds	r4, r7, #4
   d78f6:	c40f      	stmia	r4!, {r0, r1, r2, r3}
   d78f8:	682b      	ldr	r3, [r5, #0]
   d78fa:	7023      	strb	r3, [r4, #0]
                    ok = true;
   d78fc:	2101      	movs	r1, #1
    if (!r) {
        bool ok = false;
        // This is not really needed if AI_ADDRCONFIG is properly supported
        bool ipv4 = network_ready(*this, NETWORK_READY_TYPE_IPV4, nullptr);
        bool ipv6 = network_ready(*this, NETWORK_READY_TYPE_IPV6, nullptr);
        for (auto cur = ai; cur != nullptr && !ok; cur = cur->ai_next) {
   d78fe:	69f6      	ldr	r6, [r6, #28]
   d7900:	e7c8      	b.n	d7894 <_ZN5spark12NetworkClass7resolveEPKc+0x50>
                    break;
                }
            }
        }
    }
    freeaddrinfo(ai);
   d7902:	9800      	ldr	r0, [sp, #0]
   d7904:	f7fd fe52 	bl	d55ac <netdb_freeaddrinfo>
    return Cellular.resolve(name);
#endif // Wiring_Cellular

#endif // HAL_USE_INET_HAL_POSIX
    return addr;
}
   d7908:	4638      	mov	r0, r7
   d790a:	b015      	add	sp, #84	; 0x54
   d790c:	e8bd 83f0 	ldmia.w	sp!, {r4, r5, r6, r7, r8, r9, pc}

000d7910 <_GLOBAL__sub_I__ZN5spark7NetworkE>:
   d7910:	4b02      	ldr	r3, [pc, #8]	; (d791c <_GLOBAL__sub_I__ZN5spark7NetworkE+0xc>)
   d7912:	4a03      	ldr	r2, [pc, #12]	; (d7920 <_GLOBAL__sub_I__ZN5spark7NetworkE+0x10>)
   d7914:	601a      	str	r2, [r3, #0]
   d7916:	2200      	movs	r2, #0
   d7918:	605a      	str	r2, [r3, #4]
   d791a:	4770      	bx	lr
   d791c:	2003e714 	.word	0x2003e714
   d7920:	000d88bc 	.word	0x000d88bc

000d7924 <pinAvailable>:

/*
 * @brief Perform safety check on desired pin to see if it's already
 * being used.  Return 0 if used, otherwise return 1 if available.
 */
bool pinAvailable(uint16_t pin) {
   d7924:	b570      	push	{r4, r5, r6, lr}

template <HAL_SPI_Interface Interface>
class SpiProxy {
public:
    static SPIClass& instance() {
        static SPIClass instance(Interface);
   d7926:	4e18      	ldr	r6, [pc, #96]	; (d7988 <pinAvailable+0x64>)
   d7928:	6831      	ldr	r1, [r6, #0]
   d792a:	f011 0501 	ands.w	r5, r1, #1
   d792e:	4604      	mov	r4, r0
   d7930:	d10a      	bne.n	d7948 <pinAvailable+0x24>
   d7932:	4630      	mov	r0, r6
   d7934:	f7fc fbb7 	bl	d40a6 <__cxa_guard_acquire>
   d7938:	b130      	cbz	r0, d7948 <pinAvailable+0x24>
   d793a:	4629      	mov	r1, r5
   d793c:	4813      	ldr	r0, [pc, #76]	; (d798c <pinAvailable+0x68>)
   d793e:	f7fe f969 	bl	d5c14 <_ZN8SPIClassC1E17HAL_SPI_Interface>
   d7942:	4630      	mov	r0, r6
   d7944:	f7fc fbb4 	bl	d40b0 <__cxa_guard_release>
    }
    void detachInterrupt() {
        instance().detachInterrupt();
    }
    bool isEnabled(void) {
        return instance().isEnabled();
   d7948:	4810      	ldr	r0, [pc, #64]	; (d798c <pinAvailable+0x68>)
   d794a:	f7fe f96d 	bl	d5c28 <_ZN8SPIClass9isEnabledEv>

  // SPI safety check
#ifndef SPARK_WIRING_NO_SPI
  if(SPI.isEnabled() == true && (pin == SCK || pin == MOSI || pin == MISO))
   d794e:	b128      	cbz	r0, d795c <pinAvailable+0x38>
   d7950:	f1a4 030b 	sub.w	r3, r4, #11
   d7954:	2b02      	cmp	r3, #2
   d7956:	d801      	bhi.n	d795c <pinAvailable+0x38>
  {
    return 0; // 'pin' is used
   d7958:	2000      	movs	r0, #0
   d795a:	bd70      	pop	{r4, r5, r6, pc}
  }
#endif
  // I2C safety check
#ifndef SPARK_WIRING_NO_I2C
  if(Wire.isEnabled() == true && (pin == SCL || pin == SDA))
   d795c:	f000 f884 	bl	d7a68 <_Z19__fetch_global_Wirev>
   d7960:	f7ff fe3c 	bl	d75dc <_ZN7TwoWire9isEnabledEv>
   d7964:	b108      	cbz	r0, d796a <pinAvailable+0x46>
   d7966:	2c01      	cmp	r4, #1
   d7968:	d9f6      	bls.n	d7958 <pinAvailable+0x34>
    return 0; // 'pin' is used
  }
#endif
#ifndef SPARK_WIRING_NO_USART_SERIAL
  // Serial1 safety check
  if(Serial1.isEnabled() == true && (pin == RX || pin == TX))
   d796a:	f7ff fdd3 	bl	d7514 <_Z22__fetch_global_Serial1v>
   d796e:	f7ff fdcd 	bl	d750c <_ZN11USARTSerial9isEnabledEv>
   d7972:	b118      	cbz	r0, d797c <pinAvailable+0x58>
   d7974:	f1a4 0309 	sub.w	r3, r4, #9
   d7978:	2b01      	cmp	r3, #1
   d797a:	d9ed      	bls.n	d7958 <pinAvailable+0x34>
  {
    return 0; // 'pin' is used
  }
#endif

  if (pin >= TOTAL_PINS)
   d797c:	2c23      	cmp	r4, #35	; 0x23
   d797e:	bf8c      	ite	hi
   d7980:	2000      	movhi	r0, #0
   d7982:	2001      	movls	r0, #1
    return 0;
  else
    return 1; // 'pin' is available
}
   d7984:	bd70      	pop	{r4, r5, r6, pc}
   d7986:	bf00      	nop
   d7988:	2003e71c 	.word	0x2003e71c
   d798c:	2003e720 	.word	0x2003e720

000d7990 <pinMode>:
 * or INPUT_PULLDOWN
 */
void pinMode(uint16_t pin, PinMode setMode)
{

  if(pin >= TOTAL_PINS || setMode == PIN_MODE_NONE )
   d7990:	2823      	cmp	r0, #35	; 0x23
/*
 * @brief Set the mode of the pin to OUTPUT, INPUT, INPUT_PULLUP,
 * or INPUT_PULLDOWN
 */
void pinMode(uint16_t pin, PinMode setMode)
{
   d7992:	b538      	push	{r3, r4, r5, lr}
   d7994:	4604      	mov	r4, r0
   d7996:	460d      	mov	r5, r1

  if(pin >= TOTAL_PINS || setMode == PIN_MODE_NONE )
   d7998:	d80a      	bhi.n	d79b0 <pinMode+0x20>
   d799a:	29ff      	cmp	r1, #255	; 0xff
   d799c:	d008      	beq.n	d79b0 <pinMode+0x20>
  {
    return;
  }

  // Safety check
  if( !pinAvailable(pin) ) {
   d799e:	f7ff ffc1 	bl	d7924 <pinAvailable>
   d79a2:	b128      	cbz	r0, d79b0 <pinMode+0x20>
    return;
  }

  HAL_Pin_Mode(pin, setMode);
   d79a4:	4629      	mov	r1, r5
   d79a6:	4620      	mov	r0, r4
}
   d79a8:	e8bd 4038 	ldmia.w	sp!, {r3, r4, r5, lr}
  // Safety check
  if( !pinAvailable(pin) ) {
    return;
  }

  HAL_Pin_Mode(pin, setMode);
   d79ac:	f7fd be1e 	b.w	d55ec <HAL_Pin_Mode>
   d79b0:	bd38      	pop	{r3, r4, r5, pc}

000d79b2 <digitalWrite>:

/*
 * @brief Sets a GPIO pin to HIGH or LOW.
 */
void digitalWrite(pin_t pin, uint8_t value)
{
   d79b2:	b538      	push	{r3, r4, r5, lr}
   d79b4:	4604      	mov	r4, r0
   d79b6:	460d      	mov	r5, r1
    PinMode mode = HAL_Get_Pin_Mode(pin);
   d79b8:	f7fd fe20 	bl	d55fc <HAL_Get_Pin_Mode>
    if (mode==PIN_MODE_NONE || is_input_mode(mode))
   d79bc:	28ff      	cmp	r0, #255	; 0xff
   d79be:	d010      	beq.n	d79e2 <digitalWrite+0x30>
}

inline bool is_input_mode(PinMode mode) {
    return  mode == INPUT ||
            mode == INPUT_PULLUP ||
            mode == INPUT_PULLDOWN ||
   d79c0:	2806      	cmp	r0, #6
   d79c2:	d804      	bhi.n	d79ce <digitalWrite+0x1c>
   d79c4:	234d      	movs	r3, #77	; 0x4d
   d79c6:	fa23 f000 	lsr.w	r0, r3, r0
   d79ca:	07c3      	lsls	r3, r0, #31
   d79cc:	d409      	bmi.n	d79e2 <digitalWrite+0x30>
{
    PinMode mode = HAL_Get_Pin_Mode(pin);
    if (mode==PIN_MODE_NONE || is_input_mode(mode))
        return;
  // Safety check
  if( !pinAvailable(pin) ) {
   d79ce:	4620      	mov	r0, r4
   d79d0:	f7ff ffa8 	bl	d7924 <pinAvailable>
   d79d4:	b128      	cbz	r0, d79e2 <digitalWrite+0x30>
    return;
  }

  HAL_GPIO_Write(pin, value);
   d79d6:	4629      	mov	r1, r5
   d79d8:	4620      	mov	r0, r4
}
   d79da:	e8bd 4038 	ldmia.w	sp!, {r3, r4, r5, lr}
  // Safety check
  if( !pinAvailable(pin) ) {
    return;
  }

  HAL_GPIO_Write(pin, value);
   d79de:	f7fd be15 	b.w	d560c <HAL_GPIO_Write>
   d79e2:	bd38      	pop	{r3, r4, r5, pc}

000d79e4 <digitalRead>:

/*
 * @brief Reads the value of a GPIO pin. Should return either 1 (HIGH) or 0 (LOW).
 */
int32_t digitalRead(pin_t pin)
{
   d79e4:	b510      	push	{r4, lr}
   d79e6:	4604      	mov	r4, r0
    PinMode mode = HAL_Get_Pin_Mode(pin);
   d79e8:	f7fd fe08 	bl	d55fc <HAL_Get_Pin_Mode>
    if (is_af_output_mode(mode))
   d79ec:	3804      	subs	r0, #4
   d79ee:	b2c0      	uxtb	r0, r0
   d79f0:	2801      	cmp	r0, #1
   d79f2:	d908      	bls.n	d7a06 <digitalRead+0x22>
        return LOW;

    // Safety check
    if( !pinAvailable(pin) ) {
   d79f4:	4620      	mov	r0, r4
   d79f6:	f7ff ff95 	bl	d7924 <pinAvailable>
   d79fa:	b120      	cbz	r0, d7a06 <digitalRead+0x22>
      return LOW;
    }

    return HAL_GPIO_Read(pin);
   d79fc:	4620      	mov	r0, r4
}
   d79fe:	e8bd 4010 	ldmia.w	sp!, {r4, lr}
    // Safety check
    if( !pinAvailable(pin) ) {
      return LOW;
    }

    return HAL_GPIO_Read(pin);
   d7a02:	f7fd be0b 	b.w	d561c <HAL_GPIO_Read>
}
   d7a06:	2000      	movs	r0, #0
   d7a08:	bd10      	pop	{r4, pc}
	...

000d7a0c <_Z21__fetch_global_EEPROMv>:

// we don't use this global instance since there's no actual instance data
// Having this keeps the unoptimized build happy

EEPROMClass& __fetch_global_EEPROM()
{
   d7a0c:	b510      	push	{r4, lr}
	static EEPROMClass eeprom;
   d7a0e:	4c07      	ldr	r4, [pc, #28]	; (d7a2c <_Z21__fetch_global_EEPROMv+0x20>)
   d7a10:	6823      	ldr	r3, [r4, #0]
   d7a12:	07db      	lsls	r3, r3, #31
   d7a14:	d408      	bmi.n	d7a28 <_Z21__fetch_global_EEPROMv+0x1c>
   d7a16:	4620      	mov	r0, r4
   d7a18:	f7fc fb45 	bl	d40a6 <__cxa_guard_acquire>
   d7a1c:	b120      	cbz	r0, d7a28 <_Z21__fetch_global_EEPROMv+0x1c>

struct EEPROMClass{

	EEPROMClass()
    {
    		HAL_EEPROM_Init();
   d7a1e:	f7fd fe2d 	bl	d567c <HAL_EEPROM_Init>
   d7a22:	4620      	mov	r0, r4
   d7a24:	f7fc fb44 	bl	d40b0 <__cxa_guard_release>
	return eeprom;
}
   d7a28:	4801      	ldr	r0, [pc, #4]	; (d7a30 <_Z21__fetch_global_EEPROMv+0x24>)
   d7a2a:	bd10      	pop	{r4, pc}
   d7a2c:	2003e72c 	.word	0x2003e72c
   d7a30:	2003e730 	.word	0x2003e730

000d7a34 <_Z17acquireWireBufferv>:
   d7a34:	b570      	push	{r4, r5, r6, lr}
   d7a36:	4604      	mov	r4, r0
   d7a38:	2514      	movs	r5, #20
   d7a3a:	462a      	mov	r2, r5
   d7a3c:	4e09      	ldr	r6, [pc, #36]	; (d7a64 <_Z17acquireWireBufferv+0x30>)
   d7a3e:	2100      	movs	r1, #0
   d7a40:	f000 f9e5 	bl	d7e0e <memset>
   d7a44:	8025      	strh	r5, [r4, #0]
   d7a46:	2520      	movs	r5, #32
   d7a48:	4631      	mov	r1, r6
   d7a4a:	60a5      	str	r5, [r4, #8]
   d7a4c:	6125      	str	r5, [r4, #16]
   d7a4e:	4628      	mov	r0, r5
   d7a50:	f000 f840 	bl	d7ad4 <_ZnajRKSt9nothrow_t>
   d7a54:	4631      	mov	r1, r6
   d7a56:	6060      	str	r0, [r4, #4]
   d7a58:	4628      	mov	r0, r5
   d7a5a:	f000 f83b 	bl	d7ad4 <_ZnajRKSt9nothrow_t>
   d7a5e:	60e0      	str	r0, [r4, #12]
   d7a60:	4620      	mov	r0, r4
   d7a62:	bd70      	pop	{r4, r5, r6, pc}
   d7a64:	000d88e8 	.word	0x000d88e8

000d7a68 <_Z19__fetch_global_Wirev>:
	return defaultWireConfig();
}
#endif

TwoWire& __fetch_global_Wire()
{
   d7a68:	b530      	push	{r4, r5, lr}
	static TwoWire wire(HAL_I2C_INTERFACE1, acquireWireBuffer());
   d7a6a:	4d0e      	ldr	r5, [pc, #56]	; (d7aa4 <_Z19__fetch_global_Wirev+0x3c>)
   d7a6c:	6829      	ldr	r1, [r5, #0]
   d7a6e:	f011 0401 	ands.w	r4, r1, #1
	return defaultWireConfig();
}
#endif

TwoWire& __fetch_global_Wire()
{
   d7a72:	b087      	sub	sp, #28
	static TwoWire wire(HAL_I2C_INTERFACE1, acquireWireBuffer());
   d7a74:	d113      	bne.n	d7a9e <_Z19__fetch_global_Wirev+0x36>
   d7a76:	4628      	mov	r0, r5
   d7a78:	f7fc fb15 	bl	d40a6 <__cxa_guard_acquire>
   d7a7c:	b178      	cbz	r0, d7a9e <_Z19__fetch_global_Wirev+0x36>
   d7a7e:	a801      	add	r0, sp, #4
   d7a80:	f7ff ffd8 	bl	d7a34 <_Z17acquireWireBufferv>
   d7a84:	aa01      	add	r2, sp, #4
   d7a86:	4621      	mov	r1, r4
   d7a88:	4807      	ldr	r0, [pc, #28]	; (d7aa8 <_Z19__fetch_global_Wirev+0x40>)
   d7a8a:	f7ff fd95 	bl	d75b8 <_ZN7TwoWireC1E17HAL_I2C_InterfaceRK14HAL_I2C_Config>
   d7a8e:	4628      	mov	r0, r5
   d7a90:	f7fc fb0e 	bl	d40b0 <__cxa_guard_release>
   d7a94:	4a05      	ldr	r2, [pc, #20]	; (d7aac <_Z19__fetch_global_Wirev+0x44>)
   d7a96:	4906      	ldr	r1, [pc, #24]	; (d7ab0 <_Z19__fetch_global_Wirev+0x48>)
   d7a98:	4803      	ldr	r0, [pc, #12]	; (d7aa8 <_Z19__fetch_global_Wirev+0x40>)
   d7a9a:	f000 f80b 	bl	d7ab4 <__aeabi_atexit>
	return wire;
}
   d7a9e:	4802      	ldr	r0, [pc, #8]	; (d7aa8 <_Z19__fetch_global_Wirev+0x40>)
   d7aa0:	b007      	add	sp, #28
   d7aa2:	bd30      	pop	{r4, r5, pc}
   d7aa4:	2003e734 	.word	0x2003e734
   d7aa8:	2003e738 	.word	0x2003e738
   d7aac:	2003e36c 	.word	0x2003e36c
   d7ab0:	000d7561 	.word	0x000d7561

000d7ab4 <__aeabi_atexit>:
   d7ab4:	460b      	mov	r3, r1
   d7ab6:	4601      	mov	r1, r0
   d7ab8:	4618      	mov	r0, r3
   d7aba:	f000 b965 	b.w	d7d88 <__cxa_atexit>
	...

000d7ac0 <_ZSt15get_new_handlerv>:
   d7ac0:	4b02      	ldr	r3, [pc, #8]	; (d7acc <_ZSt15get_new_handlerv+0xc>)
   d7ac2:	6818      	ldr	r0, [r3, #0]
   d7ac4:	f3bf 8f5f 	dmb	sy
   d7ac8:	4770      	bx	lr
   d7aca:	bf00      	nop
   d7acc:	2003e74c 	.word	0x2003e74c

000d7ad0 <_ZdlPvj>:
   d7ad0:	f7fc bae5 	b.w	d409e <_ZdlPv>

000d7ad4 <_ZnajRKSt9nothrow_t>:
   d7ad4:	f000 b800 	b.w	d7ad8 <_ZnwjRKSt9nothrow_t>

000d7ad8 <_ZnwjRKSt9nothrow_t>:
   d7ad8:	b510      	push	{r4, lr}
   d7ada:	2800      	cmp	r0, #0
   d7adc:	bf14      	ite	ne
   d7ade:	4604      	movne	r4, r0
   d7ae0:	2401      	moveq	r4, #1
   d7ae2:	4620      	mov	r0, r4
   d7ae4:	f7fe f830 	bl	d5b48 <malloc>
   d7ae8:	b920      	cbnz	r0, d7af4 <_ZnwjRKSt9nothrow_t+0x1c>
   d7aea:	f7ff ffe9 	bl	d7ac0 <_ZSt15get_new_handlerv>
   d7aee:	b108      	cbz	r0, d7af4 <_ZnwjRKSt9nothrow_t+0x1c>
   d7af0:	4780      	blx	r0
   d7af2:	e7f6      	b.n	d7ae2 <_ZnwjRKSt9nothrow_t+0xa>
   d7af4:	bd10      	pop	{r4, pc}
	...

000d7af8 <_GLOBAL__sub_I__ZNSt12ctype_bynameIcEC2ERKNSt7__cxx1112basic_stringIcSt11char_traitsIcESaIcEEEj>:
   d7af8:	4b18      	ldr	r3, [pc, #96]	; (d7b5c <_GLOBAL__sub_I__ZNSt12ctype_bynameIcEC2ERKNSt7__cxx1112basic_stringIcSt11char_traitsIcESaIcEEEj+0x64>)
   d7afa:	681a      	ldr	r2, [r3, #0]
   d7afc:	07d1      	lsls	r1, r2, #31
   d7afe:	bf5c      	itt	pl
   d7b00:	2201      	movpl	r2, #1
   d7b02:	601a      	strpl	r2, [r3, #0]
   d7b04:	4b16      	ldr	r3, [pc, #88]	; (d7b60 <_GLOBAL__sub_I__ZNSt12ctype_bynameIcEC2ERKNSt7__cxx1112basic_stringIcSt11char_traitsIcESaIcEEEj+0x68>)
   d7b06:	681a      	ldr	r2, [r3, #0]
   d7b08:	07d2      	lsls	r2, r2, #31
   d7b0a:	bf5c      	itt	pl
   d7b0c:	2201      	movpl	r2, #1
   d7b0e:	601a      	strpl	r2, [r3, #0]
   d7b10:	4b14      	ldr	r3, [pc, #80]	; (d7b64 <_GLOBAL__sub_I__ZNSt12ctype_bynameIcEC2ERKNSt7__cxx1112basic_stringIcSt11char_traitsIcESaIcEEEj+0x6c>)
   d7b12:	681a      	ldr	r2, [r3, #0]
   d7b14:	07d0      	lsls	r0, r2, #31
   d7b16:	bf5c      	itt	pl
   d7b18:	2201      	movpl	r2, #1
   d7b1a:	601a      	strpl	r2, [r3, #0]
   d7b1c:	4b12      	ldr	r3, [pc, #72]	; (d7b68 <_GLOBAL__sub_I__ZNSt12ctype_bynameIcEC2ERKNSt7__cxx1112basic_stringIcSt11char_traitsIcESaIcEEEj+0x70>)
   d7b1e:	681a      	ldr	r2, [r3, #0]
   d7b20:	07d1      	lsls	r1, r2, #31
   d7b22:	bf5c      	itt	pl
   d7b24:	2201      	movpl	r2, #1
   d7b26:	601a      	strpl	r2, [r3, #0]
   d7b28:	4b10      	ldr	r3, [pc, #64]	; (d7b6c <_GLOBAL__sub_I__ZNSt12ctype_bynameIcEC2ERKNSt7__cxx1112basic_stringIcSt11char_traitsIcESaIcEEEj+0x74>)
   d7b2a:	681a      	ldr	r2, [r3, #0]
   d7b2c:	07d2      	lsls	r2, r2, #31
   d7b2e:	bf5c      	itt	pl
   d7b30:	2201      	movpl	r2, #1
   d7b32:	601a      	strpl	r2, [r3, #0]
   d7b34:	4b0e      	ldr	r3, [pc, #56]	; (d7b70 <_GLOBAL__sub_I__ZNSt12ctype_bynameIcEC2ERKNSt7__cxx1112basic_stringIcSt11char_traitsIcESaIcEEEj+0x78>)
   d7b36:	681a      	ldr	r2, [r3, #0]
   d7b38:	07d0      	lsls	r0, r2, #31
   d7b3a:	bf5c      	itt	pl
   d7b3c:	2201      	movpl	r2, #1
   d7b3e:	601a      	strpl	r2, [r3, #0]
   d7b40:	4b0c      	ldr	r3, [pc, #48]	; (d7b74 <_GLOBAL__sub_I__ZNSt12ctype_bynameIcEC2ERKNSt7__cxx1112basic_stringIcSt11char_traitsIcESaIcEEEj+0x7c>)
   d7b42:	681a      	ldr	r2, [r3, #0]
   d7b44:	07d1      	lsls	r1, r2, #31
   d7b46:	bf5c      	itt	pl
   d7b48:	2201      	movpl	r2, #1
   d7b4a:	601a      	strpl	r2, [r3, #0]
   d7b4c:	4b0a      	ldr	r3, [pc, #40]	; (d7b78 <_GLOBAL__sub_I__ZNSt12ctype_bynameIcEC2ERKNSt7__cxx1112basic_stringIcSt11char_traitsIcESaIcEEEj+0x80>)
   d7b4e:	681a      	ldr	r2, [r3, #0]
   d7b50:	07d2      	lsls	r2, r2, #31
   d7b52:	bf5c      	itt	pl
   d7b54:	2201      	movpl	r2, #1
   d7b56:	601a      	strpl	r2, [r3, #0]
   d7b58:	4770      	bx	lr
   d7b5a:	bf00      	nop
   d7b5c:	2003e76c 	.word	0x2003e76c
   d7b60:	2003e768 	.word	0x2003e768
   d7b64:	2003e764 	.word	0x2003e764
   d7b68:	2003e760 	.word	0x2003e760
   d7b6c:	2003e75c 	.word	0x2003e75c
   d7b70:	2003e758 	.word	0x2003e758
   d7b74:	2003e754 	.word	0x2003e754
   d7b78:	2003e750 	.word	0x2003e750

000d7b7c <_GLOBAL__sub_I__ZNSt12ctype_bynameIwEC2ERKSsj>:
   d7b7c:	4b24      	ldr	r3, [pc, #144]	; (d7c10 <_GLOBAL__sub_I__ZNSt12ctype_bynameIwEC2ERKSsj+0x94>)
   d7b7e:	681a      	ldr	r2, [r3, #0]
   d7b80:	07d0      	lsls	r0, r2, #31
   d7b82:	bf5c      	itt	pl
   d7b84:	2201      	movpl	r2, #1
   d7b86:	601a      	strpl	r2, [r3, #0]
   d7b88:	4b22      	ldr	r3, [pc, #136]	; (d7c14 <_GLOBAL__sub_I__ZNSt12ctype_bynameIwEC2ERKSsj+0x98>)
   d7b8a:	681a      	ldr	r2, [r3, #0]
   d7b8c:	07d1      	lsls	r1, r2, #31
   d7b8e:	bf5c      	itt	pl
   d7b90:	2201      	movpl	r2, #1
   d7b92:	601a      	strpl	r2, [r3, #0]
   d7b94:	4b20      	ldr	r3, [pc, #128]	; (d7c18 <_GLOBAL__sub_I__ZNSt12ctype_bynameIwEC2ERKSsj+0x9c>)
   d7b96:	681a      	ldr	r2, [r3, #0]
   d7b98:	07d2      	lsls	r2, r2, #31
   d7b9a:	bf5c      	itt	pl
   d7b9c:	2201      	movpl	r2, #1
   d7b9e:	601a      	strpl	r2, [r3, #0]
   d7ba0:	4b1e      	ldr	r3, [pc, #120]	; (d7c1c <_GLOBAL__sub_I__ZNSt12ctype_bynameIwEC2ERKSsj+0xa0>)
   d7ba2:	681a      	ldr	r2, [r3, #0]
   d7ba4:	07d0      	lsls	r0, r2, #31
   d7ba6:	bf5c      	itt	pl
   d7ba8:	2201      	movpl	r2, #1
   d7baa:	601a      	strpl	r2, [r3, #0]
   d7bac:	4b1c      	ldr	r3, [pc, #112]	; (d7c20 <_GLOBAL__sub_I__ZNSt12ctype_bynameIwEC2ERKSsj+0xa4>)
   d7bae:	681a      	ldr	r2, [r3, #0]
   d7bb0:	07d1      	lsls	r1, r2, #31
   d7bb2:	bf5c      	itt	pl
   d7bb4:	2201      	movpl	r2, #1
   d7bb6:	601a      	strpl	r2, [r3, #0]
   d7bb8:	4b1a      	ldr	r3, [pc, #104]	; (d7c24 <_GLOBAL__sub_I__ZNSt12ctype_bynameIwEC2ERKSsj+0xa8>)
   d7bba:	681a      	ldr	r2, [r3, #0]
   d7bbc:	07d2      	lsls	r2, r2, #31
   d7bbe:	bf5c      	itt	pl
   d7bc0:	2201      	movpl	r2, #1
   d7bc2:	601a      	strpl	r2, [r3, #0]
   d7bc4:	4b18      	ldr	r3, [pc, #96]	; (d7c28 <_GLOBAL__sub_I__ZNSt12ctype_bynameIwEC2ERKSsj+0xac>)
   d7bc6:	681a      	ldr	r2, [r3, #0]
   d7bc8:	07d0      	lsls	r0, r2, #31
   d7bca:	bf5c      	itt	pl
   d7bcc:	2201      	movpl	r2, #1
   d7bce:	601a      	strpl	r2, [r3, #0]
   d7bd0:	4b16      	ldr	r3, [pc, #88]	; (d7c2c <_GLOBAL__sub_I__ZNSt12ctype_bynameIwEC2ERKSsj+0xb0>)
   d7bd2:	681a      	ldr	r2, [r3, #0]
   d7bd4:	07d1      	lsls	r1, r2, #31
   d7bd6:	bf5c      	itt	pl
   d7bd8:	2201      	movpl	r2, #1
   d7bda:	601a      	strpl	r2, [r3, #0]
   d7bdc:	4b14      	ldr	r3, [pc, #80]	; (d7c30 <_GLOBAL__sub_I__ZNSt12ctype_bynameIwEC2ERKSsj+0xb4>)
   d7bde:	681a      	ldr	r2, [r3, #0]
   d7be0:	07d2      	lsls	r2, r2, #31
   d7be2:	bf5c      	itt	pl
   d7be4:	2201      	movpl	r2, #1
   d7be6:	601a      	strpl	r2, [r3, #0]
   d7be8:	4b12      	ldr	r3, [pc, #72]	; (d7c34 <_GLOBAL__sub_I__ZNSt12ctype_bynameIwEC2ERKSsj+0xb8>)
   d7bea:	681a      	ldr	r2, [r3, #0]
   d7bec:	07d0      	lsls	r0, r2, #31
   d7bee:	bf5c      	itt	pl
   d7bf0:	2201      	movpl	r2, #1
   d7bf2:	601a      	strpl	r2, [r3, #0]
   d7bf4:	4b10      	ldr	r3, [pc, #64]	; (d7c38 <_GLOBAL__sub_I__ZNSt12ctype_bynameIwEC2ERKSsj+0xbc>)
   d7bf6:	681a      	ldr	r2, [r3, #0]
   d7bf8:	07d1      	lsls	r1, r2, #31
   d7bfa:	bf5c      	itt	pl
   d7bfc:	2201      	movpl	r2, #1
   d7bfe:	601a      	strpl	r2, [r3, #0]
   d7c00:	4b0e      	ldr	r3, [pc, #56]	; (d7c3c <_GLOBAL__sub_I__ZNSt12ctype_bynameIwEC2ERKSsj+0xc0>)
   d7c02:	681a      	ldr	r2, [r3, #0]
   d7c04:	07d2      	lsls	r2, r2, #31
   d7c06:	bf5c      	itt	pl
   d7c08:	2201      	movpl	r2, #1
   d7c0a:	601a      	strpl	r2, [r3, #0]
   d7c0c:	4770      	bx	lr
   d7c0e:	bf00      	nop
   d7c10:	2003e79c 	.word	0x2003e79c
   d7c14:	2003e798 	.word	0x2003e798
   d7c18:	2003e794 	.word	0x2003e794
   d7c1c:	2003e790 	.word	0x2003e790
   d7c20:	2003e78c 	.word	0x2003e78c
   d7c24:	2003e788 	.word	0x2003e788
   d7c28:	2003e784 	.word	0x2003e784
   d7c2c:	2003e780 	.word	0x2003e780
   d7c30:	2003e77c 	.word	0x2003e77c
   d7c34:	2003e778 	.word	0x2003e778
   d7c38:	2003e774 	.word	0x2003e774
   d7c3c:	2003e770 	.word	0x2003e770

000d7c40 <_GLOBAL__sub_I__ZNSt12ctype_bynameIcEC2ERKSsj>:
   d7c40:	4b24      	ldr	r3, [pc, #144]	; (d7cd4 <_GLOBAL__sub_I__ZNSt12ctype_bynameIcEC2ERKSsj+0x94>)
   d7c42:	681a      	ldr	r2, [r3, #0]
   d7c44:	07d0      	lsls	r0, r2, #31
   d7c46:	bf5c      	itt	pl
   d7c48:	2201      	movpl	r2, #1
   d7c4a:	601a      	strpl	r2, [r3, #0]
   d7c4c:	4b22      	ldr	r3, [pc, #136]	; (d7cd8 <_GLOBAL__sub_I__ZNSt12ctype_bynameIcEC2ERKSsj+0x98>)
   d7c4e:	681a      	ldr	r2, [r3, #0]
   d7c50:	07d1      	lsls	r1, r2, #31
   d7c52:	bf5c      	itt	pl
   d7c54:	2201      	movpl	r2, #1
   d7c56:	601a      	strpl	r2, [r3, #0]
   d7c58:	4b20      	ldr	r3, [pc, #128]	; (d7cdc <_GLOBAL__sub_I__ZNSt12ctype_bynameIcEC2ERKSsj+0x9c>)
   d7c5a:	681a      	ldr	r2, [r3, #0]
   d7c5c:	07d2      	lsls	r2, r2, #31
   d7c5e:	bf5c      	itt	pl
   d7c60:	2201      	movpl	r2, #1
   d7c62:	601a      	strpl	r2, [r3, #0]
   d7c64:	4b1e      	ldr	r3, [pc, #120]	; (d7ce0 <_GLOBAL__sub_I__ZNSt12ctype_bynameIcEC2ERKSsj+0xa0>)
   d7c66:	681a      	ldr	r2, [r3, #0]
   d7c68:	07d0      	lsls	r0, r2, #31
   d7c6a:	bf5c      	itt	pl
   d7c6c:	2201      	movpl	r2, #1
   d7c6e:	601a      	strpl	r2, [r3, #0]
   d7c70:	4b1c      	ldr	r3, [pc, #112]	; (d7ce4 <_GLOBAL__sub_I__ZNSt12ctype_bynameIcEC2ERKSsj+0xa4>)
   d7c72:	681a      	ldr	r2, [r3, #0]
   d7c74:	07d1      	lsls	r1, r2, #31
   d7c76:	bf5c      	itt	pl
   d7c78:	2201      	movpl	r2, #1
   d7c7a:	601a      	strpl	r2, [r3, #0]
   d7c7c:	4b1a      	ldr	r3, [pc, #104]	; (d7ce8 <_GLOBAL__sub_I__ZNSt12ctype_bynameIcEC2ERKSsj+0xa8>)
   d7c7e:	681a      	ldr	r2, [r3, #0]
   d7c80:	07d2      	lsls	r2, r2, #31
   d7c82:	bf5c      	itt	pl
   d7c84:	2201      	movpl	r2, #1
   d7c86:	601a      	strpl	r2, [r3, #0]
   d7c88:	4b18      	ldr	r3, [pc, #96]	; (d7cec <_GLOBAL__sub_I__ZNSt12ctype_bynameIcEC2ERKSsj+0xac>)
   d7c8a:	681a      	ldr	r2, [r3, #0]
   d7c8c:	07d0      	lsls	r0, r2, #31
   d7c8e:	bf5c      	itt	pl
   d7c90:	2201      	movpl	r2, #1
   d7c92:	601a      	strpl	r2, [r3, #0]
   d7c94:	4b16      	ldr	r3, [pc, #88]	; (d7cf0 <_GLOBAL__sub_I__ZNSt12ctype_bynameIcEC2ERKSsj+0xb0>)
   d7c96:	681a      	ldr	r2, [r3, #0]
   d7c98:	07d1      	lsls	r1, r2, #31
   d7c9a:	bf5c      	itt	pl
   d7c9c:	2201      	movpl	r2, #1
   d7c9e:	601a      	strpl	r2, [r3, #0]
   d7ca0:	4b14      	ldr	r3, [pc, #80]	; (d7cf4 <_GLOBAL__sub_I__ZNSt12ctype_bynameIcEC2ERKSsj+0xb4>)
   d7ca2:	681a      	ldr	r2, [r3, #0]
   d7ca4:	07d2      	lsls	r2, r2, #31
   d7ca6:	bf5c      	itt	pl
   d7ca8:	2201      	movpl	r2, #1
   d7caa:	601a      	strpl	r2, [r3, #0]
   d7cac:	4b12      	ldr	r3, [pc, #72]	; (d7cf8 <_GLOBAL__sub_I__ZNSt12ctype_bynameIcEC2ERKSsj+0xb8>)
   d7cae:	681a      	ldr	r2, [r3, #0]
   d7cb0:	07d0      	lsls	r0, r2, #31
   d7cb2:	bf5c      	itt	pl
   d7cb4:	2201      	movpl	r2, #1
   d7cb6:	601a      	strpl	r2, [r3, #0]
   d7cb8:	4b10      	ldr	r3, [pc, #64]	; (d7cfc <_GLOBAL__sub_I__ZNSt12ctype_bynameIcEC2ERKSsj+0xbc>)
   d7cba:	681a      	ldr	r2, [r3, #0]
   d7cbc:	07d1      	lsls	r1, r2, #31
   d7cbe:	bf5c      	itt	pl
   d7cc0:	2201      	movpl	r2, #1
   d7cc2:	601a      	strpl	r2, [r3, #0]
   d7cc4:	4b0e      	ldr	r3, [pc, #56]	; (d7d00 <_GLOBAL__sub_I__ZNSt12ctype_bynameIcEC2ERKSsj+0xc0>)
   d7cc6:	681a      	ldr	r2, [r3, #0]
   d7cc8:	07d2      	lsls	r2, r2, #31
   d7cca:	bf5c      	itt	pl
   d7ccc:	2201      	movpl	r2, #1
   d7cce:	601a      	strpl	r2, [r3, #0]
   d7cd0:	4770      	bx	lr
   d7cd2:	bf00      	nop
   d7cd4:	2003e7cc 	.word	0x2003e7cc
   d7cd8:	2003e7c8 	.word	0x2003e7c8
   d7cdc:	2003e7c4 	.word	0x2003e7c4
   d7ce0:	2003e7c0 	.word	0x2003e7c0
   d7ce4:	2003e7bc 	.word	0x2003e7bc
   d7ce8:	2003e7b8 	.word	0x2003e7b8
   d7cec:	2003e7b4 	.word	0x2003e7b4
   d7cf0:	2003e7b0 	.word	0x2003e7b0
   d7cf4:	2003e7ac 	.word	0x2003e7ac
   d7cf8:	2003e7a8 	.word	0x2003e7a8
   d7cfc:	2003e7a4 	.word	0x2003e7a4
   d7d00:	2003e7a0 	.word	0x2003e7a0

000d7d04 <_GLOBAL__sub_I__ZNSt12ctype_bynameIwEC2ERKNSt7__cxx1112basic_stringIcSt11char_traitsIcESaIcEEEj>:
   d7d04:	4b18      	ldr	r3, [pc, #96]	; (d7d68 <_GLOBAL__sub_I__ZNSt12ctype_bynameIwEC2ERKNSt7__cxx1112basic_stringIcSt11char_traitsIcESaIcEEEj+0x64>)
   d7d06:	681a      	ldr	r2, [r3, #0]
   d7d08:	07d1      	lsls	r1, r2, #31
   d7d0a:	bf5c      	itt	pl
   d7d0c:	2201      	movpl	r2, #1
   d7d0e:	601a      	strpl	r2, [r3, #0]
   d7d10:	4b16      	ldr	r3, [pc, #88]	; (d7d6c <_GLOBAL__sub_I__ZNSt12ctype_bynameIwEC2ERKNSt7__cxx1112basic_stringIcSt11char_traitsIcESaIcEEEj+0x68>)
   d7d12:	681a      	ldr	r2, [r3, #0]
   d7d14:	07d2      	lsls	r2, r2, #31
   d7d16:	bf5c      	itt	pl
   d7d18:	2201      	movpl	r2, #1
   d7d1a:	601a      	strpl	r2, [r3, #0]
   d7d1c:	4b14      	ldr	r3, [pc, #80]	; (d7d70 <_GLOBAL__sub_I__ZNSt12ctype_bynameIwEC2ERKNSt7__cxx1112basic_stringIcSt11char_traitsIcESaIcEEEj+0x6c>)
   d7d1e:	681a      	ldr	r2, [r3, #0]
   d7d20:	07d0      	lsls	r0, r2, #31
   d7d22:	bf5c      	itt	pl
   d7d24:	2201      	movpl	r2, #1
   d7d26:	601a      	strpl	r2, [r3, #0]
   d7d28:	4b12      	ldr	r3, [pc, #72]	; (d7d74 <_GLOBAL__sub_I__ZNSt12ctype_bynameIwEC2ERKNSt7__cxx1112basic_stringIcSt11char_traitsIcESaIcEEEj+0x70>)
   d7d2a:	681a      	ldr	r2, [r3, #0]
   d7d2c:	07d1      	lsls	r1, r2, #31
   d7d2e:	bf5c      	itt	pl
   d7d30:	2201      	movpl	r2, #1
   d7d32:	601a      	strpl	r2, [r3, #0]
   d7d34:	4b10      	ldr	r3, [pc, #64]	; (d7d78 <_GLOBAL__sub_I__ZNSt12ctype_bynameIwEC2ERKNSt7__cxx1112basic_stringIcSt11char_traitsIcESaIcEEEj+0x74>)
   d7d36:	681a      	ldr	r2, [r3, #0]
   d7d38:	07d2      	lsls	r2, r2, #31
   d7d3a:	bf5c      	itt	pl
   d7d3c:	2201      	movpl	r2, #1
   d7d3e:	601a      	strpl	r2, [r3, #0]
   d7d40:	4b0e      	ldr	r3, [pc, #56]	; (d7d7c <_GLOBAL__sub_I__ZNSt12ctype_bynameIwEC2ERKNSt7__cxx1112basic_stringIcSt11char_traitsIcESaIcEEEj+0x78>)
   d7d42:	681a      	ldr	r2, [r3, #0]
   d7d44:	07d0      	lsls	r0, r2, #31
   d7d46:	bf5c      	itt	pl
   d7d48:	2201      	movpl	r2, #1
   d7d4a:	601a      	strpl	r2, [r3, #0]
   d7d4c:	4b0c      	ldr	r3, [pc, #48]	; (d7d80 <_GLOBAL__sub_I__ZNSt12ctype_bynameIwEC2ERKNSt7__cxx1112basic_stringIcSt11char_traitsIcESaIcEEEj+0x7c>)
   d7d4e:	681a      	ldr	r2, [r3, #0]
   d7d50:	07d1      	lsls	r1, r2, #31
   d7d52:	bf5c      	itt	pl
   d7d54:	2201      	movpl	r2, #1
   d7d56:	601a      	strpl	r2, [r3, #0]
   d7d58:	4b0a      	ldr	r3, [pc, #40]	; (d7d84 <_GLOBAL__sub_I__ZNSt12ctype_bynameIwEC2ERKNSt7__cxx1112basic_stringIcSt11char_traitsIcESaIcEEEj+0x80>)
   d7d5a:	681a      	ldr	r2, [r3, #0]
   d7d5c:	07d2      	lsls	r2, r2, #31
   d7d5e:	bf5c      	itt	pl
   d7d60:	2201      	movpl	r2, #1
   d7d62:	601a      	strpl	r2, [r3, #0]
   d7d64:	4770      	bx	lr
   d7d66:	bf00      	nop
   d7d68:	2003e7ec 	.word	0x2003e7ec
   d7d6c:	2003e7e8 	.word	0x2003e7e8
   d7d70:	2003e7e4 	.word	0x2003e7e4
   d7d74:	2003e7e0 	.word	0x2003e7e0
   d7d78:	2003e7dc 	.word	0x2003e7dc
   d7d7c:	2003e7d8 	.word	0x2003e7d8
   d7d80:	2003e7d4 	.word	0x2003e7d4
   d7d84:	2003e7d0 	.word	0x2003e7d0

000d7d88 <__cxa_atexit>:
   d7d88:	b510      	push	{r4, lr}
   d7d8a:	4c05      	ldr	r4, [pc, #20]	; (d7da0 <__cxa_atexit+0x18>)
   d7d8c:	4613      	mov	r3, r2
   d7d8e:	b12c      	cbz	r4, d7d9c <__cxa_atexit+0x14>
   d7d90:	460a      	mov	r2, r1
   d7d92:	4601      	mov	r1, r0
   d7d94:	2002      	movs	r0, #2
   d7d96:	f3af 8000 	nop.w
   d7d9a:	bd10      	pop	{r4, pc}
   d7d9c:	4620      	mov	r0, r4
   d7d9e:	bd10      	pop	{r4, pc}
   d7da0:	00000000 	.word	0x00000000

000d7da4 <memcmp>:
   d7da4:	b510      	push	{r4, lr}
   d7da6:	3901      	subs	r1, #1
   d7da8:	4402      	add	r2, r0
   d7daa:	4290      	cmp	r0, r2
   d7dac:	d007      	beq.n	d7dbe <memcmp+0x1a>
   d7dae:	f810 3b01 	ldrb.w	r3, [r0], #1
   d7db2:	f811 4f01 	ldrb.w	r4, [r1, #1]!
   d7db6:	42a3      	cmp	r3, r4
   d7db8:	d0f7      	beq.n	d7daa <memcmp+0x6>
   d7dba:	1b18      	subs	r0, r3, r4
   d7dbc:	bd10      	pop	{r4, pc}
   d7dbe:	2000      	movs	r0, #0
   d7dc0:	bd10      	pop	{r4, pc}

000d7dc2 <memcpy>:
   d7dc2:	b510      	push	{r4, lr}
   d7dc4:	1e43      	subs	r3, r0, #1
   d7dc6:	440a      	add	r2, r1
   d7dc8:	4291      	cmp	r1, r2
   d7dca:	d004      	beq.n	d7dd6 <memcpy+0x14>
   d7dcc:	f811 4b01 	ldrb.w	r4, [r1], #1
   d7dd0:	f803 4f01 	strb.w	r4, [r3, #1]!
   d7dd4:	e7f8      	b.n	d7dc8 <memcpy+0x6>
   d7dd6:	bd10      	pop	{r4, pc}

000d7dd8 <memmove>:
   d7dd8:	4288      	cmp	r0, r1
   d7dda:	b510      	push	{r4, lr}
   d7ddc:	eb01 0302 	add.w	r3, r1, r2
   d7de0:	d801      	bhi.n	d7de6 <memmove+0xe>
   d7de2:	1e42      	subs	r2, r0, #1
   d7de4:	e00b      	b.n	d7dfe <memmove+0x26>
   d7de6:	4298      	cmp	r0, r3
   d7de8:	d2fb      	bcs.n	d7de2 <memmove+0xa>
   d7dea:	1881      	adds	r1, r0, r2
   d7dec:	1ad2      	subs	r2, r2, r3
   d7dee:	42d3      	cmn	r3, r2
   d7df0:	d004      	beq.n	d7dfc <memmove+0x24>
   d7df2:	f813 4d01 	ldrb.w	r4, [r3, #-1]!
   d7df6:	f801 4d01 	strb.w	r4, [r1, #-1]!
   d7dfa:	e7f8      	b.n	d7dee <memmove+0x16>
   d7dfc:	bd10      	pop	{r4, pc}
   d7dfe:	4299      	cmp	r1, r3
   d7e00:	d004      	beq.n	d7e0c <memmove+0x34>
   d7e02:	f811 4b01 	ldrb.w	r4, [r1], #1
   d7e06:	f802 4f01 	strb.w	r4, [r2, #1]!
   d7e0a:	e7f8      	b.n	d7dfe <memmove+0x26>
   d7e0c:	bd10      	pop	{r4, pc}

000d7e0e <memset>:
   d7e0e:	4402      	add	r2, r0
   d7e10:	4603      	mov	r3, r0
   d7e12:	4293      	cmp	r3, r2
   d7e14:	d002      	beq.n	d7e1c <memset+0xe>
   d7e16:	f803 1b01 	strb.w	r1, [r3], #1
   d7e1a:	e7fa      	b.n	d7e12 <memset+0x4>
   d7e1c:	4770      	bx	lr
	...

000d7e20 <srand>:
   d7e20:	b538      	push	{r3, r4, r5, lr}
   d7e22:	4b12      	ldr	r3, [pc, #72]	; (d7e6c <srand+0x4c>)
   d7e24:	681c      	ldr	r4, [r3, #0]
   d7e26:	6ba3      	ldr	r3, [r4, #56]	; 0x38
   d7e28:	4605      	mov	r5, r0
   d7e2a:	b9d3      	cbnz	r3, d7e62 <srand+0x42>
   d7e2c:	2018      	movs	r0, #24
   d7e2e:	f7fd fe8b 	bl	d5b48 <malloc>
   d7e32:	f243 330e 	movw	r3, #13070	; 0x330e
   d7e36:	63a0      	str	r0, [r4, #56]	; 0x38
   d7e38:	8003      	strh	r3, [r0, #0]
   d7e3a:	f64a 33cd 	movw	r3, #43981	; 0xabcd
   d7e3e:	8043      	strh	r3, [r0, #2]
   d7e40:	f241 2334 	movw	r3, #4660	; 0x1234
   d7e44:	8083      	strh	r3, [r0, #4]
   d7e46:	f24e 636d 	movw	r3, #58989	; 0xe66d
   d7e4a:	80c3      	strh	r3, [r0, #6]
   d7e4c:	f64d 63ec 	movw	r3, #57068	; 0xdeec
   d7e50:	8103      	strh	r3, [r0, #8]
   d7e52:	2305      	movs	r3, #5
   d7e54:	8143      	strh	r3, [r0, #10]
   d7e56:	230b      	movs	r3, #11
   d7e58:	8183      	strh	r3, [r0, #12]
   d7e5a:	2201      	movs	r2, #1
   d7e5c:	2300      	movs	r3, #0
   d7e5e:	e9c0 2304 	strd	r2, r3, [r0, #16]
   d7e62:	6ba3      	ldr	r3, [r4, #56]	; 0x38
   d7e64:	2200      	movs	r2, #0
   d7e66:	611d      	str	r5, [r3, #16]
   d7e68:	615a      	str	r2, [r3, #20]
   d7e6a:	bd38      	pop	{r3, r4, r5, pc}
   d7e6c:	2003e368 	.word	0x2003e368

000d7e70 <strcpy>:
   d7e70:	4603      	mov	r3, r0
   d7e72:	f811 2b01 	ldrb.w	r2, [r1], #1
   d7e76:	f803 2b01 	strb.w	r2, [r3], #1
   d7e7a:	2a00      	cmp	r2, #0
   d7e7c:	d1f9      	bne.n	d7e72 <strcpy+0x2>
   d7e7e:	4770      	bx	lr

000d7e80 <strlen>:
   d7e80:	4603      	mov	r3, r0
   d7e82:	f813 2b01 	ldrb.w	r2, [r3], #1
   d7e86:	2a00      	cmp	r2, #0
   d7e88:	d1fb      	bne.n	d7e82 <strlen+0x2>
   d7e8a:	1a18      	subs	r0, r3, r0
   d7e8c:	3801      	subs	r0, #1
   d7e8e:	4770      	bx	lr

000d7e90 <strnlen>:
   d7e90:	b510      	push	{r4, lr}
   d7e92:	4603      	mov	r3, r0
   d7e94:	4401      	add	r1, r0
   d7e96:	428b      	cmp	r3, r1
   d7e98:	d004      	beq.n	d7ea4 <strnlen+0x14>
   d7e9a:	781a      	ldrb	r2, [r3, #0]
   d7e9c:	1c5c      	adds	r4, r3, #1
   d7e9e:	b10a      	cbz	r2, d7ea4 <strnlen+0x14>
   d7ea0:	4623      	mov	r3, r4
   d7ea2:	e7f8      	b.n	d7e96 <strnlen+0x6>
   d7ea4:	1a18      	subs	r0, r3, r0
   d7ea6:	bd10      	pop	{r4, pc}

000d7ea8 <dynalib_user>:
   d7ea8:	401d 000d 4059 000d 4085 000d 4089 000d     .@..Y@...@...@..
   d7eb8:	0000 0000 0ee9 0000 0bd6 0000 0002 0000     ................
   d7ec8:	0002 0000 4c42 2045 6552 6563 7669 6465     ....BLE Received
   d7ed8:	203a 7325 4820 7865 203a 7825 5000 7361     : %s Hex: %x.Pas
   d7ee8:	6973 676e 6e20 6d61 3a65 2520 0073 4c42     sing name: %s.BL
   d7ef8:	2045 706f 7265 7461 6f69 206e 6572 7573     E operation resu
   d7f08:	746c 3a73 2520 0064 6944 6173 6c62 6e69     lts: %d.Disablin
   d7f18:	2067 7375 7265 2523 2e64 4120 6464 3a72     g user#%d. Addr:
   d7f28:	2520 2e64 5220 6165 3a64 2520 2e78 5720      %d. Read: %x. W
   d7f38:	6972 6574 203a 7825 002e 7541 6874 726f     rite: %x..Author
   d7f48:	7a69 6e69 2067 7375 7265 2523 2e64 4120     izing user#%d. A
   d7f58:	6464 3a72 2520 2e64 5220 6165 3a64 2520     ddr: %d. Read: %
   d7f68:	2e78 5720 6972 6574 203a 7825 002e 7355     x. Write: %x..Us
   d7f78:	7265 4920 2044 2523 2064 6f6e 2077 6168     er ID #%d now ha
   d7f88:	2073 6361 6563 7373 6c20 7665 6c65 203a     s access level: 
   d7f98:	6425 4e00 6d61 6e69 2067 7375 7265 4920     %d.Naming user I
   d7fa8:	2044 2523 3a64 2520 0073 4545 5250 4d4f     D #%d: %s.EEPROM
   d7fb8:	4120 6176 6c69 6261 656c 203a 5600 7265      Available: .Ver
   d7fc8:	6669 6569 2064 4449 003a 6946 676e 7265     ified ID:.Finger
   d7fd8:	6e20 746f 6620 756f 646e 5700 6972 6974      not found.Writi
   d7fe8:	676e 7420 206f 4545 5250 4d4f 202e 6441     ng to EEPROM. Ad
   d7ff8:	7264 203a 6425 202e 6552 6461 203a 7825     dr: %d. Read: %x
   d8008:	202e 7257 7469 3a65 2520 2e78 5500 6573     . Write: %x..Use
   d8018:	2072 4449 2320 6425 6e20 776f 7520 6573     r ID #%d now use
   d8028:	0064 7355 7265 4920 2044 2523 2064 6f6e     d.User ID #%d no
   d8038:	2077 7661 6961 616c 6c62 0065 4449 2320     w available.ID #
   d8048:	6425 6120 6176 6c69 6261 656c 002e 7473     %d available..st
   d8058:	7261 2074 6e45 6f72 6c6c 4500 726e 6c6f     art Enroll.Enrol
   d8068:	206c 7473 7261 6574 0064 7250 7365 2073     l started.Press 
   d8078:	6966 676e 7265 7420 206f 6e45 6f72 6c6c     finger to Enroll
   d8088:	2320 4900 2044 2523 2064 4f4e 2054 7661      #.ID #%d NOT av
   d8098:	6961 616c 6c62 2e65 5200 6d65 766f 2065     ailable..Remove 
   d80a8:	6966 676e 7265 5000 6572 7373 7320 6d61     finger.Press sam
   d80b8:	2065 6966 676e 7265 6120 6167 6e69 5000     e finger again.P
   d80c8:	6572 7373 7320 6d61 2065 6966 676e 7265     ress same finger
   d80d8:	7920 7465 6120 6167 6e69 4500 726e 6c6f      yet again.Enrol
   d80e8:	696c 676e 5320 6375 6563 7373 7566 006c     ling Successful.
   d80f8:	654e 2077 7355 7265 4500 726e 6c6f 696c     New User.Enrolli
   d8108:	676e 4620 6961 656c 2064 6977 6874 6520     ng Failed with e
   d8118:	7272 726f 6320 646f 3a65 4600 6961 656c     rror code:.Faile
   d8128:	2064 6f74 6320 7061 7574 6572 7420 6968     d to capture thi
   d8138:	6472 6620 6e69 6567 0072 6146 6c69 6465     rd finger.Failed
   d8148:	7420 206f 6163 7470 7275 2065 6573 6f63      to capture seco
   d8158:	646e 6620 6e69 6567 0072 6146 6c69 6465     nd finger.Failed
   d8168:	7420 206f 6163 7470 7275 2065 6966 7372      to capture firs
   d8178:	2074 6966 676e 7265 4900 2044 2523 2064     t finger.ID #%d 
   d8188:	7369 6e20 7865 2074 7661 6961 616c 6c62     is next availabl
   d8198:	2065 6e6f 4620 5350 002e 704f 7265 7461     e on FPS..Operat
   d81a8:	6f69 3a6e 2520 2c78 5520 6573 3a72 2520     ion: %x, User: %
   d81b8:	0064 6c42 6575 6f74 746f 2068 6f43 6e6e     d.Bluetooth Conn
   d81c8:	6365 6574 2164 4200 756c 7465 6f6f 6874     ected!.Bluetooth
   d81d8:	4420 7369 6f63 6e6e 6365 6574 2e64 3600      Disconnected..6
   d81e8:	3445 3030 3030 2d30 3542 3341 462d 3933     E400000-B5A3-F39
   d81f8:	2d33 3045 3941 452d 3035 3245 4434 4343     3-E0A9-E50E24DCC
   d8208:	3941 0045 6572 6563 7669 0065 4536 3034     A9E.receive.6E40
   d8218:	3030 3230 422d 4135 2d33 3346 3339 452d     0002-B5A3-F393-E
   d8228:	4130 2d39 3545 4530 3432 4344 4143 4539     0A9-E50E24DCCA9E
   d8238:	7400 6172 736e 696d 0074 4536 3034 3030     .transmit.6E4000
   d8248:	3130 422d 4135 2d33 3346 3339 452d 4130     01-B5A3-F393-E0A
   d8258:	2d39 3545 4530 3432 4344 4143 4539 0000     9-E50E24DCCA9E..

000d8268 <CSWTCH.46>:
   d8268:	0000 1001 1002 1003 1004 1005 1006 1007     ................
   d8278:	1008 1009 100a 100b 100c 100d 100e 100f     ................
   d8288:	1010 1011 1012 6552 7073 6e6f 6573 505f     ......Response_P
   d8298:	6361 656b 2074 6170 7372 6e69 2067 7265     acket parsing er
   d82a8:	6f72 2072 2000 7c7c 0020 2120 203d 4300     ror . || . != .C
   d82b8:	4d4f 414d 444e 535f 4154 5452 435f 444f     OMMAND_START_COD
   d82c8:	5f45 0031 4f43 4d4d 4e41 5f44 5453 5241     E_1.COMMAND_STAR
   d82d8:	5f54 4f43 4544 325f 4300 4d4f 414d 444e     T_CODE_2.COMMAND
   d82e8:	445f 5645 4349 5f45 4449 315f 4300 4d4f     _DEVICE_ID_1.COM
   d82f8:	414d 444e 445f 5645 4349 5f45 4449 325f     MAND_DEVICE_ID_2
   d8308:	4100 6b63 614e 5f6b 4f4c 0057 6341 4e6b     .AckNak_LOW.AckN
   d8318:	6b61 485f 4749 0048 6843 6365 736b 6d75     ak_HIGH.Checksum
   d8328:	4c5f 574f 4300 6568 6b63 7573 5f6d 4948     _LOW.Checksum_HI
   d8338:	4847 2500 322e 0058 0022 5046 2053 202d     GH.%.2X.".FPS - 
   d8348:	4553 444e 203a 4600 5350 2d20 5220 4345     SEND: .FPS - REC
   d8358:	3a56 0020 5046 2053 202d 704f 6e65 4600     V: .FPS - Open.F
   d8368:	5350 2d20 4320 6f6c 6573 4600 5350 2d20     PS - Close.FPS -
   d8378:	4c20 4445 6f20 006e 5046 2053 202d 454c      LED on.FPS - LE
   d8388:	2044 666f 0066 5046 2053 202d 6843 6e61     D off.FPS - Chan
   d8398:	6567 6142 6475 6152 6574 4600 5350 2d20     geBaudRate.FPS -
   d83a8:	4720 7465 6e45 6f72 6c6c 6465 6f43 6e75      GetEnrolledCoun
   d83b8:	0074 5046 2053 202d 6843 6365 456b 726e     t.FPS - CheckEnr
   d83c8:	6c6f 656c 0064 5046 2053 202d 6e45 6f72     olled.FPS - Enro
   d83d8:	6c6c 7453 7261 0074 5046 2053 202d 6e45     llStart.FPS - En
   d83e8:	6f72 6c6c 0031 5046 2053 202d 6e45 6f72     roll1.FPS - Enro
   d83f8:	6c6c 0032 5046 2053 202d 6e45 6f72 6c6c     ll2.FPS - Enroll
   d8408:	0033 5046 2053 202d 6544 656c 6574 4449     3.FPS - DeleteID
   d8418:	4600 5350 2d20 4420 6c65 7465 4165 6c6c     .FPS - DeleteAll
   d8428:	4600 5350 2d20 5620 7265 6669 3179 315f     .FPS - Verify1_1
   d8438:	4600 5350 2d20 4920 6564 746e 6669 3179     .FPS - Identify1
   d8448:	4e5f 4600 5350 2d20 4320 7061 7574 6572     _N.FPS - Capture
   d8458:	6946 676e 7265 0000                         Finger..

000d8460 <_ZTVN5spark13EthernetClassE>:
	...
   d8468:	5bf7 000d 5bed 000d 5be3 000d 5bd9 000d     .[...[...[...[..
   d8478:	5bcd 000d 5bc1 000d 5bb5 000d 5bad 000d     .[...[...[...[..
   d8488:	5ba3 000d 5b99 000d 7845 000d               .[...[..Ex..

000d8494 <_ZTVSt19_Sp_counted_deleterIPN8particle21BleCharacteristicImplENSt12__shared_ptrIS1_LN9__gnu_cxx12_Lock_policyE0EE8_DeleterISaIS1_EEES8_LS5_0EE>:
	...
   d849c:	5e03 000d 5e09 000d 6b11 000d 5e33 000d     .^...^...k..3^..
   d84ac:	5e05 000d                                   .^..

000d84b0 <_ZTVSt19_Sp_counted_deleterIPN8particle14BleServiceImplENSt12__shared_ptrIS1_LN9__gnu_cxx12_Lock_policyE0EE8_DeleterISaIS1_EEES8_LS5_0EE>:
	...
   d84b8:	5dfd 000d 5e17 000d 6c1d 000d 5e37 000d     .]...^...l..7^..
   d84c8:	5dff 000d                                   .]..

000d84cc <_ZTVSt19_Sp_counted_deleterIPN8particle17BlePeerDeviceImplENSt12__shared_ptrIS1_LN9__gnu_cxx12_Lock_policyE0EE8_DeleterISaIS1_EEES8_LS5_0EE>:
	...
   d84d4:	5df7 000d 5e25 000d 65fb 000d 5e3b 000d     .]..%^...e..;^..
   d84e4:	5df9 000d                                   .]..

000d84e8 <_ZN8particle12_GLOBAL__N_1L29PARTICLE_DEFAULT_BLE_SVC_UUIDE>:
   d84e8:	e37b 7427 f87b ac15 49dd 13a9 0000 f572     {.'t{....I....r.
   d84f8:	6977 6972 676e 622e 656c 5300 6174 7472     wiring.ble.Start
   d8508:	6420 7369 6f63 6576 6972 676e 7320 7265      discovering ser
   d8518:	6976 6563 2e73 5300 6174 7472 6420 7369     vices..Start dis
   d8528:	6f63 6576 6972 676e 6320 6168 6172 7463     covering charact
   d8538:	7265 7369 6974 7363 002e 6550 7265 6420     eristics..Peer d
   d8548:	7665 6369 2065 7369 6d20 7369 6973 676e     evice is missing
   d8558:	0021 6146 6c69 6465 7420 206f 7061 6570     !.Failed to appe
   d8568:	646e 7020 6565 2072 6543 746e 6172 206c     nd peer Central 
   d8578:	6564 6976 6563 002e 6f43 6e6e 6365 6574     device..Connecte
   d8588:	2064 7962 4320 6e65 7274 6c61 6420 7665     d by Central dev
   d8598:	6369 2e65 4400 7369 6f63 6e6e 6365 6574     ice..Disconnecte
   d85a8:	2064 7962 7220 6d65 746f 2065 6564 6976     d by remote devi
   d85b8:	6563 002e 6143 6e6e 746f 6120 6464 6e20     ce..Cannot add n
   d85c8:	7765 7020 6565 2072 6564 6976 6563 002e     ew peer device..
   d85d8:	654e 2077 6570 6972 6870 7265 6c61 6920     New peripheral i
   d85e8:	2073 6f63 6e6e 6365 6574 2e64 4600 6961     s connected..Fai
   d85f8:	656c 2064 6f74 6120 7070 6e65 2064 6964     led to append di
   d8608:	6373 766f 7265 6465 6320 6168 6172 7463     scovered charact
   d8618:	7265 7369 6974 2e63 4600 6961 656c 2064     eristic..Failed 
   d8628:	6f74 6120 7070 6e65 2064 6964 6373 766f     to append discov
   d8638:	7265 6465 7320 7265 6976 6563 002e 6146     ered service..Fa
   d8648:	6c69 6465 7420 206f 7061 6570 646e 6c20     iled to append l
   d8658:	636f 6c61 6320 6168 6172 7463 7265 7369     ocal characteris
   d8668:	6974 2e63 4400 7075 696c 6163 6574 2064     tic..Duplicated 
   d8678:	6863 7261 6361 6574 6972 7473 6369 6320     characteristic c
   d8688:	6e61 6f6e 2074 6562 6120 6464 6465 002e     annot be added..

000d8698 <_ZN8particle7BleUuid9BASE_UUIDE>:
   d8698:	34fb 5f9b 0080 8000 1000 0000 0000 0000     .4._............
   d86a8:	6162 6475 5300 7265 6169 006c 6553 6972     baud.Serial.Seri
   d86b8:	6c61 0031 7974 6570 7000 7261 6d61 6300     al1.type.param.c
   d86c8:	646d 6900 0064 6e68 0064 7473 6d72 6600     md.id.hnd.strm.f
   d86d8:	6c69 0074 766c 006c 6461 4864 6e61 6c64     ilt.lvl.addHandl
   d86e8:	7265 7200 6d65 766f 4865 6e61 6c64 7265     er.removeHandler
   d86f8:	6500 756e 486d 6e61 6c64 7265 0073 534a     .enumHandlers.JS
   d8708:	4e4f 7453 6572 6d61 6f4c 4867 6e61 6c64     ONStreamLogHandl
   d8718:	7265 6100 7070 2500 3130 7530 0020 205d     er.app.%010u .] 
   d8728:	2c00 0020 2928 203a 2000 005b 6f63 6564     ., .(): . [.code
   d8738:	3d20 0020 6925 6400 7465 6961 736c 3d20      = .%i.details =
   d8748:	0020 0a0d 6c00 006e 6e66 6300 646f 0065      ....ln.fn.code.
   d8758:	6564 6174 6c69 6e00 6e6f 0065 7274 6361     detail.none.trac
   d8768:	0065 6e69 6f66 7700 7261 006e 7265 6f72     e.info.warn.erro
   d8778:	0072 6170 696e 0063 6c61 006c 005a 2b25     r.panic.all.Z.%+
   d8788:	3330 3a64 3025 7532 2500 2d59 6d25 252d     03d:%02u.%Y-%m-%
   d8798:	5464 4825 253a 3a4d 5325 7a25 6100 6373     dT%H:%M:%S%z.asc
   d87a8:	6974 656d 0000 0000                         time....

000d87b0 <_ZTV9IPAddress>:
	...
   d87b8:	7219 000d 7209 000d 720b 000d               .r...r...r..

000d87c4 <_ZTV9USBSerial>:
	...
   d87cc:	72f1 000d 7341 000d 734f 000d 6ef5 000d     .r..As..Os...n..
   d87dc:	732d 000d 72f3 000d 7309 000d 733b 000d     -s...r...s..;s..
   d87ec:	731f 000d 72ed 000d                         .s...r..

000d87f4 <_ZTV11USARTSerial>:
	...
   d87fc:	7449 000d 7499 000d 74a7 000d 6ef5 000d     It...t...t...n..
   d880c:	745d 000d 747f 000d 746b 000d 7493 000d     ]t...t..kt...t..
   d881c:	744b 000d 744f 000d                         Kt..Ot..

000d8824 <_ZTV7TwoWire>:
	...
   d882c:	7561 000d 75ab 000d 7583 000d 7563 000d     au...u...u..cu..
   d883c:	758b 000d 7593 000d 759b 000d 75a3 000d     .u...u...u...u..

000d884c <_ZTVN5spark9MeshClassE>:
	...
   d8854:	7643 000d 7639 000d 762f 000d 7625 000d     Cv..9v../v..%v..
   d8864:	7619 000d 760d 000d 7601 000d 75f9 000d     .v...v...v...u..
   d8874:	75ef 000d 75e5 000d 7845 000d               .u...u..Ex..

000d8880 <_ZTVN5spark9WiFiClassE>:
	...
   d8888:	77bf 000d 77b5 000d 77ab 000d 7761 000d     .w...w...w..aw..
   d8898:	779f 000d 7793 000d 7787 000d 777f 000d     .w...w...w...w..
   d88a8:	7775 000d 776b 000d 7845 000d               uw..kw..Ex..

000d88b4 <_ZTVN5spark12NetworkClassE>:
	...
   d88bc:	77dd 000d 77e7 000d 77f1 000d 77fb 000d     .w...w...w...w..
   d88cc:	7805 000d 7811 000d 781d 000d 7829 000d     .x...x...x..)x..
   d88dc:	7831 000d 783b 000d 7845 000d               1x..;x..Ex..

000d88e8 <_ZSt7nothrow>:
   d88e8:	0000 0000                                   ....

000d88ec <__sf_fake_stdin>:
	...

000d890c <__sf_fake_stdout>:
	...

000d892c <__sf_fake_stderr>:
	...
   d894c:	0043                                        C.

000d894e <link_const_variable_data_end>:
	...

000d8950 <link_constructors_location>:
   d8950:	000d410d 	.word	0x000d410d
   d8954:	000d4bdd 	.word	0x000d4bdd
   d8958:	000d55a9 	.word	0x000d55a9
   d895c:	000d5c01 	.word	0x000d5c01
   d8960:	000d5c31 	.word	0x000d5c31
   d8964:	000d6ecd 	.word	0x000d6ecd
   d8968:	000d7031 	.word	0x000d7031
   d896c:	000d7041 	.word	0x000d7041
   d8970:	000d70dd 	.word	0x000d70dd
   d8974:	000d7711 	.word	0x000d7711
   d8978:	000d77c9 	.word	0x000d77c9
   d897c:	000d7911 	.word	0x000d7911
   d8980:	000d7af9 	.word	0x000d7af9
   d8984:	000d7b7d 	.word	0x000d7b7d
   d8988:	000d7c41 	.word	0x000d7c41
   d898c:	000d7d05 	.word	0x000d7d05
